xc:_glClearStencil
geg:_UInt16_System_IConvertible_ToChar_m2096055221_AdjustorThunk
qJf:_Array_TrueForAll_TisRuntimeObject_m1084992726_gshared
z8g:_List_1_Contains_m2043664690_gshared
amj:__ZN6il2cpp2vm5Array13GetByteLengthEP11Il2CppArray
Azi:_KeyBuilder_get_Rng_m3373220441
BXc:__ZN15DownloadHandler7OnAbortEv
qSa:__Z30GetIntermediateRendererManagerv
ofi:_U3CCreateWhereIteratorU3Ec__Iterator1D_1_System_Collections_Generic_IEnumeratorU3CTSourceU3E_get_Current_m1909387290_gshared
Sxa:__Z21SourceMipLevelForBlitiiii
SWa:__ZN31CanvasBatchIntermediateRenderer15AddAsRenderNodeER15RenderNodeQueueRK20DeprecatedSourceData
xbg:_TimeSpan_get_Hours_m550761902
fRh:__ZL95CanvasRenderer_t2598313366_CustomAttributesCacheGenerator_CanvasRenderer_SetMaterial_m824577244P21CustomAttributesCache
XPh:__ZL72GUISkin_t1244372282_CustomAttributesCacheGenerator_m_verticalSliderThumbP21CustomAttributesCache
gJh:__ZL63PlayableOutputHandle_t4208053793_CustomAttributesCacheGeneratorP21CustomAttributesCache
nYd:_UnmanagedMemoryStream_Write_m930787521
tTc:__ZN11UnityEngine7Connect14AppUpdateEventD0Ev
ymh:__ZL66RuntimeArray_CustomAttributesCacheGenerator_Array_Sort_m3287581440P21CustomAttributesCache
TW:__ZdlPv
yr:__ZN11UnityEngine9Animation28GenericAnimationBindingCacheD2Ev
Y8f:_UTF8Encoding_GetHashCode_m641510078
hqi:_X509Store_LoadCrl_m1881903843
e2h:_Array_Sort_TisUICharInfo_t75501106_TisUICharInfo_t75501106_m722747892_gshared
AFd:_CaseInsensitiveComparer__ctor_m2101975011
OEg:__Z67RuntimeInvoker_Byte_t1134296376_Int32_t2950945753_Int32_t2950945753PFvvEPK10MethodInfoPvPS4_
Q6a:__ZNSt3__26vectorI13dynamic_arrayI8Vector2fLj4EENS_9allocatorIS3_EEEC2INS_11__wrap_iterIPS3_EEEET_SB_RKS5_PNS_9enable_ifIXaasr21__is_forward_iteratorISB_EE5valuesr16is_constructibleIS3_NS_15iterator_traitsISB_E9referenceEEE5valueEvE4typeE
rDg:__Z53RuntimeInvoker_UInt32_t2560061978_Decimal_t2948259380PFvvEPK10MethodInfoPvPS4_
XXb:__Z18RestoreRenderStateR20CameraRenderOldStateR17ShaderPassContext
ryb:__Z18Transfer_BlittableI18StreamedBinaryReadILb1EELb1E5RectTIfEEvRK29SerializationCommandArgumentsR31RuntimeSerializationCommandInfo
jub:__Z18Transfer_BlittableI24GenerateTypeTreeTransferLb0E11ColorRGBA32EvRK29SerializationCommandArgumentsR31RuntimeSerializationCommandInfo
cDb:__Z25scripting_class_from_name17ScriptingImagePtrPKcS1_
lMf:_Array_InternalArray__IndexOf_TisKeyValuePair_2_t3699644050_m1021241249_gshared
G6i:__ZN14dense_hash_mapI10KeyWrapperINSt3__24pairIPK12PropertyInfoP11Il2CppClassEEEj17ReflectionMapHashIS8_ENS9_14EqualsComparerINS1_8equal_toIS8_EEEENS1_9allocatorINS2_IKS9_jEEEEE15set_deleted_keyERSH_
DEb:__Z29scripting_class_enum_basetype17ScriptingClassPtr
y8g:_List_1_Clear_m3097985365_gshared
HX:__ZNK12BaseRenderer18GetRenderNodeCountEv
eld:_PropertyBuilder_get_CanWrite_m2657562188
_se:_InternalEnumerator_1_get_Current_m1477715453_gshared
S$f:_Enumerator__ctor_m2827156589_AdjustorThunk
Glb:__ZNK20LocalFileSystemPosix6ParentERK13FileEntryDataRN4core12basic_stringIcNS3_20StringStorageDefaultIcEEEE
nvg:_RectTransform_GetWorldCorners_m3553547973
Meh:_Collection_1_System_Collections_IList_Remove_m1476284619_gshared
b0e:_ContractionComparer__ctor_m3439667810
n_d:_MonoType_IsPrimitiveImpl_m2401722705
Bjf:_SHA1CryptoServiceProvider__ctor_m4195188793
_kg:_CSSMeasureFunc_BeginInvoke_m3802154595
E8c:_Dropdown_Hide_m504034854
CLa:__ZN17PersistentManager22CheckInstanceIDsLoadedEPii
N3a:__ZN9Texture2D25CreateScaledAndPaddedDataEPP17SharedTextureDataS2_
jzg:_Vector2_get_up_m2647420593
wva:__ZN7ApiGLES17CopyBufferSubDataEjjlll
mPf:_Array_InternalArray__ICollection_CopyTo_TisUInt64_t4134040092_m691431926_gshared
qeh:__ZN23InterfaceActionInvoker2Ii22OrderBlock_t1585977831E6InvokeEjP11Il2CppClassP12Il2CppObjectiS0_
oaf:_IPAddress_ToString_m1181734207
d7f:_StringBuilder_Append_m1965104174
Poc:__ZN5Unity9rapidjson15GenericDocumentINS0_4UTF8IcEE13JSONAllocatorS4_E11ParseStreamILj1ES3_NS0_25GenericInsituStringStreamIS3_EEEERS5_RT1_
xQi:__ZNSt3__26vectorIPK10Il2CppTypeNS_9allocatorIS3_EEE7reserveEj
PVf:_EqualityComparer_1__cctor_m3766928733_gshared
cQb:__ZN25CameraStackRenderingState20GetOrCreateBuiltinRTE24BuiltinRenderTextureTypeii17DepthBufferFormat19RenderTextureFormatj22RenderTextureReadWrite14VRTextureUsagei
wii:_UnityAction_1_Invoke_m610765085_gshared
tO:__ZN11AudioModule26SetDefaultMicrophoneDriverEPv
N5d:_Kernel_modInverse_m652700340
i8a:__ZNK14Texture2DArray26CanReuploadDataToGfxDeviceEv
rUb:__ZN17PrePassRenderLoop14RenderBasePassEP13RenderTextureRK14LightingLayersR13dynamic_arrayI16RenderObjectDataLj4EERbR10MinMaxAABB
pQa:__ZN17GlobalGameManager23VirtualRedirectTransferER17RemapPPtrTransfer
EEc:_sfnt_stream_close
Emc:__ZN5IMGUI18RepaintModalWindowER8GUIState
N7e:_HybridDictionary_get_IsSynchronized_m2987560362
f4:__ZNK15dense_hashtableINSt3__24pairIKN9ShaderLab7Program23ShaderKeywordSetAndHashEPKNS2_10SubProgramEEES4_NS3_24ShaderKeywordHashFunctorEN14dense_hash_mapIS4_S8_SA_NS0_8equal_toIS4_EE13stl_allocatorIS9_L18MemLabelIdentifier67ELi16EEE9SelectKeyESD_SG_E23find_position_with_hashERS5_j
TDf:_CompareInfo_Finalize_m404687489
T6a:__Z23SetSpriteMeshIndexCountP14SharedMeshDataj
$8f:_UTF8Decoder_GetChars_m1236346907
Bxg:_TouchScreenKeyboard_Open_m231964201
V_a:__ZN7Texture13SetFilterModeEi
Xsg:_Quaternion_GetHashCode_m2636680144_AdjustorThunk
wIb:__ZNSt3__26vectorINS_4pairIiN17InstancingBatcher12PropertyTypeEEE13stl_allocatorIS4_L18MemLabelIdentifier1ELi16EEE21__push_back_slow_pathIKS4_EEvRT_
EAi:_ChoiceScript_ChoiceOption02_m2552886675
nOh:__ZL99AudioSource_t3935305588_CustomAttributesCacheGenerator_AudioSource_t3935305588____clip_PropertyInfoP21CustomAttributesCache
Bnj:__ZN6il2cpp8metadata13GenericMethod9GetMethodEPK19Il2CppGenericMethod
mq:__ZNSt3__26vectorIN4core12basic_stringIcNS1_20StringStorageDefaultIcEEEENS_9allocatorIS5_EEE7reserveEj
cfd:_Default_SelectProperty_m1220817815
zLe:_RemotingConfiguration_IsRemotelyActivatedClientType_m4117048589
pvg:_Transform_TransformPoint_m226827784
Ski:_ListPool_1_Get_m738675669_gshared
ppa:__ZN13GfxDeviceGLES11SetViewportERK5RectTIiE
Od:_emscripten_glDepthRange
wge:_SslStreamBase_BeginNegotiateHandshake_m4180435790
k_b:__ZNSt3__26vectorINS_4pairIN4core12basic_stringIcNS2_20StringStorageDefaultIcEEEES6_EE13stl_allocatorIS7_L18MemLabelIdentifier38ELi16EEE12__move_rangeEPS7_SC_SC_
zia:__Z14resize_trimmedINSt3__26vectorIN9ShaderLab20SerializedSubProgram12UAVParameterENS0_9allocatorIS4_EEEEEvRT_j
hpc:__ZN5Unity9rapidjson13GenericReaderINS0_4UTF8IcEES3_13JSONAllocatorE11ParseObjectILj1ENS0_25GenericInsituStringStreamIS3_EENS0_15GenericDocumentIS3_S4_S4_EEEEvRT0_RT1_
Y2c:_StandaloneInputModule_GetRawMoveVector_m2737091079
Jbc:__ZN13BuildSettings34ConvertScenePathToDisplayScenePathERKN4core12basic_stringIcNS0_20StringStorageDefaultIcEEEE
gXh:__ZL62Selectable_t3250028441_CustomAttributesCacheGenerator_m_ColorsP21CustomAttributesCache
Pge:_SslStreamBase_EndWrite_m4073224031
E1:__ZNSt3__218__insertion_sort_3IRNS_6__lessI14ObjectLoadDataS2_EEPS2_EEvT0_S6_T_
zOh:__ZL92Event_t2956885303_CustomAttributesCacheGenerator_Event_Internal_GetMousePosition_m1101229675P21CustomAttributesCache
G1g:_List_1_System_Collections_ICollection_get_SyncRoot_m1244917400_gshared
mxa:__ZN4crndL20crnd_default_reallocEPvjPjbS0_
UZg:__Z54RuntimeInvoker_CustomAttributeNamedArgument_t287865710PFvvEPK10MethodInfoPvPS4_
tBj:__ZNSt3__212basic_stringIcNS_11char_traitsIcEENS_9allocatorIcEEEC2ERKS5_
J7a:__ZN18SpriteAtlasManager19AddRequestingSpriteE4PPtrI6SpriteE
ljc:__Z33Texture_CUSTOM_Internal_GetHeightP12Il2CppObject
ZOh:__ZL102GUIStyle_t3956901511_CustomAttributesCacheGenerator_GUIStyle_INTERNAL_CALL_GetRectOffsetPtr_m152975056P21CustomAttributesCache
cM:__ZNK4PPtrI9AudioClipEptEv
fBe:_ValueCollection_System_Collections_ICollection_get_SyncRoot_m3381653267_gshared
R4c:_CanvasScaler_get_defaultSpriteDPI_m871626936
aXb:__ZN23ScriptableRenderContextC2Ev
sbd:_GridLayoutGroup_get_spacing_m2409263614
CSa:__ZN4PPtrI13RenderTextureE8TransferI18StreamedBinaryReadILb0EEEEvRT_
_ze:_Enumerator_MoveNext_m3051926902_gshared
V2f:_List_1_CheckIndex_m581273900_gshared
yGc:_UNITY_FT_Stream_GetChar
bAg:_WaitForSeconds_t1699091251_marshal_pinvoke
hli:_ObjectPool_1_get_countAll_m819305395_gshared
Syb:__Z18Transfer_BlittableI18StreamedBinaryReadILb1EELb1EdEvRK29SerializationCommandArgumentsR31RuntimeSerializationCommandInfo
d4g:_List_1_ToArray_m190175978_gshared
LEb:__Z26BuildSerializationCacheFor17ScriptingClassPtrRb
$_c:_EventSystem_get_firstSelectedGameObject_m1576206896
wDa:__ZN7ApiGLES15BlitFramebufferEN2gl6HandleILNS0_10ObjectTypeE9EEENS0_15FramebufferReadES3_S3_iiiiiiiiNS0_15FramebufferTypeE
D7i:_il2cpp_class_get_name
ZMg:__Z112RuntimeInvoker_RuntimeObject_RuntimeObject_RuntimeObject_RuntimeObject_RuntimeObject_RuntimeObject_RuntimeObjectPFvvEPK10MethodInfoPvPS4_
nse:_InternalEnumerator_1_System_Collections_IEnumerator_get_Current_m3553395619_AdjustorThunk
_oh:__ZL70AssemblyVersionCompatibility_t766556580_CustomAttributesCacheGeneratorP21CustomAttributesCache
lxd:_Array_SetValue_m3998268557
zvc:__ZN8JSONRead8TransferI8Vector4fEEvRT_PKc17TransferMetaFlagsb
O5c:_ColorBlock_set_highlightedColor_m2089444414_AdjustorThunk
ZVg:__Z59RuntimeInvoker_Boolean_t97287965_X509ChainStatus_t133602714PFvvEPK10MethodInfoPvPS4_
_ug:_RectTransform_INTERNAL_set_anchoredPosition_m939517950
hde:_Context_EndSwitchingSecurityParameters_m4148956166
CBc:_otv_PairPos_validate
Uyh:__ZL63ThreadStateException_t3003788475_CustomAttributesCacheGeneratorP21CustomAttributesCache
aw:__ZN7mecanim9animation14CopyHumanPosesEPKNS0_18AnimationNodeStateEPS1_RKNS_6bitsetILj83EEE
AYi:__ZN6il2cpp6icalls8mscorlib6SystemL8IsStaticEPK12PropertyInfo
aGb:__Z9InitInputv
S5i:__ZN30dense_hashtable_const_iteratorINSt3__24pairIK10KeyWrapperIPK22Il2CppGenericParameterEPK24MonoGenericParameterInfoEES6_N6il2cpp5utils11PointerHashIS4_EEN14dense_hash_mapIS6_SA_SF_NS6_14EqualsComparerINS0_8equal_toIS5_EEEENS0_9allocatorISB_EEE9SelectKeyESK_SM_E30advance_past_empty_and_deletedEv
xDc:_UNITY_tt_face_build_cmaps
b2i:__ZN6il2cpp2gc19AppendOnlyGCHashMapINSt3__24pairIPK10MethodInfoP11Il2CppClassEEP22Il2CppReflectionMethod17ReflectionMapHashIS9_ENS2_8equal_toIS9_EEE3AddERKS9_SB_
Lmb:__ZN16MemoryFileSystem6DeleteER13FileEntryDatab
JHg:__Z81RuntimeInvoker_Void_t1185182177_RuntimeObject_Int64_t3736567304_Int32_t2950945753PFvvEPK10MethodInfoPvPS4_
e4f:_List_1_set_Item_m1979164443_gshared
iya:__ZL21BlitScaleStbImageImplRK14ImageReferenceRS_NS_10ColorSpaceE
Vzd:_Boolean_System_IConvertible_ToUInt16_m3465173538_AdjustorThunk
LPe:_InputField_get_keyboardType_m1248105267
aqb:__Z29Transfer_Blittable_ArrayFieldI14SafeBinaryReadyEvRT_R9ArrayInfoRK23StaticTransferFieldInfo
iM:__ZN20SoundChannelInstance15setChannelGroupEPN4FMOD12ChannelGroupE
Fqi:_Match__ctor_m2425511580
Zph:__ZL63FileNotFoundException_t225391025_CustomAttributesCacheGeneratorP21CustomAttributesCache
IFh:__ZL84Behaviour_t1437897464_CustomAttributesCacheGenerator_Behaviour_set_enabled_m20417929P21CustomAttributesCache
lc:invoke_vifffii
CBb:__Z35Transfer_Blittable_FixedBufferFieldI18StreamedBinaryReadILb0EEaEvRK29SerializationCommandArgumentsR31RuntimeSerializationCommandInfo
tdj:__ZN6il2cpp2vm9Exception27RaiseNullReferenceExceptionEv
sOa:__ZNK25MultiBlocksMemoryFileData5CloneEv
yyd:_AsyncCallback_BeginInvoke_m2710486612
htj:_GC_add_ext_descriptor
s0i:__ZNK15dense_hashtableINSt3__24pairIK10KeyWrapperINS1_IPK14Il2CppAssemblyP11Il2CppClassEEEjEES9_17ReflectionMapHashIS8_EN14dense_hash_mapIS9_jSD_NS9_14EqualsComparerINS0_8equal_toIS8_EEEENS0_9allocatorISB_EEE9SelectKeyESI_SK_E23find_position_with_hashERSA_j
_3h:_LayoutGroup_SetProperty_TisSingle_t1397266774_m793506911_gshared
juj:__ZN6il2cpp2os14WindowsRuntime22GetRestrictedErrorInfoEv
N1d:_CryptoConfig_CreateFromName_m1538277313
xah:_Queue_1__ctor_m263978079_gshared
lBi:_U3CCrossFadeOutU3Ec__Iterator0__ctor_m693215687
xNa:__ZN17ArchiveFileSystem11CreateAsDirER13FileEntryData
uDj:dynCall_iiiiiiiiiiii
WPe:_InputField_set_caretPositionInternal_m3823580651
DJa:__ZN22VertexDeclarationCacheD0Ev
xZe:_Selectable_set_interactable_m3105888815
cXa:__ZL26KeywordSetToStringDontSortRKNSt3__26vectorIN4core12basic_stringIcNS1_20StringStorageDefaultIcEEEENS_9allocatorIS5_EEEERS5_
aAa:__ZN6prcoreL17RemapGenericFloatI16TexFormatRGFloat17TexFormatRGBAHalfEEvPKNS_9InnerInfoE
rG:__ZN12AudioManager22CreateFMODSoundFromWWWEP10IWWWStream15FMOD_SOUND_TYPE17FMOD_SOUND_FORMATjjbbP10SampleClip
T5b:__ZNK32RendererMaterialAnimationBinding15GenerateBindingERKN4core12basic_stringIcNS0_20StringStorageDefaultIcEEEEbRN11UnityEngine9Animation14GenericBindingE
fqd:_TargetException__ctor_m4172127019
$2g:_List_1_CheckCollection_m274117203_gshared
JRh:__ZL70EventSystem_t1003666588_CustomAttributesCacheGenerator_m_FirstSelectedP21CustomAttributesCache
_Z:__ZN8Remapper23GetOrGenerateInstanceIDERK26SerializedObjectIdentifier
A6c:_ColorTween_get_startColor_m3792586410_AdjustorThunk
ENa:__ZN17FileSystemHandler10AtomicMoveER13FileEntryDataS1_
Ya:invoke_iiiiiifffiiifii
GEg:__Z85RuntimeInvoker_Void_t1185182177_Int32_t2950945753_Int32_t2950945753_Int32_t2950945753PFvvEPK10MethodInfoPvPS4_
JMe:_BinaryFormatter_get_SurrogateSelector_m2111882017
Ptd:_X509CertificateCollection__ctor_m3365535796
Wcd:_CustomInfo__ctor_m426096741
r$c:_EventSystem_ToString_m3779610692
c7a:__ZN6Sprite8TransferI24GenerateTypeTreeTransferEEvRT_
KKe:_SoapTypeAttribute_get_IsInteropXmlType_m629667929
nkc:__Z48Register_UnityEngine_Transform_SetAsFirstSiblingv
o1a:__ZNK18DelayedCallManager22GetTypeVirtualInternalEv
f7a:__ZN7SubMesh8TransferI24GenerateTypeTreeTransferEEvRT_
Rui:_Literal_IsComplex_m4067122560
BZi:_NativeTypeAttribute__ctor_m133676646
AJb:__ZN19GfxThreadableDevice20SetShadersThreadableEPP10GpuProgramPPK20GpuProgramParametersPKPKh
Ahh:_Collection_1_System_Collections_IList_Contains_m296643274_gshared
qSd:_DirectoryInfo__ctor_m126519516
Fmd:_MethodBase_GetMethodFromIntPtr_m3014201362
Seh:__ZN21InterfaceFuncInvoker1I19Color32_t2600501292iE6InvokeEjP11Il2CppClassP12Il2CppObjecti
s$h:__ZL116U3CCrossFadeU3Ec__Iterator0_t3936085357_CustomAttributesCacheGenerator_U3CCrossFadeU3Ec__Iterator0_Reset_m3180812923P21CustomAttributesCache
nEg:__Z40RuntimeInvoker_TypeAttributes_t113483779PFvvEPK10MethodInfoPvPS4_
xcc:__ZN9Transform23SetSiblingIndexInternalEib
N3g:_List_1_Clear_m1143167521_gshared
hmd:_AddEventAdapter__ctor_m2428277574
xjh:_Collection_1_SetItem_m794903769_gshared
IId:_Enumerator_MoveNext_m635366482
cud:_X509Extension_Equals_m1222951829
uu:__ZN7mecanim5human12HumanPoseSubERNS0_9HumanPoseERKS1_S4_
A$g:__Z37RuntimeInvoker_Enumerator_t1789501480PFvvEPK10MethodInfoPvPS4_
zhj:__ZN6il2cpp8metadata15GenericMetadata15GetGenericClassEiPK17Il2CppGenericInst
ICd:_Char_GetTypeCode_m2433327340_AdjustorThunk
Bob:__Z18Transfer_BlittableI14SafeBinaryReadLb0E10Matrix4x4fEvRK29SerializationCommandArgumentsR31RuntimeSerializationCommandInfo
aEb:__Z24GetFixedBehaviourManagerv
jlh:__ZL69IntPtr_t_CustomAttributesCacheGenerator_IntPtr_op_Equality_m408849716P21CustomAttributesCache
wXi:__ZN6il2cpp2vm10ThreadPool4WaitEP17Il2CppAsyncResultPPv
E$e:_Text_UpdateGeometry_m3634850647
Tpi:_X509Crl_VerifySignature_m1377612461
Iyj:_vfprintf
bnc:__ZN10GUIManager12AddGUIScriptER8ListNodeI13MonoBehaviourE
nBf:_NumberFormatInfo_get_PositiveInfinitySymbol_m1141345134
XId:_Stack_Clear_m2010200235
L0a:__ZL13SortTexByNameRKNSt3__24pairIN9ShaderLab16FastPropertyNameEN18UnityPropertySheet11UnityTexEnvEEES7_
gyc:_cf2_getVStore
h1c:_PointerEventData_set_pointerPressRaycast_m1363193059
_Nb:__ZN20DynamicPropertySheetD0Ev
xsd:_SafeHandle_Dispose_m4229010569
o_b:__ZN14SafeBinaryRead17RegisterConverterEPKcS1_PFbPvRS_E
qKh:__ZL77RuntimePlatform_t4159857903_CustomAttributesCacheGenerator_OSXDashboardPlayerP21CustomAttributesCache
j8:__ZN35RegisterRuntimeInitializeAndCleanup8RegisterEPFvPvES2_iS0_
xni:_SubjectAltNameExtension_get_IPAddresses_m1641002124
Kid:_FieldBuilder_SetValue_m828035213
mQf:_Array_InternalArray__Insert_TisSingle_t1397266774_m3161726127_gshared
tbi:_ReadOnlyCollection_1_System_Collections_IList_get_IsFixedSize_m733459177_gshared
Glh:__ZL72Enum_t4135868527_CustomAttributesCacheGenerator_Enum_ToObject_m121962870P21CustomAttributesCache
E3f:__ZN23InterfaceActionInvoker2IP24ObjectU5BU5D_t2843939325iE6InvokeEjP11Il2CppClassP12Il2CppObjectS1_i
rkc:__Z21Object_CUSTOM_DestroyP12Il2CppObjectf
GKh:__ZL99SetupCoroutine_t2062820429_CustomAttributesCacheGenerator_SetupCoroutine_InvokeMoveNext_m3199342729P21CustomAttributesCache
coa:__ZN8Material26ResetAllCachedMaterialDataEP6Shader
BLg:__Z63RuntimeInvoker_Void_t1185182177_RuntimeObject_Int16_t2552820387PFvvEPK10MethodInfoPvPS4_
KGc:_UNITY_TT_Get_MM_Var
UNe:_ObjectManager_AddFixup_m2154325362
pue:_Comparer_1__cctor_m3761458313_gshared
rwf:_DateTimeOffset_CompareTo_m1350732322_AdjustorThunk
aa:invoke_diddi
JOc:__ZNK2UI6Canvas13GetRenderModeEv
Omg:_PersistentCall__ctor_m1217622171
qLf:_Array_compare_TisCustomAttributeTypedArgument_t2723150157_m1384644047_gshared
a7e:_StrongName_get_TokenAlgorithm_m1794722022
fSd:_BinaryReader_ReadInt32_m2994982418
Mnb:__Z18Transfer_BlittableI14SafeBinaryReadLb0EiEvRK29SerializationCommandArgumentsR31RuntimeSerializationCommandInfo
iWi:__ZN6il2cpp2vm13MetadataCache30GetPropertyDefinitionFromIndexEi
Izi:_SymmetricTransform_Transform_m1683494363
fug:_Rect_Contains_m1232228501
KVc:__ZN22BaseUnityConnectClient17InitializeSessionERKN4core12basic_stringIcNS0_20StringStorageDefaultIcEEEES6_N19CloudServiceHandler13InitModeFlagsE
tRg:__Z74RuntimeInvoker_RuntimeObject_Int32_t2950945753_RuntimeObject_RuntimeObjectPFvvEPK10MethodInfoPvPS4_
V8g:_List_1_get_Item_m200663048_gshared
jKe:_ReturnMessage_get_Exception_m3375728265
qJj:_emscripten_glDeleteBuffers__wrapper
coe:_InternalEnumerator_1_MoveNext_m3664960764_AdjustorThunk
Ydc:__ZN13MonoBehaviour34StopCoroutineFromEnumeratorManagedE18ScriptingObjectPtr
t1g:_List_1__ctor_m1345008423_gshared
IEc:_gray_raster_reset
ozg:_Vector3__ctor_m1719387948_AdjustorThunk
wE:__ZN7mecanim9animation14AvatarConstant15InitializeClassEv
bgb:__ZN30RuntimeInitializeOnLoadManager8TransferI18StreamedBinaryReadILb0EEEEvRT_
Dvf:_DateTimeOffset__ctor_m2084804982
ZCc:_UNITY_tt_face_load_pclt
ynb:__ZN9profiling17ScriptingProfiler31UpdateRegisteredScriptingEventsEv
udc:__ZL34GetComponentsImplementationRecurseILb1ELi0ELi2EEbR10GameObjectbRK17CompareParametersRK39GetComponentsImplementation_ReturnValue
dpg:_Material_GetTexture_m3545614349
WAi:_U3CCharFadeInU3Ec__Iterator0_Reset_m3653528692
sCg:__Z64RuntimeInvoker_RuntimeObject_Int32_t2950945753_Int16_t2552820387PFvvEPK10MethodInfoPvPS4_
O3e:_ASN1_get_Length_m1923878580
LWf:_EqualityComparer_1__cctor_m4244842342_gshared
vNb:__ZNK6Camera18WorldToScreenPointERK8Vector3fPb
nwg:_SendMouseEvents_DoSendMouseEvents_m2140870850
Fri:_PatternCompiler_EmitJump_m3915926156
FCa:__Z18IsCompressedFormat14GraphicsFormat
Pu:__ZN7mecanim9animation19AdjustPoseForMotionERKNS0_14AvatarConstantERKNS0_14SkeletonTQSMapERKN4math4trsXERNS_10ValueArrayERNS_8skeleton13SkeletonPoseTIS8_EESG_
jOe:_SerializationEntry_get_Name_m1530029541_AdjustorThunk
h9e:_TypeConverterAttribute_GetHashCode_m948291090
Mbg:__Z33il2cpp_codegen_check_add_overflowxx
aZ:__ZNSt3__227__insertion_sort_incompleteIRPFbRKN18AwakeFromLoadQueue4ItemES4_EPS2_EEbT0_S9_T_
mRg:__Z71RuntimeInvoker_Boolean_t97287965_AnimatorControllerPlayable_t1015767841PFvvEPK10MethodInfoPvPS4_
yKh:__ZL73RuntimePlatform_t4159857903_CustomAttributesCacheGenerator_MetroPlayerARMP21CustomAttributesCache
JRd:_InvalidOperationException__ctor_m1685032583
iUi:__ZN14dense_hash_mapI10KeyWrapperIN6il2cpp5utils13dynamic_arrayIPK10Il2CppTypeLj4EEEEPFvvENS1_8metadata19Il2CppSignatureHashENS8_14EqualsComparerINSB_22Il2CppSignatureCompareEEENSt3__29allocatorINSG_4pairIKS8_SA_EEEEE15set_deleted_keyERSJ_
scg:_TimeSpan_op_Subtraction_m3592306516
JYf:_EqualityComparer_1_System_Collections_IEqualityComparer_GetHashCode_m1517903420_gshared
E4a:__ZN26EnlightenSystemInformation8TransferI14SafeBinaryReadEEvRT_
gfb:__ZN24GenerateTypeTreeTransfer8TransferINSt3__26vectorIN15ResourceManager10DependencyE13stl_allocatorIS4_L18MemLabelIdentifier52ELi16EEEEEEvRT_PKc17TransferMetaFlags
zMi:_CanvasRenderer_SplitUIVertexStreams_m2753637362
RSg:__Z119RuntimeInvoker_Void_t1185182177_RuntimeObject_Single_t1397266774_Single_t1397266774_SByte_t1669577662_Int32_t2950945753PFvvEPK10MethodInfoPvPS4_
ZWc:__ZN11UnityEngine15PlatformWrapper20SetPlayerPrefsUInt64ERKN4core12basic_stringIcNS1_20StringStorageDefaultIcEEEEy
tbb:__ZN12MeshRendererD0Ev
GP:__ZN12AudioManager35GetCurrentSpatializerDefinitionNameEv
Gxg:_TouchScreenKeyboard_get_active_m4267591905
o5i:__ZNK15dense_hashtableINSt3__24pairIK10KeyWrapperIPK14Il2CppAssemblyEPK22Il2CppMonoAssemblyNameEES6_N6il2cpp5utils11PointerHashIS4_EEN14dense_hash_mapIS6_SA_SF_NS6_14EqualsComparerINS0_8equal_toIS5_EEEENS0_9allocatorISB_EEE9SelectKeyESK_SM_E8min_sizeEjj
zh:_utime
jMh:__ZL56PlayableGraph_t3515989261_CustomAttributesCacheGeneratorP21CustomAttributesCache
Zti:_BalancingGroup_Compile_m2575117193
GB:__Z28SetExposedSkeletonTransformsRKN7mecanim9animation14AvatarConstantERKN11UnityEngine9Animation30AnimatorGenericBindingConstantERKNS_8skeleton13SkeletonPoseTIN4math4trsXEEERKNSA_INSB_7affineXEEERNS5_21AvatarBindingConstantEy
z$i:__ZNSt3__26vectorIN6il2cpp2vm17TypeNameParseInfoENS_9allocatorIS3_EEE8allocateEj
Aqi:_Mark_get_Index_m3048692661_AdjustorThunk
omi:_TlsServerSettings_get_CertificateRequest_m842655670
qn:FUNCTION_TABLE_viiiiif
Vte:_DefaultComparer_Compare_m3931992727_gshared
vn:FUNCTION_TABLE_viiiiii
Rse:_InternalEnumerator_1_System_Collections_IEnumerator_get_Current_m1847780851_AdjustorThunk
yyi:_GUILayoutUtility_get_spaceStyle_m3392862907
xPd:_Int32_System_IConvertible_ToType_m3009233912_AdjustorThunk
Evf:_DateTimeOffset__ctor_m74032857
gD:__ZN7mecanim9animation22DestroyAvatarWorkspaceEPNS0_15AvatarWorkspaceERNS_6memory9AllocatorE
ldg:_Type_type_is_assignable_from_m76737532
SUe:_MaskableGraphic_ParentMaskStateChanged_m1092090553
vUb:__ZN15LightmapSTCacheC2ER13BatchRendererR15RenderLoopStats
h1a:__ZN14PlayableOutput17SetSourcePlayableEP8Playable
tff:_X509ExtensionCollection_get_IsSynchronized_m2607599544
wC:__ZN7mecanim9animation29MotionOutputGetDeltaTransformEPKNS0_12MotionOutputE
PBh:__ZL64MissingFieldException_t1989070983_CustomAttributesCacheGeneratorP21CustomAttributesCache
mdi:_ReadOnlyCollection_1_System_Collections_Generic_ICollectionU3CTU3E_Add_m2369252587_gshared
Smi:_ValidationResult_get_ErrorCode_m1533688152
Mjc:__Z43Transform_CUSTOM_INTERNAL_get_localRotationP12Il2CppObjectP11Quaternionf
yEf:_CultureInfo_get_Parent_m672689885
Btj:__ZN6il2cpp6icalls8mscorlib6System10Reflection4Emit13ModuleBuilder13RegisterTokenEP29Il2CppReflectionModuleBuilderP12Il2CppObjecti
gKg:__Z50RuntimeInvoker_Int64_t3736567304_SByte_t1669577662PFvvEPK10MethodInfoPvPS4_
wHj:_glGetShaderInfoLog__wrapper
DNe:_ObjectReader_ReadObjectGraph_m340866276
ize:_Transform_1_EndInvoke_m2716226219_gshared
ci:_emscripten_glGetTexParameteriv
ZSc:__ZN11UnityEngine7Connect15DeviceInfoEvent7GFXInfoD2Ev
TIj:_glGenTextures__wrapper
t9i:__ZN15dense_hashtableINSt3__24pairIK10KeyWrapperINS1_IP11Il2CppClassjEEES4_EES6_N6il2cpp8metadata14ArrayClassHashEN14dense_hash_mapIS6_S4_SB_NS6_14EqualsComparerINSA_17ArrayClassCompareEEENS0_9allocatorIS8_EEE9SelectKeyESF_SH_EC2EjRKSB_RKSF_RKSJ_
N7f:_UnicodeEncoding_GetHashCode_m354003420
Wia:__ZN9ShaderLab20SerializedSubProgram14ConstantBufferaSERKS1_
B2b:__Z13RegisterClassI4MeshEvv
FNh:__ZL74SharedBetweenAnimatorsAttribute_t2857104338_CustomAttributesCacheGeneratorP21CustomAttributesCache
sCf:_Enum_Equals_m3617313991
IPg:__Z98RuntimeInvoker_Boolean_t97287965_PlayableOutputHandle_t4208053793_PlayableOutputHandle_t4208053793PFvvEPK10MethodInfoPvPS4_
iVg:__Z74RuntimeInvoker_Boolean_t97287965_LineTypeU26_t2430394419_Int32_t2950945753PFvvEPK10MethodInfoPvPS4_
G_a:__ZN8PlayableD0Ev
wg:emscriptenWebGLGetBufferBinding
WH:__ZN12AudioManager8TransferI19StreamedBinaryWriteILb0EEEEvRT_
_Ze:_Slider_UpdateCachedReferences_m3259451627
Dge:_SslStreamBase_get_KeyExchangeStrength_m217695965
XJg:__Z50RuntimeInvoker_Double_t594665363_Double_t594665363PFvvEPK10MethodInfoPvPS4_
EIg:__Z60RuntimeInvoker_Void_t1185182177_StreamingContext_t3711869237PFvvEPK10MethodInfoPvPS4_
Izb:__ZN18StreamedBinaryReadILb1EE21TransferSTLStyleArrayI13dynamic_arrayI11ColorRGBA32Lj4EEEEvRT_17TransferMetaFlags
laj:__ZN15dense_hashtableINSt3__24pairIK10KeyWrapperINS1_IP11Il2CppClassjEEES4_EES6_N6il2cpp8metadata14ArrayClassHashEN14dense_hash_mapIS6_S4_SB_NS6_14EqualsComparerINSA_17ArrayClassCompareEEENS0_9allocatorIS8_EEE9SelectKeyESF_SH_E6insertERKS8_
$8c:_U3CShowU3Ec__AnonStorey1_U3CU3Em__0_m2340880019
lZe:_Selectable_OnSetProperty_m1693943217
R2f:_List_1_GetIndex_m2300811709_gshared
S5b:__ZNK32RendererMaterialAnimationBinding12GetPPtrValueERKN11UnityEngine9Animation10BoundCurveE
NAb:__Z18Transfer_BlittableI18StreamedBinaryReadILb0EELb0E8Vector2fEvRK29SerializationCommandArgumentsR31RuntimeSerializationCommandInfo
ZPc:__ZN2UI11CanvasGroup12CleanupClassEv
Mmi:_TlsStream_Flush_m3793197834
N3f:_List_1_GetIndex_m2832472557_gshared
olb:__ZN22LocalFileSystemHandler9MakeLocalER13FileEntryDatab
Zoj:__ZN6il2cpp2vm8Profiler10AllocationEP12Il2CppObjectP11Il2CppClass
$Uh:__ZL61Graphic_t1660335611_CustomAttributesCacheGenerator_m_MaterialP21CustomAttributesCache
fLc:__ZNSt3__23mapIN20TextRenderingPrivate7FontRefENS1_6OSFontENS_4lessIS2_EENS_9allocatorINS_4pairIKS2_S3_EEEEEixERS8_
jga:__Z13FormatOrderedPKcz
XYi:__ZN6il2cpp2vm8basepathEPKc
Ndf:_X509Chain_GetAuthorityKeyIdentifier_m614536199
FIc:__ZN14SafeBinaryRead21TransferSTLStyleArrayI10vector_mapINSt3__24pairIttEEfN20TextRenderingPrivate8FontImpl14KerningCompareENS2_9allocatorINS3_IS4_fEEEEEEEvRT_17TransferMetaFlags
Wbe:_TlsServerFinished__ctor_m1445633918
UNd:_NumberFormatter_FastIntegerToString_m390846811
zKh:__ZL68RuntimePlatform_t4159857903_CustomAttributesCacheGenerator_WP8PlayerP21CustomAttributesCache
F5e:_PKCS1_RSASP1_m3912327535
gUb:__ZN25DeferredRenderLoopScratchD0Ev
Sw:__ZN27AnimationLayerMixerPlayable14SetInputWeightEif
M0c:_PhysicsRaycaster_Raycast_m776323695
Jyg:_UnityException__ctor_m1456865679
qu:__ZN7mecanim9animation17EvaluateHumanPoseERKNS0_18ClipMuscleConstantERKNS0_15ClipMuscleInputEPKfRKNS0_12MotionOutputERNS_5human9HumanPoseE
CSh:__ZL92PointerEventData_t3807901092_CustomAttributesCacheGenerator_U3CscrollDeltaU3Ek__BackingFieldP21CustomAttributesCache
eia:__ZN15dense_hashtableINSt3__24pairIKiN4core17string_with_labelILi1EEEEEi18SInt32HashFunctionN14dense_hash_mapIiS5_S7_NS0_8equal_toIiEE13stl_allocatorIS6_L18MemLabelIdentifier1ELi16EEE9SelectKeyESA_SD_E9copy_fromERKSG_j
Cfd:_CustomAttributeNamedArgument_GetHashCode_m2317130892
Deb:__ZN15ResourceManagerD0Ev
JWf:_EqualityComparer_1_get_Default_m990790318_gshared
cMe:_WellKnownClientTypeEntry_ToString_m1119458503
s4:__ZN22CreateGpuProgramOutputD2Ev
Y7g:_List_1_get_Item_m1378751541_gshared
ewb:__Z18Transfer_BlittableI19StreamedBinaryWriteILb0EELb1EsEvRK29SerializationCommandArgumentsR31RuntimeSerializationCommandInfo
kwh:__ZL52HMACSHA512_t923916539_CustomAttributesCacheGeneratorP21CustomAttributesCache
uBe:_ValueCollection_CopyTo_m2188334703_gshared
Djf:_SHA1CryptoServiceProvider_Finalize_m1793183797
aBh:__ZL78Convert_t2465617642_CustomAttributesCacheGenerator_Convert_ToUInt64_m409548990P21CustomAttributesCache
o_f:_HashSet_1_System_Collections_Generic_ICollectionU3CTU3E_CopyTo_m408073502_gshared
D8d:_EncryptedPrivateKeyInfo_get_EncryptedData_m491452551
zkb:__ZN12HandlerChain4OpenER13FileEntryData14FilePermission16FileAutoBehavior
JYg:__Z72RuntimeInvoker_Void_t1185182177_Int32_t2950945753_RaycastHit_t1056001966PFvvEPK10MethodInfoPvPS4_
CAh:__ZL79Convert_t2465617642_CustomAttributesCacheGenerator_Convert_ToUInt16_m1147931813P21CustomAttributesCache
f2i:__ZN15dense_hashtableINSt3__24pairIK10KeyWrapperINS1_IPK10MethodInfoP11Il2CppClassEEEjEES9_17ReflectionMapHashIS8_EN14dense_hash_mapIS9_jSD_NS9_14EqualsComparerINS0_8equal_toIS8_EEEENS0_9allocatorISB_EEE9SelectKeyESI_SK_E6insertERKSB_
O8f:_UTF8Encoding_GetCharCount_m2272165989
jxd:_Array_SetValue_m394135409
Y0:__ZN14FileCacherReadD2Ev
Bhb:__ZN13RendererScene23UpdatePreviousFrameDataEii
Xqf:_String_Remove_m562998446
Mfc:__Z50Register_UnityEngine_CullingGroup_FinalizerFailurev
pDi:_ShoppingEvent_StartTalking_m1153593575
J5h:_Mesh_GetAllocArrayFromChannel_TisVector2_t2156229523_m1057679375_gshared
qmf:_SecurityPermission_IsSubsetOf_m545000671
jib:__ZN27UnloadUnusedAssetsOperationD0Ev
Jx:__ZN26AnimatorControllerPlayable6MemoryD2Ev
CPb:__ZN28LightProbeProxyVolumeContextC2E10MemLabelId
sBj:__ZNKSt3__221__basic_string_commonILb1EE20__throw_out_of_rangeEv
plg:_Cursor_get_lockState_m2828192107
ZEg:__Z78RuntimeInvoker_Boolean_t97287965_RuntimeObject_RuntimeObject_Int32_t2950945753PFvvEPK10MethodInfoPvPS4_
i_i:_UpdatedEventHandler_Invoke_m1320302085
Efj:__ZNK15dense_hashtableINSt3__24pairIK10KeyWrapperIP14Il2CppIUnknownEjEES5_N6il2cpp5utils11PointerHashIS3_EEN14dense_hash_mapIS5_jSB_NS5_14EqualsComparerINS0_8equal_toIS4_EEEENS0_9allocatorIS7_EEE9SelectKeyESG_SI_E12test_deletedERK24dense_hashtable_iteratorIS7_S5_SB_SK_SG_SI_E
JF:__ZN9AudioClip23VirtualRedirectTransferER18StreamedBinaryReadILb0EE
u8g:_List_1_AddEnumerable_m2724989594_gshared
ima:__ZNSt3__26vectorIPN9ShaderLab9SubShaderENS_9allocatorIS3_EEE21__push_back_slow_pathIKS3_EEvRT_
w9g:_List_1_Contains_m2043463915_gshared
TRg:__Z82RuntimeInvoker_Vector2_t2156229523_Vector2_t2156229523_RuntimeObject_RuntimeObjectPFvvEPK10MethodInfoPvPS4_
mHa:__ZN18GlslGpuProgramGLESC2ERK13dynamic_arrayIhLj1EER22CreateGpuProgramOutput
olc:__Z70Register_UnityEngine_Playables_PlayableHandle_GetPlayableType_Injectedv
iIb:__ZNK4PPtrI23ShaderVariantCollectionEcvPS0_Ev
w7d:_ARC4Managed_TransformBlock_m1687647868
Ej:_glCopyTexSubImage2D
_5b:__ZNK24RendererAnimationBinding13GetFloatValueERKN11UnityEngine9Animation10BoundCurveE
GT:__ZNK15DownloadHandler14HasPendingDataEv
Oyg:_UnitySynchronizationContext_ExecuteTasks_m1310741010
jif:_RIPEMD160Managed_CompressFinal_m497690796
EZb:__ZN18ScreenManagerWebGL13SetShowCursorEb
Bke:_InternalEnumerator_1_MoveNext_m1773160976_gshared
BJb:__ZN13DrawImmediateC2ER9GfxDevice
Tyj:_frexp
$5d:_Kernel_MultiplyMod2p32pmod_m451690680
xob:__Z18Transfer_BlittableI14SafeBinaryReadLb0E5RectTIfEEvRK29SerializationCommandArgumentsR31RuntimeSerializationCommandInfo
UQd:_NumberFormatter_NumberToString_m2562899600
Tkf:_SymmetricAlgorithm_get_FeedbackSize_m3666584308
nKi:__ZL25UnresolvedVirtualCall_234P12Il2CppObject19Vector2_t2156229523PK10MethodInfo
KBc:_otv_u_C_x_Ox
Swa:__ZN18AsyncUploadManager19AsyncResourceUploadER9GfxDeviceii9TextureID
cua:__ZN14GfxContextGLES14GetFramebufferEv
HJj:_emscripten_glGenVertexArrays__wrapper
whg:_Version_Clone_m1749041863
xye:_ShimEnumerator_get_Key_m4155849607_gshared
Nya:__ZN6prcoreL21CreateRemapAnyBlitterE13TextureFormatS0_
$8d:_RSAManaged_ExportParameters_m1754454264
xbc:__ZN17AnimationCurveTplIfE16StripInvalidKeysEv
gAd:_Boolean_Equals_m535526264_AdjustorThunk
N_g:__Z71RuntimeInvoker_KeyValuePair_2_t71524366_Int32_t2950945753_RuntimeObjectPFvvEPK10MethodInfoPvPS4_
QOc:__ZNK2UI6Canvas17GetSortingLayerIDEv
Uzd:_Convert_ToUInt16_m3116648921
qlh:__ZL40UIntPtr_t_CustomAttributesCacheGeneratorP21CustomAttributesCache
w8i:_il2cpp_method_has_attribute
t2b:__Z13RegisterClassI17GlobalGameManagerEvv
k6:__ZN8Renderer24SetupNewRendererForSceneEv
gdg:_Type_internal_from_name_m1721940673
C2h:_Array_swap_TisCustomAttributeTypedArgument_t2723150157_TisCustomAttributeTypedArgument_t2723150157_m365781156_gshared
MIe:_RemotingServices_GetMethodBaseFromName_m3194612939
Jtc:__Z35Transfer_Blittable_FixedBufferFieldI8JSONReadtEvRK29SerializationCommandArgumentsR31RuntimeSerializationCommandInfo
PTa:__ZN4PPtrI7TextureE8TransferI14SafeBinaryReadEEvRT_
I8b:__ZN14PlayableOutput6HandleEv
B6a:__ZNK6Sprite22GetTypeVirtualInternalEv
rZc:__ZN13RuntimeStaticINSt3__26vectorI23UnityVRDeviceDefinition13stl_allocatorIS2_L18MemLabelIdentifier90ELi16EEEELb0EE13StaticDestroyEPv
pn:FUNCTION_TABLE_iiiiiiiiiiiiii
uXc:__ZN19UnityConnectService18OnPlayerQuitStaticEPS_
BCc:_UNITY_tt_get_cmap_info
dge:_SslClientStream_RaiseServerCertificateValidation_m3477149273
jvb:__Z29Transfer_Blittable_ArrayFieldI24GenerateTypeTreeTransfer5RectTIiEEvRT_R9ArrayInfoRK23StaticTransferFieldInfo
JXa:__ZN16ReflectionProbes8ScheduleEN18ReflectionProbeJob7JobTypeEP15ReflectionProbei
_be:_ClientSessionInfo_KeepAlive_m1020179566
_Oc:__ZN13dynamic_arrayIN2UI13UIInstructionELj4EE12emplace_backEv
N9g:_List_1_ToArray_m4056539300_gshared
jph:__ZL51Calendar_t1661121569_CustomAttributesCacheGeneratorP21CustomAttributesCache
hMa:__Z18IsDirectoryCreatedRKN4core12basic_stringIcNS_20StringStorageDefaultIcEEEE
dmf:_String_FormatHelper_m3913915042
PNc:__ZN2UI13CanvasManagerD2Ev
hfd:_ConstructorInfo__cctor_m1016079270
tRi:__ZN15dense_hashtableINSt3__24pairIK10KeyWrapperIPKcEP11Il2CppClassEES5_N6il2cpp5utils11StringUtils12StringHasherIS4_EEN14dense_hash_mapIS5_S8_SE_NS5_14EqualsComparerINSB_13VmStringUtils21CaseSensitiveComparerEEENS0_9allocatorIS9_EEE9SelectKeyESJ_SL_E15set_deleted_keyERKS9_
TSg:__Z38RuntimeInvoker_ContentType_t1787303396PFvvEPK10MethodInfoPvPS4_
ivd:_AttrListImpl_get_Names_m977594476
ovh:__ZL53IFormatter_t3549834567_CustomAttributesCacheGeneratorP21CustomAttributesCache
IKc:_UNITY_FT_GlyphLoader_Done
aPh:__ZL89GUIStyle_t3956901511_CustomAttributesCacheGenerator_GUIStyle_get_stretchWidth_m3556443132P21CustomAttributesCache
Zpd:_Pointer_Box_m389276611
nAf:_StackTrace_get_FrameCount_m344690939
aYd:_UnexceptionalStreamWriter_Write_m363195622
VVb:__ZNK21IntermediateRenderers16GetBoundingBoxesEv
dLc:__ZN20TextRenderingPrivate25ReadFontFileAndAddToCacheERKN4core12basic_stringIcNS0_20StringStorageDefaultIcEEEE
CDc:_tt_cmap14_char_var_index
LBb:__Z35Transfer_Blittable_FixedBufferFieldI18StreamedBinaryReadILb0EEdEvRK29SerializationCommandArgumentsR31RuntimeSerializationCommandInfo
JQe:_Selectable_OnPointerDown_m1086067264
NHc:_psh_globals_new
t8c:_Dropdown_SetupTemplate_m628218778
f9f:_Thread_GetCompressedStack_m2923422412
YEd:_SynchronizedArrayListWrapper_CopyTo_m4207791406
acf:_X509BasicConstraintsExtension_ToString_m1809935297
Boa:__ZN9GfxDevice20SetMaxBufferedFramesEi
Eki:_TweenRunner_1_StartTween_m1055628540_gshared
B8h:_ReadOnlyCollection_1_System_Collections_IList_Remove_m4129318771_gshared
M3h:_GameObject_GetComponents_TisRuntimeObject_m1246177135_gshared
IK:__ZN24AudioScriptBufferManagerD2Ev
KDj:dynCall_vdd
LYd:_MethodAccessException__ctor_m3542088436
J$b:__Z23ConvertIntegerToTypePtrIsEbPvR14SafeBinaryRead
JDd:_ArrayListWrapper_get_Capacity_m51087796
oSe:_LayoutElement_get_minHeight_m4160507569
_Vf:_EqualityComparer_1_System_Collections_IEqualityComparer_GetHashCode_m2230215241_gshared
nYh:__ZL60ContentSizeFitter_t3850442145_CustomAttributesCacheGeneratorP21CustomAttributesCache
eHd:_Hashtable_Contains_m2145146412
fFh:__ZL64UnmarshalledAttribute_t1517743549_CustomAttributesCacheGeneratorP21CustomAttributesCache
Dac:__ZN4Mesh24UpdateSubMeshVertexRangeEi
yng:_MaterialEffectPlayable_Equals_m3750885802
p0i:__ZNK15dense_hashtableINSt3__24pairIK10KeyWrapperINS1_IPK14Il2CppAssemblyP11Il2CppClassEEEjEES9_17ReflectionMapHashIS8_EN14dense_hash_mapIS9_jSD_NS9_14EqualsComparerINS0_8equal_toIS8_EEEENS0_9allocatorISB_EEE9SelectKeyESI_SK_E12test_deletedEj
fwj:__ZN6il2cpp2os9FastMutex4LockEv
JNd:_Int32_FindCurrency_m3541026887
Rhf:_Interval_CompareTo_m3282557545
FKj:_pthread_cond_wait__wrapper
tTb:__ZNK14RenderSettings19GetFlatAmbientColorEv
nya:__ZN6prcoreL10inner_flipILj4EEEvPhS1_j
ldb:__ZN18StreamedBinaryReadILb0EE21TransferSTLStyleArrayI10vector_mapIPKN5Unity4TypeE7Hash128NSt3__24lessIS6_EENS8_9allocatorINS8_4pairIS6_S7_EEEEEEEvRT_17TransferMetaFlags
Py:__ZNK27StateMachineBehaviourPlayer15IsSenderEnabledEv
JXh:__ZL58Text_t1901882714_CustomAttributesCacheGenerator_m_FontDataP21CustomAttributesCache
ejd:_GenericTypeParameterBuilder_IsPrimitiveImpl_m1952010459
g8h:_ReadOnlyCollection_1_CopyTo_m3474153465_gshared
a5d:_RijndaelManagedTransform_TransformBlock_m1610137419
ikc:__Z40Register_UnityEngine_Transform_SetParentv
$_h:__ZL72MoodSlider_t2274410658_CustomAttributesCacheGenerator_faceImageComponentP21CustomAttributesCache
mxh:__ZL94WindowsIdentity_t2948242406_CustomAttributesCacheGenerator_WindowsIdentity_Dispose_m3466258450P21CustomAttributesCache
q8a:__ZN14Texture2DArray17UploadToGfxDeviceEv
DJ:__Z14FMODMemoryFreePvjPKc
NJh:__ZL100RectTransform_t3704657025_CustomAttributesCacheGenerator_RectTransform_INTERNAL_get_rect_m3130887130P21CustomAttributesCache
t1f:_Enumerator__ctor_m2029608698_gshared
Hmg:_NetFxCoreExtensions_GetMethodInfo_m444570327
yRb:__Z14SetSHConstantsR13BatchRendererR17ShaderPassContextRK20SphericalHarmonicsL2b
HBd:_Char_System_IConvertible_ToDecimal_m3534906463
Nyc:_cf2_glyphpath_moveTo
v7g:_List_1_AddCollection_m1469681717_gshared
$nh:__ZL86MSCompatUnicodeTable_t1453885583_CustomAttributesCacheGenerator_U3CU3Ef__switchU24map4P21CustomAttributesCache
Wwg:_StackTraceUtility_SetProjectFolder_m830524047
qv:__ZN7mecanim23TransformValueArrayLoopEiiiRKN4math4trsXES3_RNS_10ValueArrayEf
nce:_ClientSessionInfo_Finalize_m2165787049
Ymc:__ZN5IMGUI14GUIWindowStateD2Ev
kbe:_ClientContext_Clear_m1774063253
Pac:__ZN4Mesh17SetIndicesComplexEPKvjj16GfxPrimitiveTypeij
Vuf:_DateTime_AddSeconds_m332574389_AdjustorThunk
Cyg:_RequestAtlasCallback_Invoke_m378128467
PAd:_Byte_System_IConvertible_ToSByte_m1869482168
YHg:__Z99RuntimeInvoker_RuntimeObject_RuntimeObject_RuntimeObject_StreamingContext_t3711869237_RuntimeObjectPFvvEPK10MethodInfoPvPS4_
IB:__ZN7mecanim5human10RetargetToEPKNS0_5HumanEPKNS0_9HumanPoseES6_RKN4math4trsXEPS4_PNS_8skeleton13SkeletonPoseTIS8_EESF_
iv:__ZN7mecanim9animation8SeekClipERKNS0_12StreamedClipERNS0_18StreamedClipMemoryEf
jHi:__ZL24UnresolvedVirtualCall_68P12Il2CppObjectS0_iS0_S0_S0_S0_S0_S0_PK10MethodInfo
Rng:_GameObject_Internal_AddComponentWithType_m3797731663
km:_emscripten_glIsTexture
Rk:_emscripten_glHint
oHi:__ZL24UnresolvedVirtualCall_73P12Il2CppObjectPK10MethodInfo
aAi:_Check_SourceAndPredicate_m2332465641
lRg:__Z67RuntimeInvoker_Boolean_t97287965_TextGenerationSettings_t1351628751PFvvEPK10MethodInfoPvPS4_
wGc:_ft_var_readpackeddeltas
unf:_String_op_Inequality_m215368492
xTf:_Dictionary_2_Clear_m1938428402_gshared
nyb:__Z35Transfer_Blittable_FixedBufferFieldI18StreamedBinaryReadILb1EEtEvRK29SerializationCommandArgumentsR31RuntimeSerializationCommandInfo
ofg:_UInt32_System_IConvertible_ToInt64_m2261037378
nm:_SDL_UpperBlit
FXa:__Z35GetTextureDecodeValuesWithIntensity16TextureUsageMode17TextureColorSpace10ColorSpacef
pIf:_Array_InternalArray__ICollection_Remove_TisChar_t3634460470_m4143749387_gshared
PJb:__ZN15dense_hashtableINSt3__24pairIK9TextureIDiEES2_14GfxGenericHashIS2_EN14GfxDoubleCacheIS2_iS6_NS0_8equal_toIS2_EEN31GfxDoubleCacheConcurrencyPolicy11LocklessGetE42GfxDoubleCacheDefaultEmptyDeletedGeneratorIS2_EE9SelectKeyES9_13stl_allocatorIS4_L18MemLabelIdentifier24ELi16EEE14squash_deletedEv
z6i:__ZN15dense_hashtableINSt3__24pairIK10KeyWrapperINS1_IPK9EventInfoP11Il2CppClassEEEjEES9_17ReflectionMapHashIS8_EN14dense_hash_mapIS9_jSD_NS9_14EqualsComparerINS0_8equal_toIS8_EEEENS0_9allocatorISB_EEE9SelectKeyESI_SK_E15set_deleted_keyERKSB_
G3i:__ZN15dense_hashtableINSt3__24pairIK10KeyWrapperINS1_IPK12PropertyInfoP11Il2CppClassEEEjEES9_17ReflectionMapHashIS8_EN14dense_hash_mapIS9_jSD_NS9_14EqualsComparerINS0_8equal_toIS8_EEEENS0_9allocatorISB_EEE9SelectKeyESI_SK_ED2Ev
K5f:_Encoding_GetBytes_m3823106599
nuf:_GregorianCalendar__ctor_m979779718
Cfe:_SslClientStream__ctor_m2402546929
iEb:__ZN14SafeBinaryRead20OverrideRootTypeNameEPKc
o8e:_DictionaryNodeEnumerator_get_Entry_m2309234501
yOi:__ZNK10KeyWrapperIPK22Il2CppGenericParameterE14EqualsComparerINSt3__28equal_toIS2_EEEclERKS3_SA_
a1:__ZN14FileCacherRead16UnlockCacheBlockEj
G0f:_Enumerator_Dispose_m951715887_AdjustorThunk
Mle:_InternalEnumerator_1_System_Collections_IEnumerator_Reset_m521819017_AdjustorThunk
jTd:_IsolatedStorageException__ctor_m1022659452
o9:__ZN10InstancingL21OnGraphicsCapsChangedEv
Trb:__Z18Transfer_BlittableI17RemapPPtrTransferLb1E8Vector3fEvRK29SerializationCommandArgumentsR31RuntimeSerializationCommandInfo
Hsh:__ZL61ClassInterfaceType_t4029497327_CustomAttributesCacheGeneratorP21CustomAttributesCache
fbg:_WaitHandle_get_Handle_m3260446580
B1f:_Enumerator_VerifyState_m1745883925_AdjustorThunk
Jc:_emscripten_glUniform1f
bId:_SortedList__ctor_m1261191695
Gdi:_ReadOnlyCollection_1_System_Collections_IList_get_IsReadOnly_m165706550_gshared
gDg:__Z75RuntimeInvoker_Int32_t2950945753_DecimalU26_t3714369516_Int64U26_t200113976PFvvEPK10MethodInfoPvPS4_
lLc:__Z20ParseImageParametersR11UTF16StringRiRN20TextRenderingPrivate16TextFormatChangeE
cYh:__ZL55CanvasScaler_t2767979955_CustomAttributesCacheGeneratorP21CustomAttributesCache
Iih:_Collection_1_RemoveItem_m2942561924_gshared
Oc:_emscripten_glUniform1i
Htb:__Z18Transfer_BlittableI24GenerateTypeTreeTransferLb1EN4math12int3_storageEEvRK29SerializationCommandArgumentsR31RuntimeSerializationCommandInfo
QB:__ZN12_GLOBAL__N_119PreProcessAnimationER35AnimationPlayableEvaluationConstantR17AnimationPlayable
BWe:__Z14bankers_roundff
_ja:__ZN9ShaderLab16SerializedTagMapaSERKS0_
aS:__ZN11UnityEngine15CloudWebService16SessionContainer20RestoreSessionHeaderERKN4core12basic_stringIcNS2_20StringStorageDefaultIcEEEES8_RNS0_13SessionHeaderE
OYc:__ZN22UnityWebRequestManager13BackendRetainEv
qcc:__ZN8Material28ApplyMaterialPropertyDrawersEv
rvj:__ZN6il2cpp2os12Cryptography23GetCryptographyProviderEv
dPi:__ZN24dense_hashtable_iteratorINSt3__24pairIK10KeyWrapperIPK22Il2CppGenericParameterEP11Il2CppClassEES6_N6il2cpp5utils11PointerHashIS4_EEN14dense_hash_mapIS6_S9_SE_NS6_14EqualsComparerINS0_8equal_toIS5_EEEENS0_9allocatorISA_EEE9SelectKeyESJ_SL_E30advance_past_empty_and_deletedEv
WC:__ZN11UnityEngine9Animation27CreateAvatarBindingConstantER9TransformPKN7mecanim9animation14AvatarConstantERNS3_6memory9AllocatorE
pPc:__ZN2UI14CanvasRenderer13SyncTransformENS0_8SyncFlagEb
yUe:_MaskableGraphic_get_onCullStateChanged_m3331479633
mHg:__Z151RuntimeInvoker_RuntimeObject_Int32_t2950945753_RuntimeObject_ObjectU5BU5DU26_t712384779_RuntimeObject_RuntimeObject_RuntimeObject_ObjectU26_t2146539884PFvvEPK10MethodInfoPvPS4_
kec:__ZN9BlobWriteC2ER13dynamic_arrayIhLj16EE24TransferInstructionFlags19BuildTargetPlatform
d5c:_CanvasUpdateRegistry__ctor_m2005397069
CHh:__ZL77Input_t1431474628_CustomAttributesCacheGenerator_Input_GetAxisRaw_m2316819917P21CustomAttributesCache
o$:__ZN14MessageHandler3GetEv
vnd:_MonoMethodInfo_GetCallingConvention_m3156036493
cTe:_LayoutGroup_SetLayoutInputForAxis_m2458344630
ad:_emscripten_glAttachShader
Aoa:__ZN9GfxDevice13SetActiveTierE12GraphicsTier
Vcd:_Image__cctor_m1927508576
Q9f:_SendOrPostCallback_EndInvoke_m2485163446
qka:__ZNSt3__26vectorIN4core12basic_stringIcNS1_20StringStorageDefaultIcEEEENS_9allocatorIS5_EEE6assignIPS5_EENS_9enable_ifIXaasr21__is_forward_iteratorIT_EE5valuesr16is_constructibleIS5_NS_15iterator_traitsISC_E9referenceEEE5valueEvE4typeESC_SC_
ovj:__ZN6il2cpp6icalls8mscorlib6System21CurrentSystemTimeZone15GetTimeZoneDataEiPP11Il2CppArrayS6_
PAi:_U3CCharFadeOutU3Ec__Iterator1__ctor_m1709205501
wwe:_Enumerator__ctor_m1195706188_gshared
Gkh:__ZL76String_t_CustomAttributesCacheGenerator_String_Concat_m1809518182____values0P21CustomAttributesCache
eob:__Z18Transfer_BlittableI14SafeBinaryReadLb0E11QuaternionfEvRK29SerializationCommandArgumentsR31RuntimeSerializationCommandInfo
tBb:__Z18Transfer_BlittableI18StreamedBinaryReadILb0EELb1E12PropertyNameEvRK29SerializationCommandArgumentsR31RuntimeSerializationCommandInfo
FW:_tlsf_walk_heap
bHg:__Z49RuntimeInvoker_Void_t1185182177_OpCode_t123070264PFvvEPK10MethodInfoPvPS4_
Aaj:__ZNK15dense_hashtableINSt3__24pairIK10KeyWrapperIP11Il2CppClassES4_EES5_N6il2cpp8metadata16SZArrayClassHashEN14dense_hash_mapIS5_S4_SA_NS5_14EqualsComparerINS9_19SZArrayClassCompareEEENS0_9allocatorIS7_EEE9SelectKeyESE_SG_E10test_emptyERK24dense_hashtable_iteratorIS7_S5_SA_SI_SE_SG_E
fQg:__Z69RuntimeInvoker_Void_t1185182177_Int32_t2950945753_HitInfo_t3229609740PFvvEPK10MethodInfoPvPS4_
vNh:__ZL59AnimatorClipInfo_t3156717155_CustomAttributesCacheGeneratorP21CustomAttributesCache
iMd:_Convert_ToUInt32_m3592050311
jb:invoke_vif
B3h:_Component_GetComponents_TisRuntimeObject_m2416546752_gshared
kb:invoke_vid
Fpe:_InternalEnumerator_1__ctor_m2202456613_AdjustorThunk
KBj:__ZNSt3__212basic_stringIcNS_11char_traitsIcEENS_9allocatorIcEEE6insertEjPKc
lb:invoke_vii
WMb:__ZNK12ImageFilters8DoRenderER17ShaderPassContextP13RenderTextureS3_RKNSt3__26vectorI11ImageFilterNS4_9allocatorIS6_EEEE
VKa:__ZN12TLSAllocatorI14StackAllocatorE16ThreadInitializeEP13BaseAllocator
BIg:__Z82RuntimeInvoker_Boolean_t97287965_SByte_t1669577662_RuntimeObject_SByte_t1669577662PFvvEPK10MethodInfoPvPS4_
$oa:__ZN9GfxDevice32UpdateStereoViewProjectionMatrixE21MonoOrStereoscopicEye
UQc:__Z41CanvasRenderer_CUSTOM_DisableRectClippingP12Il2CppObject
iRf:_Dictionary_2__ctor_m1324730059_gshared
WZd:_MonoType_GetConstructorImpl_m441167626
B7c:_DefaultControls_CreateRawImage_m4219873755
fdh:_Collection_1_IsFixedSize_m3709118201_gshared
dPa:__ZN25SingleBlockMemoryFileDataD0Ev
aLa:__ZNSt3__26vectorI14ConstantStringNS_9allocatorIS1_EEE6assignINS_11__wrap_iterIPS1_EEEENS_9enable_ifIXaasr21__is_forward_iteratorIT_EE5valuesr16is_constructibleIS1_NS_15iterator_traitsISA_E9referenceEEE5valueEvE4typeESA_SA_
Kdi:_ReadOnlyCollection_1_CopyTo_m586367390_gshared
XR:__ZN11UnityEngine15CloudWebService16SessionContainer21ConvertFromFolderTimeERKN4core12basic_stringIcNS2_20StringStorageDefaultIcEEEEPjPt
t1d:_CodeAccessPermission_Equals_m1555575992
Rpb:__ZNSt3__26vectorI8GUIStyle13stl_allocatorIS1_L18MemLabelIdentifier1ELi16EEE7reserveEj
J8h:_ReadOnlyCollection_1_Contains_m3869904379_gshared
qcj:__ZN6il2cpp6icalls8mscorlib6System9Threading6Thread27GetSerializedCurrentCultureEP12Il2CppThread
Kce:_Context_set_ReadSequenceNumber_m2154909392
X4d:_RijndaelTransform_SubByte_m3037693507
$0b:__Z31CalculateHierarchyTransformType23TransformAccessReadOnly
P2b:__Z13RegisterClassI11TimeManagerEvv
uJ:__ZN4FMOD8ChannelI11setPositionEjj
uog:_Input_INTERNAL_CALL_GetTouch_m3481893561
krj:_GC_set_fl_marks
Ifb:__ZNSt3__26vectorIN30RuntimeInitializeOnLoadManager15ClassMethodInfoE13stl_allocatorIS2_L18MemLabelIdentifier13ELi16EEE7reserveEj
cpa:__ZN9GfxDevice17SetStereoViewportE15StereoscopicEyeRK5RectTIiE
Gfa:__ZN17BaseObjectManager13StaticDestroyEPv
jMi:_CanvasRenderer_INTERNAL_CALL_GetColor_m597074473
Bue:_Comparer_1__cctor_m3891417387_gshared
z8f:_UTF7Decoder_GetChars_m3413809261
lIh:__ZL81Shader_t4151988712_CustomAttributesCacheGenerator_Shader_PropertyToID_m1030499873P21CustomAttributesCache
Olh:__ZL70RuntimeArray_CustomAttributesCacheGenerator_Array_get_Rank_m3448755881P21CustomAttributesCache
$hd:_EnumBuilder_GetEvent_m4074915332
yh:_sysconf
ayg:_Vector3_get_forward_m3100859705
dBf:_Double_Equals_m2309369974_AdjustorThunk
mI:__ZN4FMOD6Reverb13setPropertiesEPK22FMOD_REVERB_PROPERTIES
F9i:__ZN15dense_hashtableINSt3__24pairIK10KeyWrapperIP11Il2CppClassES4_EES5_N6il2cpp8metadata16SZArrayClassHashEN14dense_hash_mapIS5_S4_SA_NS5_14EqualsComparerINS9_19SZArrayClassCompareEEENS0_9allocatorIS7_EEE9SelectKeyESE_SG_E5clearEv
HOb:__ZN9DepthPass13PrepareSubsetEjRK10RenderNodeifRK17ShaderReplaceData
cqf:_String_IndexOf_m3406607758
dja:__ZN9ShaderLab20SerializedSubProgram16TextureParameter8TransferI14SafeBinaryReadEEvRT_
M6d:_ASN1__ctor_m3517592395
Wac:__Z35SetMeshComponentFromArrayFromScriptR4Mesh30InternalScriptingShaderChannel34InternalScriptingVertexChannelTypei17ScriptingArrayPtri
ula:__ZN4PPtrI6ShaderE8TransferI19StreamedBinaryWriteILb0EEEEvRT_
RNf:_Array_InternalArray__ICollection_Add_TisCustomAttributeNamedArgument_t287865710_m4157175270_gshared
fq:__ZN4core20StringStorageDefaultIcE6assignEPKcj
tgg:_UInt64_System_IConvertible_ToUInt64_m2135047981_AdjustorThunk
e6d:_BigInteger_ModPow_m3776562770
Lij:__ZN15dense_hashtableINSt3__24pairIK10KeyWrapperIP12Il2CppObjectEN6il2cpp2gc9CachedCCWEEES5_NS7_5utils11PointerHashIS3_EEN14dense_hash_mapIS5_S9_SD_NS5_14EqualsComparerINS0_8equal_toIS4_EEEENS0_9allocatorISA_EEE9SelectKeyESI_SK_E3endEv
gSd:_BinaryReader_ReadInt64_m939370142
Jee:_RecordProtocol_ProcessChangeCipherSpec_m15839975
jDd:_ArrayList_IndexOf_m305368842
n9g:_List_1_Add_m2996644200_gshared
IXb:__ZN6Camera6SetFarEf
wMe:_FormatterConverter_ToBoolean_m1680758923
Dza:__ZN6prcoreL12RemapGenericI17TexFormatABGR888817TexFormatARGB8888EEvPKNS_9InnerInfoE
$Pa:__ZN11GameManager17MainThreadCleanupEv
UId:_Stack_get_Count_m2258661097
D6h:_ReadOnlyCollection_1__ctor_m1345363288_gshared
ASc:__Z50Register_UnityEngine_UISystemProfilerApi_EndSamplev
gCe:_Dictionary_2_System_Collections_ICollection_get_SyncRoot_m2020472285_gshared
yre:_InternalEnumerator_1_System_Collections_IEnumerator_Reset_m1775752715_AdjustorThunk
Hb:invoke_vffff
kFh:__ZL91Application_t1852185770_CustomAttributesCacheGenerator_Application_get_isPlaying_m100394690P21CustomAttributesCache
JEe:_ConfigHandler_OnProcessingInstruction_m4212209262
Z4g:_List_1_Reverse_m3290386475_gshared
wNe:_SerializationCallbacks_GetSerializationCallbacks_m2939476649
MGd:_Hashtable__cctor_m4112166779
fFc:_UNITY_tt_slot_init
QKb:__ZZ23InitPlayerLoopCallbacksvEN41PostLateUpdateUpdateResolutionRegistrator7ForwardEv
eDb:__Z25scripting_array_class_get17ScriptingClassPtrj
Lrc:__ZL22Transfer_ManagedObjectI9JSONWriteLb1EEvRK29SerializationCommandArgumentsR31RuntimeSerializationCommandInfo
rF:__ZNK10SampleClip22GetTypeVirtualInternalEv
lqa:__ZN9GfxDevice20DestroyRenderSurfaceER12ObjectHandleI17RenderSurface_TagP17RenderSurfaceBaseE
RId:_Stack__ctor_m2602729586
CBg:__Z77RuntimeInvoker_Byte_t1134296376_RuntimeObject_Int32_t2950945753_RuntimeObjectPFvvEPK10MethodInfoPvPS4_
Hzh:__ZL81Convert_t2465617642_CustomAttributesCacheGenerator_Convert_ToDateTime_m1031474510P21CustomAttributesCache
rJa:__ZN9GfxDevice22UpdateComputeResourcesEjPK9TextureIDPK16TextureDimensionPKijPKjjPK15ComputeBufferIDS7_PK20ComputeBufferCounterjSC_S2_S5_S9_SF_
R1:__ZN12_GLOBAL__N_15qAsinEff
Qlg:_Display__ctor_m3105658851
DHd:_HashValues_get_IsSynchronized_m3461082747
ble:_InternalEnumerator_1_System_Collections_IEnumerator_get_Current_m2629988057_AdjustorThunk
WKa:__ZN12TLSAllocatorI14StackAllocatorE13ThreadCleanupEv
TF:__Z18GetAudioManagerPtrv
Gle:_InternalEnumerator_1_Dispose_m2043273260_AdjustorThunk
Toj:__ZThn4_N6il2cpp2vm13ComObjectBase16MarshalInterfaceEP13Il2CppIStreamRK10Il2CppGuidPvjS7_j
DKd:_Convert_ToDouble_m996590115
SFb:__Z27FindActiveTransformWithPathPKc
Nai:_ReadOnlyCollection_1_System_Collections_IList_Remove_m4169110229_gshared
Ueg:_UInt16_ToString_m3020002356
ATe:_LayoutRebuilder_LayoutComplete_m68578143
FZi:_RequiredByNativeCodeAttribute__ctor_m119855101
_Ra:__ZN12BaseRendererD0Ev
A$b:__Z29StdTemplateConversionFunctionIbyEbPvR14SafeBinaryRead
S4d:_RijndaelManaged_GenerateKey_m1736287430
kyi:_GUIStyle_get_fixedWidth_m2576616348
oSh:__ZL90PointerEventData_t3807901092_CustomAttributesCacheGenerator_U3ClastPressU3Ek__BackingFieldP21CustomAttributesCache
rId:_SortedList_Find_m3363512987
kY:__ZNK6Camera7GetNearEv
Rid:_GenericTypeParameterBuilder_GetConstructorImpl_m863833310
yCa:__ZN7ApiGLES11UnmapBufferEjN2gl12BufferTargetE
fpj:__ZN6il2cpp5utilsL24Utf32CharToSurrogatePairEjRA2_Ds
j3a:__Z25GetNextAllowedTextureSizeib13TextureFormat
KFb:__ZN20LocalFileSystemWebGL4CopyER13FileEntryDataS1_
KAi:_StaticInfo_get_SliderCount_m1516758474
EU:__ZN19CloudServiceHandler6RetainEv
fxj:__ZN6il2cpp2os9Semaphore4WaitEb
t7h:_ReadOnlyCollection_1_System_Collections_IList_IndexOf_m198887188_gshared
Hnc:__Z36Event_CUSTOM_Internal_SetNativeEventPv
R7f:_UTF32Encoding_GetBytes_m3180303867
z3:__ZN12BaseRenderer20FlattenToRenderQueueER15RenderNodeQueueRK20DeprecatedSourceData
x9g:_List_1_CopyTo_m4034402519_gshared
$8h:_ReadOnlyCollection_1_System_Collections_IList_Clear_m2007013334_gshared
yib:__Z34scripting_liveness_calculation_endPv
Fkj:__ZN6il2cpp2os6ThreadC2Ev
the:_U3CGetEnumeratorU3Ec__Iterator0_System_Collections_Generic_IEnumeratorU3CTU3E_get_Current_m1566629109_gshared
Gwf:_DateTimeOffset_get_UtcDateTime_m1021718282_AdjustorThunk
zfa:__ZN16memory_pool_implILi64EE15AutoPoolWrapper12UninitializeEPv
Fu:__ZN21AnimationClipPlayable22ProcessAnimationNoClipEPK35AnimationPlayableEvaluationConstantPK32AnimationPlayableEvaluationInputP33AnimationPlayableEvaluationOutput
M7e:_HybridDictionary_get_Count_m1166314536
Hmi:_TlsStream_Write_m1412844442
ltc:__Z18Transfer_BlittableI8JSONReadLb0E8Vector3fEvRK29SerializationCommandArgumentsR31RuntimeSerializationCommandInfo
Iaj:__ZN6il2cpp2vm6Thread6DetachEP12Il2CppThread
ini:_GeneralNames_get_DNSNames_m3788548987
D3f:_List_1_AddCollection_m2026039026_gshared
lff:_X509ChainStatus_get_Status_m2572005749_AdjustorThunk
aHi:__ZL24UnresolvedVirtualCall_59P12Il2CppObjectS0_aPK10MethodInfo
pwc:__GLOBAL__sub_I_runtime_dynamics_2_cpp
fOe:_SerializationEntry_t648286436_marshal_pinvoke
aD:__ZN7mecanim8skeleton30SkeletonBuildReverseIndexArrayEPiPKiPKNS0_8SkeletonES6_
Mlc:__Z19GetGUIBlendMaterialv
BYd:_Math_Round_m3018379666
yJg:__Z41RuntimeInvoker_Boolean_t97287965_IntPtr_tPFvvEPK10MethodInfoPvPS4_
ulj:__ZN6il2cpp2os10ThreadImpl5SleepEjb
v7h:_ReadOnlyCollection_1_System_Collections_IList_Remove_m1965826685_gshared
Izf:_Delegate_CreateDelegate_m1051651521
wJf:_PlayableHandle_IsPlayableOfType_TisRuntimeObject_m503495943_AdjustorThunk
hJj:_glBindSampler__wrapper
SPa:__ZNSt3__26vectorIN20ArchiveStorageHeader12StorageBlockE13stl_allocatorIS2_L18MemLabelIdentifier55ELi16EEE8__appendEj
Hf:_emscripten_set_mouseup_callback
Epg:_Mathf_Clamp_m3350697880
gJa:__ZN9GfxDevice27SetRandomWriteTargetTextureEi9TextureID
nSf:_Dictionary_2_System_Collections_Generic_ICollectionU3CSystem_Collections_Generic_KeyValuePairU3CTKeyU2CTValueU3EU3E_Contains_m3033743418_gshared
OIg:__Z165RuntimeInvoker_Void_t1185182177_UInt32U26_t3735378166_Int32_t2950945753_UInt32U26_t3735378166_Int32_t2950945753_Int32_t2950945753_Int32_t2950945753_Int32_t2950945753PFvvEPK10MethodInfoPvPS4_
t3f:_List_1_System_Collections_IList_Remove_m3140917266_gshared
D5f:_Encoding_get_DecoderFallback_m1525880676
Juh:__ZL59ITrackingHandler_t1244553475_CustomAttributesCacheGeneratorP21CustomAttributesCache
psi:_CompositeExpression__ctor_m2434860303
W2d:_DSASignatureDeformatter__ctor_m2759753186
cff:_X509ChainElementCollection_System_Collections_IEnumerable_GetEnumerator_m3829089536
yhh:_Collection_1_System_Collections_IEnumerable_GetEnumerator_m801406918_gshared
IZb:__ZNK18ScreenManagerWebGL8GetWidthEv
dWi:__ZN6il2cpp2vm13MetadataCache33GetFieldDefaultValueDataFromIndexEi
oF:__ZN10SampleClipD2Ev
yhi:_InvokableCall_1_remove_Delegate_m790146436_gshared
tgi:_Predicate_1_Invoke_m2389850270_gshared
tlj:__ZN6il2cpp2os10ThreadImpl13SetWaitObjectEPNS0_5posix15PosixWaitObjectE
Thb:__Z13GetGISettingsv
seh:_Collection_1_RemoveAt_m1813368096_gshared
oU:__ZN11UnityEngine15CloudWebService20WebRequestRestClientC2Ev
yAc:_cff_cmap_unicode_init
CHf:_Array_InternalArray__ICollection_Contains_TisRuntimeObject_m4067783231_gshared
d1:__ZN14FileCacherRead13GetFileLengthEv
yii:_UnityAction_1_EndInvoke_m542551745_gshared
Ibh:_Collection_1_IsValidItem_m3080586124_gshared
u8c:_DropdownItem_set_text_m3702712387
F5c:_ClipperRegistry_Register_m2407166513
kAj:_readlink
a4i:__ZN15dense_hashtableINSt3__24pairIK10KeyWrapperINS1_IPK9EventInfoP11Il2CppClassEEEjEES9_17ReflectionMapHashIS8_EN14dense_hash_mapIS9_jSD_NS9_14EqualsComparerINS0_8equal_toIS8_EEEENS0_9allocatorISB_EEE9SelectKeyESI_SK_E12resize_deltaEjj
qnd:_MonoCMethod_Invoke_m2700167622
IHd:_KeyMarker__cctor_m2590194914
swe:_Enumerator_Reset_m627751027_AdjustorThunk
Ubb:__ZNK6Sprite9GetBoundsE8Vector2fbb
pTa:__ZNK19RenderEventsContext21CleanupCommandBuffersEv
tLi:_TextGenerator_PopulateWithErrors_m1222498386
q4f:_List_1_System_Collections_Generic_ICollectionU3CTU3E_get_IsReadOnly_m507350231_gshared
fua:__ZN11ContextGLES6CreateEi
ZLi:_WillRenderCanvases_BeginInvoke_m1804779886
qQg:__Z52RuntimeInvoker_Boolean_t97287965_Vector3_t3722313464PFvvEPK10MethodInfoPvPS4_
m2g:_List_1_set_Capacity_m3382070520_gshared
vUg:__Z68RuntimeInvoker_Boolean_t97287965_RuntimeObject_ObjectU26_t2146539884PFvvEPK10MethodInfoPvPS4_
_Re:_U3CMouseDragOutsideRectU3Ec__Iterator1_Dispose_m267465418
Gyf:_Decimal_CompareTo_m3502307243_AdjustorThunk
hCb:__Z19TransferField_ArrayI18StreamedBinaryReadILb0EE27Converter_SimpleNativeClassI17AnimationCurveTplIfEEEvRK23StaticTransferFieldInfoR31RuntimeSerializationCommandInfoRT0_
xKa:__ZN14StackAllocator16FrameMaintenanceEb
JMa:__Z18ReadStringFromFilePN4core17string_with_labelILi1EEERKNS_12basic_stringIcNS_20StringStorageDefaultIcEEEE
AWe:_Scrollbar_get_value_m760470106
pY:__ZNK10GameObject20QueryComponentByTypeEPKN5Unity4TypeE
Vxf:_Decimal_System_IConvertible_ToInt32_m1488426794_AdjustorThunk
bZd:_MonoCustomAttrs_IsUserCattrProvider_m2878058089
HVh:__ZL71InputField_t3762917431_CustomAttributesCacheGenerator_m_HideMobileInputP21CustomAttributesCache
v2a:__ZN11TextureData5ResetEv
tgc:__Z53Register_UnityEngine_GameObject_get_activeInHierarchyv
plf:_ToBase64Transform_InternalTransformFinalBlock_m360524956
pvd:_ActivationContext_Dispose_m2038725770
Jrb:__Z35Transfer_Blittable_FixedBufferFieldI17RemapPPtrTransferiEvRK29SerializationCommandArgumentsR31RuntimeSerializationCommandInfo
G_:__ZL30InitializeCoreScriptingClassesv
xbi:_ReadOnlyCollection_1_Contains_m1699971074_gshared
gpe:_InternalEnumerator_1_Dispose_m630370856_AdjustorThunk
Eg:_glBlitFramebuffer
INa:__ZN17ArchiveFileSystem5TouchER13FileEntryData
y1f:_Enumerator_System_Collections_IEnumerator_get_Current_m3594024719_gshared
Erb:__Z35Transfer_Blittable_SingleValueFieldI14SafeBinaryReadhEvRT_R17GeneralMonoObjectRK23StaticTransferFieldInfo
I9b:__ZN12CachedWriter15CompleteWritingEv
A1a:__ZNK12CubemapArray22GetTypeVirtualInternalEv
Mn:FUNCTION_TABLE_vif
Nn:FUNCTION_TABLE_vid
On:FUNCTION_TABLE_vii
Jib:__Z40scripting_liveness_calculation_from_root18ScriptingObjectPtrPv
iOe:_SerializationEntry__ctor_m1411687997_AdjustorThunk
Xth:__ZL65IContributeDynamicSink_t2255997386_CustomAttributesCacheGeneratorP21CustomAttributesCache
x_a:__ZN7Texture23VirtualRedirectTransferER24GenerateTypeTreeTransfer
bKc:_UNITY_FT_Set_Transform
R5b:__ZNK32RendererMaterialAnimationBinding12SetPPtrValueERKN11UnityEngine9Animation10BoundCurveEi
Ohj:__ZN6il2cpp8metadata15GenericMetadata20RegisterGenericClassEP18Il2CppGenericClass
MIj:_glDeleteFramebuffers__wrapper
jFg:__Z220RuntimeInvoker_Boolean_t97287965_RuntimeObject_Int32U26_t1369213839_Int32_t2950945753_Int32_t2950945753_Int32_t2950945753_RuntimeObject_SByte_t1669577662_Int32_t2950945753_ContractionU26_t961830454_ContextU26_t3937453398PFvvEPK10MethodInfoPvPS4_
Uze:_Enumerator__ctor_m920120158_AdjustorThunk
Srg:_Playable_Equals_m328753404_AdjustorThunk
Hph:__ZL78TextInfo_t3810425522_CustomAttributesCacheGenerator_TextInfo_Clone_m3838580862P21CustomAttributesCache
Gyc:_cff_blend_build_vector
ebf:_WebHeaderCollection_ToString_m1263025316
Poe:_InternalEnumerator_1_MoveNext_m1015797184_gshared
p6b:__ZZN12MeshRenderer15InitializeClassEvEN29FunctorImpl_134kDidDeleteMesh4CallEPviR11MessageData
GHg:__Z91RuntimeInvoker_Void_t1185182177_RuntimeObject_RuntimeObject_RuntimeObject_Int32_t2950945753PFvvEPK10MethodInfoPvPS4_
ypd:_GetterAdapter_Invoke_m3767885970
o3g:_List_1__ctor_m747758800_gshared
Wpi:_X509Extension_get_Oid_m4107042796
Vjd:_MethodBuilder_get_ReflectedType_m3038768129
Arf:_String_CreateString_m2818852475
m0f:_Enumerator_get_Current_m335492761_AdjustorThunk
G4a:__ZN28EnlightenRendererInformation8TransferI14SafeBinaryReadEEvRT_
IMi:_CanvasRenderer_get_hasMoved_m2236392341
lrg:_MessageEvent__ctor_m1231650089
sha:__ZNK15Lz4Decompressor16DecompressMemoryEPKvPjPvS2_
KYd:_MemberAccessException__ctor_m3713703094
TSa:__Z11IsCoroutine18ScriptingMethodPtrRK22CommonScriptingClasses
Bqh:__ZL117GenericTypeParameterBuilder_t1988827940_CustomAttributesCacheGenerator_GenericTypeParameterBuilder_Equals_m3260957994P21CustomAttributesCache
N1b:__ZN4core8hash_mapINS_12basic_stringIcNS_20StringStorageDefaultIcEEEE10vector_setI4PPtrI11SpriteAtlasENSt3__24lessIS8_EE13stl_allocatorIS8_L18MemLabelIdentifier81ELi16EEENS_4hashIS4_EENS9_8equal_toIS4_EEEixERKS4_
uh:_glGetAttribLocation
QGi:__ZL24UnresolvedVirtualCall_47P12Il2CppObject20DateTime_t3738529785PK10MethodInfo
x0a:__Z35UnityPropertySheet_MakeSortedColorsRKNSt3__23mapIN9ShaderLab16FastPropertyNameE10ColorRGBAfNS_4lessIS2_EENS_9allocatorINS_4pairIKS2_S3_EEEEEER10vector_mapIS2_S3_S5_NS6_INS7_IS2_S3_EEEEE
$Ch:__ZL72PKCS12_t4101533061_CustomAttributesCacheGenerator_U3CU3Ef__switchU24map8P21CustomAttributesCache
TCc:_UNITY_tt_face_load_os2
AFh:__ZL90Coroutine_t3829159415_CustomAttributesCacheGenerator_Coroutine_ReleaseCoroutine_m809189848P21CustomAttributesCache
Yqb:__Z29Transfer_Blittable_ArrayFieldI14SafeBinaryRead8Vector4fEvRT_R9ArrayInfoRK23StaticTransferFieldInfo
Wed:_Default_check_arguments_m3882727959
SGd:_Hashtable_get_IsSynchronized_m1426775249
T8f:_UTF8Encoding_GetMaxCharCount_m3762459613
fgd:_ModuleBuilder_RegisterToken_m4166846047
HKb:__ZZ23InitPlayerLoopCallbacksvEN51PostLateUpdateUpdateCustomRenderTexturesRegistrator7ForwardEv
JVe:_RawImage_OnPopulateMesh_m1115858855
KGg:__Z74RuntimeInvoker_MonoFileType_t221779374_IntPtr_t_MonoIOErrorU26_t1548853198PFvvEPK10MethodInfoPvPS4_
rWi:__ZN6il2cpp2vm13MetadataCache25GetStringLiteralFromIndexEi
Qvd:_Hashtable_ToPrime_m33531354
bv:__ZN7mecanim9animation12EvaluateClipEPKNS0_4ClipEPKNS0_9ClipInputEPNS0_10ClipMemoryEPNS0_10ClipOutputE
dih:_Collection_1_IsSynchronized_m1117613618_gshared
Wqb:__ZN15SerializeTraitsI13dynamic_arrayI5RectTIfELj4EEE19ResizeSTLStyleArrayERS3_i
Zdg:_TypeInitializationException__ctor_m3546444694
Dcc:__ZNK9Transform16GetLocalRotationEv
R4a:__ZN4PPtrI11LightProbesE8TransferI18StreamedBinaryReadILb0EEEEvRT_
OT:__ZN11UnityEngine15CloudWebService23WebRequestUploadHandler17ConsumeUploadDataEj
lXi:__ZNSt3__214__split_bufferI6pollfdRNS_9allocatorIS1_EEEC2EjjS4_
sEe:_CrossAppDomainData_get_DomainID_m3516796532
kTg:__Z68RuntimeInvoker_Void_t1185182177_Single_t1397266774_SByte_t1669577662PFvvEPK10MethodInfoPvPS4_
$Ud:_MemoryStream_set_Position_m3169779190
AWb:__ZN13RenderManager29SetCurrentCameraAndStackStateEP6CameraP25CameraStackRenderingState
q0c:_ExecuteEvents_get_scrollHandler_m2659345019
ORa:__ZNSt3__26__treeINS_12__value_typeIjN4core12basic_stringIcNS2_20StringStorageDefaultIcEEEEEENS_19__map_value_compareIjS7_NS_4lessIjEELb1EEE13stl_allocatorIS7_L18MemLabelIdentifier7ELi16EEE7destroyEPNS_11__tree_nodeIS7_PvEE
taj:__ZN15dense_hashtableINSt3__24pairIK10KeyWrapperINS1_IP11Il2CppClassjEEES4_EES6_N6il2cpp8metadata14ArrayClassHashEN14dense_hash_mapIS6_S4_SB_NS6_14EqualsComparerINSA_17ArrayClassCompareEEENS0_9allocatorIS8_EEE9SelectKeyESF_SH_E12resize_deltaEjj
Th:_JS_WebRequest_Release
vS:__ZN11UnityEngine15CloudWebService14DataErrorEventD0Ev
iej:__ZN6il2cpp6icalls8mscorlib6System4Type20internal_from_handleEi
_Eh:__ZL72RequiredByNativeCodeAttribute_t4130846357_CustomAttributesCacheGeneratorP21CustomAttributesCache
IFe:_Context__ctor_m254302079
Khj:__ZN6il2cpp8metadata15GenericMetadata7InflateEPK19Il2CppGenericMethodPK20Il2CppGenericContext
r6e:_KeyGeneratedEventHandler_EndInvoke_m3057317531
X3a:__ZN19ShaderPropertySheet16SetArrayPropertyEN9ShaderLab16FastPropertyNameENS_12PropertyTypeEPKvj
iXe:_Selectable_FindSelectable_m2348614027
a7c:_FloatTween_get_duration_m1227071020
rij:__ZN15dense_hashtableINSt3__24pairIK10KeyWrapperIP12Il2CppObjectEN6il2cpp2gc9CachedCCWEEES5_NS7_5utils11PointerHashIS3_EEN14dense_hash_mapIS5_S9_SD_NS5_14EqualsComparerINS0_8equal_toIS4_EEEENS0_9allocatorISA_EEE9SelectKeyESI_SK_E16reset_thresholdsEv
b9c:_DropdownItem_OnPointerEnter_m1492957598
DNc:__ZN2UI11CanvasGroup23VirtualRedirectTransferER19StreamedBinaryWriteILb0EE
Hpd:_ParameterInfo_get_ParameterType_m4197803362
gGg:__Z91RuntimeInvoker_Void_t1185182177_Int32U26_t1369213839_Int32U26_t1369213839_Int32_t2950945753PFvvEPK10MethodInfoPvPS4_
enc:__ZN8GUIState8EndOnGUIEv
mFc:_UNITY_TT_Get_VMetrics
XBg:__Z49RuntimeInvoker_Char_t3634460470_Int16_t2552820387PFvvEPK10MethodInfoPvPS4_
SPg:__Z69RuntimeInvoker_Color_t2555686324_Color_t2555686324_Single_t1397266774PFvvEPK10MethodInfoPvPS4_
ZWf:_EqualityComparer_1__ctor_m2283513024_gshared
zEd:_SimpleEnumerator__cctor_m2844299657
pYd:_LocalDataStoreSlot__ctor_m4104083971
$0h:_Array_qsort_TisVector3_t3722313464_m4117329442_gshared
ebi:_ReadOnlyCollection_1_System_Collections_Generic_IListU3CTU3E_RemoveAt_m3849058645_gshared
_Ei:_AudioSource_ReadExtensionName_m725112169
ipi:_X509CertificateEnumerator_System_Collections_IEnumerator_Reset_m2039524926
XLg:__Z128RuntimeInvoker_Void_t1185182177_RuntimeObject_BooleanU26_t4125257963_SByte_t1669577662_Int32U26_t1369213839_Int32U26_t1369213839PFvvEPK10MethodInfoPvPS4_
Ywa:__ZN7Texture21GetMasterTextureLimitEv
Oze:_Enumerator_Dispose_m3503748991_AdjustorThunk
pYb:__Z12CanAddScriptR10GameObject17ScriptingClassPtrPS1_S2_
a7i:__ZN6il2cpp2vm10Reflection12HasAttributeEP12Il2CppObjectP11Il2CppClass
XRg:__Z103RuntimeInvoker_Boolean_t97287965_RuntimeObject_Vector2_t2156229523_RuntimeObject_Vector3U26_t3464235976PFvvEPK10MethodInfoPvPS4_
Zdi:_Comparison_1_BeginInvoke_m3263247262_gshared
K9:__ZN9ShaderLabL25StaticInitializeShaderLabEPv
U:Math_max
xYh:__ZL64HorizontalLayoutGroup_t2586782146_CustomAttributesCacheGeneratorP21CustomAttributesCache
HHi:__ZL24UnresolvedVirtualCall_92P12Il2CppObjectPK10MethodInfo
C7i:_il2cpp_class_get_methods
wwg:_HitInfo_SendMessage_m1343099429_AdjustorThunk
Ktb:__Z18Transfer_BlittableI24GenerateTypeTreeTransferLb0EN4math12int2_storageEEvRK29SerializationCommandArgumentsR31RuntimeSerializationCommandInfo
mAf:_StackTrace_get_trace_m1194606084
bpf:_Single_CompareTo_m2785801815_AdjustorThunk
Nkj:__ZN6il2cpp2os6Thread16GetCurrentThreadEv
DQf:_Array_InternalArray__Insert_TisUILineInfo_t4195266810_m3191124053_gshared
O7b:__ZN10GameObject13ComponentPair15SetComponentPtrEPN5Unity9ComponentE
fHj:_glBlitFramebuffer__wrapper
C2b:__Z13RegisterClassI10MeshFilterEvv
bUh:__ZL75U3COnFinishSubmitU3Ec__Iterator0_t3413438900_CustomAttributesCacheGeneratorP21CustomAttributesCache
URa:__ZN10TagManager8TransferI19StreamedBinaryWriteILb0EEEEvRT_
cib:__ZN11PreloadData23VirtualRedirectTransferER18StreamedBinaryReadILb0EE
G7a:__ZN13sorted_vectorI4PPtrI11SpriteAtlasENSt3__24lessIS2_EE13stl_allocatorIS2_L18MemLabelIdentifier1ELi16EEE21sort_clear_duplicatesEv
Csg:_PropertyNameUtils_PropertyNameFromString_Injected_m1259736140
QUh:__ZL60FontData_t746620069_CustomAttributesCacheGenerator_m_MinSizeP21CustomAttributesCache
FBd:_Char_System_IConvertible_ToDateTime_m3564102661
qye:_ShimEnumerator_get_Key_m317201915_gshared
z6a:__ZN6Sprite17MainThreadCleanupEv
nHj:_glBlendFuncSeparate__wrapper
$K:__ZN10AudioMixer14UpdateMuteSoloEv
_$:__Z17GetMonoManagerPtrv
fRa:__ZN9Transform35SetLocalPositionWithoutNotificationERKN4math7_float3Ey
ePh:__ZL87GUIUtility_t1868551600_CustomAttributesCacheGenerator_U3CguiIsExitingU3Ek__BackingFieldP21CustomAttributesCache
ELg:__Z69RuntimeInvoker_UInt64_t4134040092_Int32_t2950945753_SByte_t1669577662PFvvEPK10MethodInfoPvPS4_
Ui:_JS_Eval_ClearTimeout
jWe:_Raycast2DCallback_Invoke_m1500574149
IBa:__ZN7ApiGLES16SetPatchVerticesEi
tui:_CharacterClass_Compile_m3296067317
Emj:__ZN6il2cpp2gc16GarbageCollector16InvokeFinalizersEv
OAd:_Byte_System_IConvertible_ToInt64_m285584218_AdjustorThunk
Wtg:_Rect_get_size_m477575021_AdjustorThunk
UOi:__ZN6il2cpp2vm5Class20FromGenericParameterEPK22Il2CppGenericParameter
bV:__ZN19CloudServiceHandler11FlushEventsEv
Yea:__ZN15GlobalCallbacksC2Ev
XIe:_MethodCall_System_Runtime_Remoting_Messaging_IInternalMessage_set_Uri_m1919576807
TNf:_Array_InternalArray__ICollection_Add_TisLabelData_t360167391_m1648183135_gshared
wve:_Comparer_1_System_Collections_IComparer_Compare_m2016223770_gshared
XBi:_U3CCrossFadeU3Ec__Iterator0__ctor_m2719363011
EZh:__ZL57BaseMeshEffect_t2440176439_CustomAttributesCacheGeneratorP21CustomAttributesCache
VKg:__Z74RuntimeInvoker_DateTime_t3738529785_DateTime_t3738529785_Int32_t2950945753PFvvEPK10MethodInfoPvPS4_
qLc:_UNITY_FT_New_Memory_Face
Keh:_Collection_1_System_Collections_IList_IndexOf_m3271188411_gshared
uJc:__ZN20TextRenderingPrivate21TextMeshGeneratorImpl5FlushEv
NUd:_MonoIO_GetFileStat_m678141354
iBc:_UNITY_FT_Load_Sfnt_Table
H7c:__Z15CastclassSealedP12Il2CppObjectP11Il2CppClass
a2b:__ZN15ApplicationInfo14GetSandboxTypeEv
Lrb:__Z18Transfer_BlittableI17RemapPPtrTransferLb1EhEvRK29SerializationCommandArgumentsR31RuntimeSerializationCommandInfo
vyf:_Decimal_IsZero_m4250358244_AdjustorThunk
bYd:_UnmanagedMemoryStream_get_CanRead_m3770815400
$mj:__ZNSt3__26vectorIjNS_9allocatorIjEEE26__swap_out_circular_bufferERNS_14__split_bufferIjRS2_EE
hXb:__ZN16ReflectionProbes40UpdateRealtimeReflectionProbesTimeslicedEv
Ogj:__ZNSt3__26__treeINS_12__value_typeIP24Il2CppReflectionAssemblyPvEENS_19__map_value_compareIS3_S5_NS_4lessIS3_EELb1EEENS_9allocatorIS5_EEE16__insert_node_atEPNS_16__tree_node_baseIS4_EERSF_SF_
lyf:_Decimal_u64_m3374804932
qeg:_UInt16_System_IConvertible_ToInt32_m1950778303_AdjustorThunk
rfb:__ZNK30RuntimeInitializeOnLoadManager22GetTypeVirtualInternalEv
CTi:__ZN15dense_hashtableINSt3__24pairIK10KeyWrapperIN6il2cpp5utils13dynamic_arrayIPK10Il2CppTypeLj4EEEEPFvvEEESA_NS3_8metadata19Il2CppSignatureHashEN14dense_hash_mapISA_SD_SG_NSA_14EqualsComparerINSF_22Il2CppSignatureCompareEEENS0_9allocatorISE_EEE9SelectKeyESK_SM_E12resize_deltaEjj
x5b:__ZN16ReflectionProbes15InitializeClassEv
Jlh:__ZL71Enum_t4135868527_CustomAttributesCacheGenerator_Enum_Format_m2588135982P21CustomAttributesCache
UUi:__ZNK15dense_hashtableINSt3__24pairIK10KeyWrapperIPK11Il2CppClassEPKcEES6_N6il2cpp5utils11PointerHashIS3_EEN14dense_hash_mapIS6_S9_SE_NS6_14EqualsComparerINS0_8equal_toIS5_EEEENS0_9allocatorISA_EEE9SelectKeyESJ_SL_E12test_deletedEj
uRh:__ZL127RectTransformUtility_t1743242446_CustomAttributesCacheGenerator_RectTransformUtility_INTERNAL_CALL_PixelAdjustPoint_m1064459754P21CustomAttributesCache
f3h:_Dictionary_2_Do_ICollectionCopyTo_TisKeyValuePair_2_t3699644050_m4159638770_gshared
Jfj:__ZN6il2cpp2vm5Image9GetCorlibEv
Gzg:_Vector3_get_left_m2428419009
eA:__ZN8Animator13BatchedFKPassERK13dynamic_arrayIP14PlayableOutputLj4EE
ash:__ZL50Pointer_t2088917139_CustomAttributesCacheGeneratorP21CustomAttributesCache
$rj:_GC_reclaim_uninit
khb:__ZN16LightmapSettings11UnshareDataEv
d0c:_ExecuteEvents_Execute_m113814934
tba:__ZN13RuntimeStaticINSt3__23mapIN4core12basic_stringIcNS2_20StringStorageDefaultIcEEEES6_NS0_4lessIS6_EE13stl_allocatorINS0_4pairIKS6_S6_EEL18MemLabelIdentifier13ELi16EEEELb0EE13StaticDestroyEPv
O0h:_Array_qsort_TisColor32_t2600501292_m1362211604_gshared
Cve:_Enumerator_System_Collections_IEnumerator_get_Current_m2979767597_AdjustorThunk
s4d:_MD5CryptoServiceProvider_ProcessFinalBlock_m2241588515
sYe:_ScrollRect_GetBounds_m449872505
Tj:_glIsVertexArray
Aud:_SmallXmlParser_Read_m3485223434
yNd:_Int16_Parse_m2276856944
Toe:_InternalEnumerator_1__ctor_m3443175323_AdjustorThunk
Z5:__ZN5Unity9Component8TransferI18StreamedBinaryReadILb0EEEEvRT_
Frh:__ZL131CustomAttributeData_t1084486650_CustomAttributesCacheGenerator_CustomAttributeData_t1084486650____ConstructorArguments_PropertyInfoP21CustomAttributesCache
ea:invoke_fff
$zj:_mbsinit
VFj:b14
$gf:_RepeatContext_get_Expression_m255006542
OMc:__ZN2UI6Canvas17MainThreadCleanupEv
lza:__ZN6prcoreL12RemapGenericI17TexFormatARGB155517TexFormatRGBA8888EEvPKNS_9InnerInfoE
OQi:__ZN13Il2CppHashMapIPK19Il2CppGenericMethodPK26Il2CppGenericMethodIndicesN6il2cpp8metadata23Il2CppGenericMethodHashENS7_26Il2CppGenericMethodCompareENSt3__29allocatorINSA_4pairIK10KeyWrapperIS2_ES5_EEEEEC2EjRKS8_RKS9_
Lld:_TypeBuilder_HasElementTypeImpl_m1871001960
gof:_SecurityFrame__ctor_m2140076703_AdjustorThunk
wVf:_DefaultComparer_Equals_m2458578172_gshared
kDa:__ZN7ApiGLES13CreateProgramEv
Awe:_Enumerator_VerifyState_m4003066746_gshared
lxa:__ZN4crnd12crn_unpackerD2Ev
ek:_emscripten_glTexImage2D
que:_Comparer_1_System_Collections_IComparer_Compare_m2537217645_gshared
u_:__ZN18ScriptingArguments9AddStringEPKc
tsj:_setup_header
R_f:_KeyValuePair_2__ctor_m3953574590_AdjustorThunk
ECd:_Char_ToString_m3588025615
JJf:_SetPropertyUtility_SetStruct_TisAspectMode_t3417192999_m1565063249_gshared
nch:_Collection_1_get_Count_m2853642267_gshared
i9h:_ReadOnlyCollection_1_System_Collections_IList_get_IsReadOnly_m375760151_gshared
Ouh:__ZL53IEnvoyInfo_t2180778907_CustomAttributesCacheGeneratorP21CustomAttributesCache
x4e:_CryptoConvert_ToCapiKeyBlob_m3371450375
tya:__ZL23stbir__resize_arbitraryPvPKviiiS_iiiffffPfiij14stbir_datatype12stbir_filterS4_10stbir_edgeS5_16stbir_colorspace
cub:__Z18Transfer_BlittableI24GenerateTypeTreeTransferLb1E8Vector4fEvRK29SerializationCommandArgumentsR31RuntimeSerializationCommandInfo
ZFj:b18
pk:_pthread_detach
IWi:__ZN6il2cpp2vm19SocketPollingThread7RunLoopEv
J9c:_FontUpdateTracker_UntrackText_m1981515690
x4g:_List_1_System_Collections_ICollection_get_SyncRoot_m1937857346_gshared
L_h:__ZL85Home_End_t2706148170_CustomAttributesCacheGenerator_Home_End_CrossFadeOut_m4139362805P21CustomAttributesCache
q8b:__ZN15DirectorManager20ScheduleGraphDestroyERK14HPlayableGraph
WCb:__ZNSt3__213__stable_sortIRN10vector_mapI17ScriptingClassPtrPKN5Unity4TypeENS_4lessIS2_EENS_9allocatorINS_4pairIS2_S6_EEEEE13value_compareENS_11__wrap_iterIPSB_EEEEvT0_SJ_T_NS_15iterator_traitsISJ_E15difference_typeEPNSM_10value_typeEi
g1e:_SimpleCollator_FillSurrogateSortKeyRaw_m725998232
D5g:_List_1_AddEnumerable_m1284696147_gshared
raf:_IPAddress_Equals_m1823478787
zGe:_Context_CreateNewContext_m3053563976
mHh:__ZL83RectOffset_t1369453676_CustomAttributesCacheGenerator_RectOffset_set_top_m713260669P21CustomAttributesCache
Tka:__ZN9ShaderLab25SerializedTextureProperty8TransferI24GenerateTypeTreeTransferEEvRT_
R2h:_Array_swap_TisVector2_t2156229523_TisVector2_t2156229523_m345092822_gshared
Fbh:_Collection_1_get_Item_m1773274637_gshared
U4i:__ZN6il2cpp2gc19AppendOnlyGCHashMapINSt3__24pairIPK14Il2CppAssemblyP11Il2CppClassEEP24Il2CppReflectionAssembly17ReflectionMapHashIS9_ENS2_8equal_toIS9_EEEC2Ev
BDc:_tt_cmap14_char_next
Pwb:__Z18Transfer_BlittableI19StreamedBinaryWriteILb0EELb0EdEvRK29SerializationCommandArgumentsR31RuntimeSerializationCommandInfo
Wka:__ZN11NamedObject8TransferI18StreamedBinaryReadILb0EEEEvRT_
wGa:__ZNK17GPUSkinPoseBuffer12GetBoneCountEv
Dmg:_InvokableCall_remove_Delegate_m1376110510
dHd:_Hashtable_Clear_m3112193608
B8f:_UTF8Encoding_InternalGetByteCount_m771565606
ofj:__ZNK15dense_hashtableINSt3__24pairIK10KeyWrapperIP14Il2CppIUnknownEjEES5_N6il2cpp5utils11PointerHashIS3_EEN14dense_hash_mapIS5_jSB_NS5_14EqualsComparerINS0_8equal_toIS4_EEEENS0_9allocatorIS7_EEE9SelectKeyESG_SI_E12test_deletedEj
juc:__Z18Transfer_BlittableI8JSONReadLb1EyEvRK29SerializationCommandArgumentsR31RuntimeSerializationCommandInfo
G0g:_List_1_System_Collections_IList_Remove_m3654336679_gshared
sHh:__ZL51GUILayer_t2783472903_CustomAttributesCacheGeneratorP21CustomAttributesCache
ooh:__ZL56IDictionary_2_t3177279192_CustomAttributesCacheGeneratorP21CustomAttributesCache
MKf:_Array_InternalArray__IEnumerable_GetEnumerator_TisUInt64_t4134040092_m1382862496_gshared
Mk:_emscripten_glMatrixMode
WUe:_MaskableGraphic_UnityEngine_UI_IClippable_get_gameObject_m1739855597
uFf:_NumberFormatInfo_get_RawPercentGroupSizes_m97703232
Ps:__ZN8Animator23VirtualRedirectTransferER18StreamedBinaryReadILb0EE
uGf:_Guid__ctor_m3562600567_AdjustorThunk
Jtf:_DateTime_System_IConvertible_ToInt16_m3239820399
RR:__ZN11UnityEngine15CloudWebService14DataDispatcher16PrepareDataBlockERNS0_16SessionContainerE
THa:__ZN18GfxFramebufferGLES5ClearE13GfxClearFlagsRK10ColorRGBAffib
dBi:_ClassroomController_Update_m597197162
sNf:_MonoProperty_StaticGetterAdapterFrame_TisRuntimeObject_m4131530968_gshared
yBb:__ZL26Transfer_SimpleNativeClassI18StreamedBinaryReadILb0EE10RectOffsetLb0EEvRK29SerializationCommandArgumentsR31RuntimeSerializationCommandInfo
Qne:_InternalEnumerator_1_get_Current_m2316281569_gshared
qOb:__ZL12DepthPassJobPN21GfxDeviceAsyncCommand10ArgScratchEPKNS_3ArgE
fja:__ZNSt3__26vectorIN9ShaderLab20SerializedSubProgram16TextureParameterENS_9allocatorIS3_EEE6assignINS_11__wrap_iterIPS3_EEEENS_9enable_ifIXaasr21__is_forward_iteratorIT_EE5valuesr16is_constructibleIS3_NS_15iterator_traitsISC_E9referenceEEE5valueEvE4typeESC_SC_
Cze:_Transform_1_EndInvoke_m1701794896_gshared
Epc:__ZN5Unity9rapidjson6WriterI16TempBufferWriterNS0_4UTF8IcEES4_13JSONAllocatorE11WriteDoubleEd
hag:_Thread_SetCachedCurrentUICulture_m1729523031
PQc:__Z55Register_UnityEngine_CanvasGroup_get_ignoreParentGroupsv
MRe:_InputField_get_minHeight_m2822964544
a3b:__Z13RegisterClassI19LowerResBlitTextureEvv
jbe:_ClientContext_set_ClientHelloProtocol_m4189379912
Nm:FUNCTION_TABLE_iiiiiiiiiiii
f5g:_List_1_get_Item_m1686506901_gshared
eUa:__ZN16GraphicsSettingsD0Ev
f$b:__Z29StdTemplateConversionFunctionIshEbPvR14SafeBinaryRead
n:cttz_i8
uyc:_UNITY_FT_GlyphLoader_Add
uFi:_AudioListener_INTERNAL_CALL_ReadExtensionPropertyName_m330480156
Csh:__ZL62ActivationArguments_t4219999170_CustomAttributesCacheGeneratorP21CustomAttributesCache
YBi:_Home_Start_StartTalking_m734041338
UNg:__Z53RuntimeInvoker_Interval_t1802865632_Int32_t2950945753PFvvEPK10MethodInfoPvPS4_
ULd:_Convert_ToUInt16_m867476252
Jl:_emscripten_glViewport
Goj:__ZN6il2cpp6icalls8mscorlib6System15MonoCustomAttrs17IsDefinedInternalEP12Il2CppObjectP20Il2CppReflectionType
A0f:_Enumerator__ctor_m40451936_AdjustorThunk
oQg:__Z53RuntimeInvoker_Vector3_t3722313464_Single_t1397266774PFvvEPK10MethodInfoPvPS4_
QNi:_SkeletonBone_t4134054672_marshal_pinvoke_back
duh:__ZL115SynchronizationAttribute_t3946661254_CustomAttributesCacheGenerator_SynchronizationAttribute_IsContextOK_m324067792P21CustomAttributesCache
lfd:_CustomAttributeData_get_Constructor_m489601093
Szc:_cff_parse_font_bbox
p0e:_MSCompatUnicodeTable_Category_m1834196420
vec:__Z35Application_Get_Custom_PropIsEditorv
Idb:__ZN14PlayerSettings23VirtualRedirectTransferER18StreamedBinaryReadILb0EE
bBf:_Double_CompareTo_m3151899116
Axj:__ZN6il2cpp2os5Event5ResetEv
DTb:__Z26CombineDepthNormalsTextureRK17RenderLoopContextR13dynamic_arrayI16RenderObjectDataLj4EE
kDc:_tt_name_ascii_from_other
XDi:_ToggleGroup__ctor_m3308114662
vhj:__ZN6il2cpp8metadata15GenericMetadata17InflateParametersEPK13ParameterInfohPK20Il2CppGenericContextb
fSa:__ZN6Camera13AwakeFromLoadE17AwakeFromLoadMode
i2h:_Array_Sort_TisUILineInfo_t4195266810_m3737783007_gshared
Xrg:_PlayableAsset_Internal_CreatePlayable_m2550417712
Xv:__ZNK17AnimationPlayable27GetNextCompatibleDescendantEi
dCh:__ZL59ResolveEventArgs_t1779456501_CustomAttributesCacheGeneratorP21CustomAttributesCache
kKa:__ZN4PPtrI6SpriteE8TransferI18StreamedBinaryReadILb0EEEEvRT_
Fzd:_Convert_ToInt16_m3324557887
Qmi:_TlsStream_Write_m188217214
hzb:__ZN4PPtrI9Texture2DE8TransferI18StreamedBinaryReadILb1EEEEvRT_
xGb:__Z25SetNeedToPerformRenderingb
VBj:__ZN10__cxxabiv116__shim_type_infoD2Ev
pti:_Alternation__ctor_m1629257642
ggg:_UInt64_System_IConvertible_ToInt32_m949522652_AdjustorThunk
sQa:__ZN10GameObjectD2Ev
FOb:__ZN14qsort_internal30FindAndMovePivotToLastPositionIP15RODataDepthPassi17ROSorterDepthPassEEvT_S4_T0_T1_
MYd:_MethodAccessException__ctor_m3411913042
vGi:__ZL24UnresolvedVirtualCall_26P12Il2CppObjectS0_iiPK10MethodInfo
nYf:_EqualityComparer_1__ctor_m1767308726_gshared
qWb:__ZN12CullingGroup10SendEventsEPK17CullingGroupEventj
nXi:__ZNSt3__214__split_bufferI6pollfdRNS_9allocatorIS1_EEED2Ev
yFf:_NumberFormatInfo_get_PerMilleSymbol_m1360140831
s9d:_EncryptedData_get_EncryptionAlgorithm_m905084934
vKf:_Array_InternalArray__IEnumerable_GetEnumerator_TisCustomAttributeTypedArgument_t2723150157_m1333528454_gshared
F1c:_PointerInputModule__ctor_m3728889932
BX:__ZThn32_NK8Renderer8GetLayerEv
Z0f:_Enumerator_System_Collections_IEnumerator_Reset_m2915500989_gshared
Xzc:_cff_parse_vsindex
jgj:__ZN30dense_hashtable_const_iteratorINSt3__24pairIK10KeyWrapperINS1_IPKcS4_EEEiEES6_24NamespaceAndNamePairHashN14dense_hash_mapIS6_iS9_NS6_14EqualsComparerI26NamespaceAndNamePairEqualsEENS0_9allocatorIS8_EEE9SelectKeyESD_SF_E30advance_past_empty_and_deletedEv
KNd:_Int32_ValidDigit_m1059003769
xLj:_emscripten_glTexParameterfv__wrapper
xCh:__ZL54MemberFilter_t426314064_CustomAttributesCacheGeneratorP21CustomAttributesCache
KSe:_LayoutGroup_get_rectTransform_m442863741
lob:__Z18Transfer_BlittableI14SafeBinaryReadLb1E9BoundsIntEvRK29SerializationCommandArgumentsR31RuntimeSerializationCommandInfo
Q$h:__ZL72School_Classroom_t2064016735_CustomAttributesCacheGenerator_femaleFriendP21CustomAttributesCache
fcc:__ZN10systeminfo19ISOToSystemLanguageERN4core12basic_stringIcNS0_20StringStorageDefaultIcEEEE
M3i:__ZNK15dense_hashtableINSt3__24pairIK10KeyWrapperINS1_IPK12PropertyInfoP11Il2CppClassEEEjEES9_17ReflectionMapHashIS8_EN14dense_hash_mapIS9_jSD_NS9_14EqualsComparerINS0_8equal_toIS8_EEEENS0_9allocatorISB_EEE9SelectKeyESI_SK_E3endEv
a4h:_LayoutGroup_SetProperty_TisAxis_t3613393006_m3591044743_gshared
Vgg:_UnauthorizedAccessException__ctor_m40101894
Zlh:__ZL69RuntimeArray_CustomAttributesCacheGenerator_Array_SetValue_m282347242P21CustomAttributesCache
nHc:_ps_dimension_done
CMc:__Z46Register_UnityEngine_TextGenerator_Dispose_cppv
KHg:__Z67RuntimeInvoker_GCHandle_t3351438187_RuntimeObject_Int32_t2950945753PFvvEPK10MethodInfoPvPS4_
gBf:_Double_Parse_m4153729520
Wji:_IndexedSet_1_AddUnique_m861843892_gshared
ADh:__ZL59HybridDictionary_t4070033136_CustomAttributesCacheGeneratorP21CustomAttributesCache
l4a:__ZN16LightmapSettings8TransferI14SafeBinaryReadEEvRT_
soa:__ZN17BufferManagerGLES13ReleaseBufferEP14DataBufferGLES
iae:_CipherSuite_Write_m1172814058
mXd:_SynchronizedWriter_Write_m301917713
C8:__ZN9profiling6MarkerC2EPKc13ProfilerGroupNS0_5FlagsE
Zte:__ZN21InterfaceFuncInvoker1Ii22UILineInfo_t4195266810E6InvokeEjP11Il2CppClassP12Il2CppObjectS0_
guc:__Z18Transfer_BlittableI8JSONReadLb1EjEvRK29SerializationCommandArgumentsR31RuntimeSerializationCommandInfo
jgd:_ConstructorBuilder_get_IsCompilerContext_m3364441562
Elg:_Debug_LogWarning_m3752629331
qdi:_ReadOnlyCollection_1_System_Collections_Generic_IListU3CTU3E_RemoveAt_m4037795630_gshared
eJg:__Z117RuntimeInvoker_Void_t1185182177_RuntimeObject_Int32_t2950945753_Int32_t2950945753_Int32_t2950945753_Int32_t2950945753PFvvEPK10MethodInfoPvPS4_
dWh:__ZL81U3CMouseDragOutsideRectU3Ec__Iterator1_t3909241878_CustomAttributesCacheGeneratorP21CustomAttributesCache
z4c:_U3COnFinishSubmitU3Ec__Iterator0_Reset_m3632769946
$o:stackSave
lU:__ZN5Unity9rapidjson15GenericDocumentINS0_4UTF8IcEE13JSONAllocatorNS0_12CrtAllocatorEE6StringEPKcjb
C6c:_ColorTween_get_targetColor_m1724075482_AdjustorThunk
IHc:_ps_dimension_end
alc:__Z41Register_UnityEngine_Mesh_Internal_Createv
Umb:__ZN16MemoryFileSystem5TouchER13FileEntryData
thj:__ZNK15dense_hashtableI10KeyWrapperIP18Il2CppGenericClassES3_N6il2cpp8metadata22Il2CppGenericClassHashEN14dense_hash_setIS3_S6_NS3_14EqualsComparerINS5_25Il2CppGenericClassCompareEEENSt3__29allocatorIS3_EEE8IdentityESA_SD_E12test_deletedERK30dense_hashtable_const_iteratorIS3_S3_S6_SF_SA_SD_E
A1f:_Enumerator_Dispose_m2498245804_AdjustorThunk
mJd:_Console_Open_m3077673205
ppi:_X509StoreManager_get_CurrentUser_m4040993045
PXb:__ZN6Camera9SetAspectEf
sMf:_Array_InternalArray__IndexOf_TisDateTime_t3738529785_m2463359116_gshared
va:invoke_viiffiii
Nme:_InternalEnumerator_1_MoveNext_m4138204635_gshared
OMj:_emscripten_glBindVertexArray__wrapper
lkj:__ZN6il2cpp6icalls8mscorlib6System4Enum19get_underlying_typeEP20Il2CppReflectionType
bvi:_Parser_IsECMAScript_m674158805
lF:__ZN10ObjectPoolIN4FMOD3DSPENS0_4DSPIEE7GetFreeEi
nRa:__ZN9Transform37InitializeTransformHierarchyRecursiveER18TransformHierarchyRii
HHa:__ZN26SinglePassStereoSupportExt23SetupStereoMatrixParamsE21MonoOrStereoscopicEye24BuiltinShaderMatrixParamRK10Matrix4x4f
w1h:_Array_Resize_TisVector2_t2156229523_m1564542050_gshared
Wzj:_fscanf
sYc:__ZNK25UnityWebRequestJavaScript16GetUploadedBytesEv
UP:__Z46AudioListener_CUSTOM_GetNumExtensionPropertiesP12Il2CppObject
TXi:__ZN6il2cpp6icalls8mscorlib6SystemL16CheckMemberMatchI9FieldInfoNS_5utils10functional6FilterINSt3__212basic_stringIcNS8_11char_traitsIcEENS8_9allocatorIcEEEENS5_13VmStringUtils23CaseInsensitiveComparerEEEEEbPKT_PK11Il2CppClassSN_iRKT0_
X_:__Z14GetMonoManagerv
FMf:_Array_InternalArray__IndexOf_TisMonoResource_t4103430009_m1351751258_gshared
Iij:__ZN6il2cpp2gc16GarbageCollector12RunFinalizerEPvS2_
$Cf:_FieldAccessException__ctor_m3583219052
akc:__Z57Register_UnityEngine_Transform_INTERNAL_set_localPositionv
QJh:__ZL105RectTransform_t3704657025_CustomAttributesCacheGenerator_RectTransform_INTERNAL_get_anchorMax_m1239315619P21CustomAttributesCache
wsa:__ZN13GfxDeviceGLES26SetRandomWriteTargetBufferEi15ComputeBufferID
ssj:_GC_split_block
r1h:_Array_Resize_TisUICharInfo_t75501106_m3903846016_gshared
bai:_ReadOnlyCollection_1_System_Collections_Generic_ICollectionU3CTU3E_get_IsReadOnly_m3887826072_gshared
D3i:__ZNK15dense_hashtableINSt3__24pairIK10KeyWrapperINS1_IPK12PropertyInfoP11Il2CppClassEEEjEES9_17ReflectionMapHashIS8_EN14dense_hash_mapIS9_jSD_NS9_14EqualsComparerINS0_8equal_toIS8_EEEENS0_9allocatorISB_EEE9SelectKeyESI_SK_E8min_sizeEjj
vKb:__ZZ23InitPlayerLoopCallbacksvEN49EarlyUpdateResetFrameStatsAfterPresentRegistrator7ForwardEv
wAj:_poll
dai:_ReadOnlyCollection_1_System_Collections_IEnumerable_GetEnumerator_m1671097018_gshared
Ggg:_UInt64_ToString_m1529093114_AdjustorThunk
uXh:__ZL85Selectable_t3250028441_CustomAttributesCacheGenerator_Selectable_IsPressed_m907486548P21CustomAttributesCache
Asd:_TypeLibImportClassAttribute__ctor_m2302178978
Q1e:_Escape_t3294788190_marshal_pinvoke
eRe:_InputField_OnUpdateSelected_m1118869681
Nfj:__ZN6il2cpp2vmL36AddNestedTypesToNametoClassHashTableEP40Il2CppNameToTypeDefinitionIndexHashTablePKcRKNSt3__212basic_stringIcNS5_11char_traitsIcEENS5_9allocatorIcEEEEP11Il2CppClass
mOe:_SerializationException__ctor_m3131447373
vxa:__ZN4crnd12crn_unpacker11unpack_dxt1EPPhjjj
Rbc:__ZNK11ICallString6ToUTF8Ev
g_g:__Z39RuntimeInvoker_MonoResource_t4103430009PFvvEPK10MethodInfoPvPS4_
_Oi:__ZN15dense_hashtableINSt3__24pairIK10KeyWrapperIPK22Il2CppGenericParameterEP11Il2CppClassEES6_N6il2cpp5utils11PointerHashIS4_EEN14dense_hash_mapIS6_S9_SE_NS6_14EqualsComparerINS0_8equal_toIS5_EEEENS0_9allocatorISA_EEE9SelectKeyESJ_SL_E15insert_noresizeERKSA_
gze:_Transform_1_Invoke_m2468053724_gshared
VHg:__Z51RuntimeInvoker_Void_t1185182177_TimeSpan_t881159249PFvvEPK10MethodInfoPvPS4_
GOb:__ZNSt3__211__sift_downIR17ROSorterDepthPassP15RODataDepthPassEEvT0_S5_T_NS_15iterator_traitsIS5_E15difference_typeES5_
Vti:_Reference_get_CapturingGroup_m3861468528
W$a:__ZN18UnityPropertySheet11UnityTexEnvC2Ev
oec:__ZNSt3__214__split_bufferIPN9BlobWrite11TypeContextENS_9allocatorIS3_EEE10push_frontERKS3_
iwd:_ArgumentException__ctor_m3200406061
yA:__ZN8Animator17ApplyOnAnimatorIKEiRNS_11AnimatorJobE
l1:__ZN12FileAccessor4ReadEyyPvPy
Isf:_EncoderExceptionFallback__ctor_m3745979420
Z6g:_List_1_set_Capacity_m2777925136_gshared
qXb:__ZN13RenderTexture9SetHeightEi
mu:__ZN7mecanim9animation17ClearMotionOutputEPNS0_18AnimationNodeStateE
Wae:_CipherSuiteCollection_get_IsFixedSize_m3127823890
yXa:__ZN16LevelGameManager8TransferI24GenerateTypeTreeTransferEEvRT_
Zse:_InternalEnumerator_1_System_Collections_IEnumerator_get_Current_m3537550566_gshared
zWe:_Scrollbar_UpdateVisuals_m2492252165
foi:_PKCS12_get_Keys_m2165478388
Dcj:__ZN6il2cpp6icalls8mscorlib6System2IO6MonoIO17GetFileAttributesEP12Il2CppStringPi
J3d:_HMACMD5__ctor_m3008609295
xvf:_DateTime__ParseAmPm_m3478436123
bwf:_DateTime_ToString_m2992030064_AdjustorThunk
dEc:_tt_cmap8_char_index
V_:__Z24scripting_class_get_name17ScriptingClassPtr
XVd:_Stream_WriteByte_m1519852120
uEi:_VerticalLayoutGroup_CalculateLayoutInputHorizontal_m1404590745
bca:__ZN13RuntimeStaticI15GUIEventManagerLb0EE13StaticDestroyEPv
PZd:_ShortComparer_Compare_m1881262465
cqb:__Z29Transfer_Blittable_ArrayFieldI14SafeBinaryReadjEvRT_R9ArrayInfoRK23StaticTransferFieldInfo
LZg:__Z53RuntimeInvoker_Keyframe_t4206410242_Int32_t2950945753PFvvEPK10MethodInfoPvPS4_
ee:_emscripten_set_keydown_callback
f5f:_EncoderReplacementFallback__ctor_m1483565116
dhf:_Interpreter_IsWordChar_m2858055765
aHd:_Hashtable_CopyTo_m2905447224
t1:__ZN12FileAccessorC2Ev
lYf:_EqualityComparer_1_System_Collections_IEqualityComparer_Equals_m3855544238_gshared
SBc:_otv_u_O_O_u_O_O
qy:__ZThn152_NK26AnimatorControllerPlayable25GetStateMachineBehavioursEv
Rji:_EventFunction_1_Invoke_m2429482587_gshared
Lbf:_AsnEncodedData_SubjectAltName_m4049949414
gZi:__ZN6il2cpp2vm7Runtime12GetConfigDirEv
tEi:_VerticalLayoutGroup__ctor_m321345421
_q:__ZN4PPtrI13MonoBehaviourE8TransferI18StreamedBinaryReadILb0EEEEvRT_
x0f:_Enumerator_MoveNext_m1177880931_AdjustorThunk
$Ze:_Slider_UpdateVisuals_m3662961057
COh:__ZL82Event_t2956885303_CustomAttributesCacheGenerator_Event_get_commandName_m4275147343P21CustomAttributesCache
rLi:_TextGenerator_Populate_m194003733
EFh:__ZL111ScriptableObject_t2528358522_CustomAttributesCacheGenerator_ScriptableObject_CreateInstanceFromType_m1997111014P21CustomAttributesCache
mhd:_DerivedType_get_FullName_m1025358827
P1d:_CryptoConfig_MapNameToOID_m2044758263
LVh:__ZL70InputField_t3762917431_CustomAttributesCacheGenerator_m_OnValueChangedP21CustomAttributesCache
pHb:__ZN13RenderManager22OnWindowSizeHasChangedEv
NEb:__Z39WriteQueueForTransferSignatureIntoCacheRK31TransferFunctionScriptingTraitsRK24TransferRequestSignature17ScriptingClassPtrR23CachedSerializationDataRb
Ygb:__ZN13RenderManager18UpdateAllRenderersEv
u6f:_Encoding_get_UTF8UnmarkedUnsafe_m320312322
qag:_Thread_Thread_free_internal_m333849022
Wqc:__Z35Transfer_Blittable_FixedBufferFieldI9JSONWritexEvRK29SerializationCommandArgumentsR31RuntimeSerializationCommandInfo
nqi:_CostDelegate_BeginInvoke_m2828452701
NSc:__ZN22BaseUnityConnectClient30OnEnteringStatePausedOrStoppedEv
Hgh:_Collection_1_ConvertItem_m1556170494_gshared
Au:__ZN7mecanim5human12HumanPoseAddERNS0_9HumanPoseERKS1_S4_
Xtf:_DateTime_ToUniversalTime_m1945318289
yDd:_ArrayList_ToArray_m3827492363
r_e:_Slider_get_stepSize_m1423227661
Bgg:_UInt64_Parse_m819899889
Vkf:_SymmetricAlgorithm_set_IV_m3196220308
Ejd:_GenericTypeParameterBuilder_GetHashCode_m852224381
eMd:_Convert_ToUInt32_m1453583008
WDf:_CompareInfo_Compare_m894311506
XQa:__Z24MergeTransformComponentsR9TransformS0_b
VSi:__ZNK15dense_hashtableI10KeyWrapperIPK19Il2CppGenericMethodES4_N6il2cpp8metadata23Il2CppGenericMethodHashEN14dense_hash_setIS4_S7_NS4_14EqualsComparerINS6_26Il2CppGenericMethodCompareEEENSt3__29allocatorIS4_EEE8IdentityESB_SE_E10test_emptyEj
o_c:_EventSystem_UpdateModules_m3643806022
Bmj:__ZN6il2cpp2gc16GarbageCollector10StartWorldEv
vNi:_AnimationOffsetPlayable__cctor_m1029460816
RFh:__ZL86Camera_t4157153871_CustomAttributesCacheGenerator_Camera_get_targetTexture_m2278634983P21CustomAttributesCache
Smf:_Evidence_get_SyncRoot_m2835084965
IJf:_SetPropertyUtility_SetStruct_TisTouchScreenKeyboardType_t1530597702_m2455393348_gshared
uUf:_DefaultComparer__ctor_m2280347240_gshared
mwh:__ZL59ICryptoTransform_t2733259762_CustomAttributesCacheGeneratorP21CustomAttributesCache
Ioj:__ZN6il2cpp2vm13ComObjectBase19GetRuntimeClassNameEPP15Il2CppHString__
wJd:_Convert_ToBoolean_m2833489984
Rj:_emscripten_glVertexAttribPointer
tCj:__ZNSt11logic_errorD0Ev
NVa:__ZNK20IntermediateRenderer12GetSceneMaskEv
AHb:__ZN14PreloadManager26UpdatePreloadingSingleStepENS_21UpdatePreloadingFlagsEi
wki:_TweenRunner_1__ctor_m340723704_gshared
fZe:_ScrollRect_SetLayoutHorizontal_m3078869633
F0e:_SimpleCollator__ctor_m1587210019
mic:__Z57Register_UnityEngine_RectTransform_INTERNAL_set_anchorMinv
aMd:_Convert_ToUInt16_m1480956416
Uya:__ZN6prcoreL25inner_stretch_i8_bilinearEPKNS_9InnerInfoE
qib:__ZL30RegisterFilteredObjectCallbackPP12Il2CppObjectiPv
Oci:_ReadOnlyCollection_1_System_Collections_Generic_IListU3CTU3E_RemoveAt_m3317217538_gshared
eOh:__ZL54AudioSource_t3935305588_CustomAttributesCacheGeneratorP21CustomAttributesCache
SHb:__Z19InitializeGfxDevicev
lS:__ZN11UnityEngine15CloudWebService16SessionContainer24GetSessionHeaderJsonDataERKN4core12basic_stringIcNS2_20StringStorageDefaultIcEEEERNS2_13StringBuilderE
Rgd:_DerivedType_GetEvent_m4157575360
Pba:__ZN13RuntimeStaticI21AssetReferenceStorageLb0EE13StaticDestroyEPv
T0d:_SByte_System_IConvertible_ToType_m4075253447_AdjustorThunk
mGd:_Comparer__ctor_m2831654082
UQf:_Array_InternalArray__set_Item_TisKeyValuePair_2_t2530217319_m258011711_gshared
sTg:__Z72RuntimeInvoker_Bounds_t2266837910_RuntimeObject_Matrix4x4U26_t3606180965PFvvEPK10MethodInfoPvPS4_
wkj:__ZN6il2cpp6icalls8mscorlib6System9AppDomain22InternalGetProcessGuidEP12Il2CppString
byc:_cf2_builder_moveTo
rDi:_StaticInfo_set_NextScene_m1861681287
JAh:__ZL79Convert_t2465617642_CustomAttributesCacheGenerator_Convert_ToUInt32_m3188121845P21CustomAttributesCache
UCg:__Z48RuntimeInvoker_RuntimeObject_Decimal_t2948259380PFvvEPK10MethodInfoPvPS4_
Gag:_ThreadStart_EndInvoke_m3768045394
rNa:__ZNK17FileSystemHandler10IsReadOnlyERK13FileEntryData
_Xi:__ZNSt3__214__split_bufferIP9FieldInfoRNS_9allocatorIS2_EEEC2EjjS5_
W$d:_StreamingContext__ctor_m2604757771_AdjustorThunk
zub:__Z18Transfer_BlittableI24GenerateTypeTreeTransferLb1EjEvRK29SerializationCommandArgumentsR31RuntimeSerializationCommandInfo
h3i:__ZNK15dense_hashtableINSt3__24pairIK10KeyWrapperINS1_IPK11Il2CppImageP11Il2CppClassEEEjEES9_17ReflectionMapHashIS8_EN14dense_hash_mapIS9_jSD_NS9_14EqualsComparerINS0_8equal_toIS8_EEEENS0_9allocatorISB_EEE9SelectKeyESI_SK_E10test_emptyERK30dense_hashtable_const_iteratorISB_S9_SD_SM_SI_SK_E
YOi:__ZN6il2cpp2os12FastAutoLockD2Ev
irh:__ZL68AssemblyCopyrightAttribute_t836190902_CustomAttributesCacheGeneratorP21CustomAttributesCache
W6:__ZN11ColorRGBA328TransferI14SafeBinaryReadEEvRT_
Mch:_Collection_1_Add_m1736908447_gshared
kAc:_cff_vstore_done
gOg:__Z68RuntimeInvoker_Void_t1185182177_UInt16_t2177724958_SByte_t1669577662PFvvEPK10MethodInfoPvPS4_
hfb:__ZN15ResourceManager10Dependency8TransferI24GenerateTypeTreeTransferEEvRT_
g4d:_MACTripleDES_HashFinal_m3613553534
Xfg:_UInt64_System_IConvertible_ToChar_m2074245892
F8f:_UTF8Encoding_InternalGetBytes_m1965760031
Jf:_emscripten_glClearDepth
V6b:__ZNK8GUILayer22GetTypeVirtualInternalEv
r5a:__ZN14SafeBinaryRead21TransferSTLStyleArrayINSt3__26vectorIN15QualitySettings14QualitySettingENS1_9allocatorIS4_EEEEEEvRT_17TransferMetaFlags
Zhi:_UnityAction_1__ctor_m3007623985_gshared
MIi:__ZL25UnresolvedVirtualCall_151P12Il2CppObject39CustomAttributeNamedArgument_t287865710S1_PK10MethodInfo
SVg:__Z56RuntimeInvoker_Boolean_t97287965_ILTokenInfo_t2325775114PFvvEPK10MethodInfoPvPS4_
gdb:__ZNSt3__26vectorINS_4pairIPKN5Unity4TypeE7Hash128EENS_9allocatorIS7_EEE8__appendEj
nAc:_cff_font_load
alj:__GLOBAL__sub_I_LibraryLoader_cpp
Kcc:__Z13IsPathCreatedRKN4core12basic_stringIcNS_20StringStorageDefaultIcEEEE
xUh:__ZL99Dropdown_t2274391225_CustomAttributesCacheGenerator_Dropdown_DelayedDestroyDropdownList_m2082128994P21CustomAttributesCache
zya:__ZL22stbir__encode_scanlineP11stbir__infoiPvPfiii
t8i:_il2cpp_method_get_param_count
Mrd:_ExternalException__ctor_m2877839282
fxc:__ZN20QuadTreeNodeRenderer13StaticDestroyEPv
hT:__ZN11UnityEngine15CloudWebService20WebRequestRestClient5AbortEv
nti:_Regex_Matches_m2080913806
_3b:__ZN9Transform12CleanupClassEv
Ewg:_Sprite_get_rect_m2575211689
opg:_Mathf_Sin_m3411839043
tLc:_UNITY_FT_Set_Pixel_Sizes
rdd:_OperatingSystem_Clone_m1122165140
s5h:_GameObject_AddComponent_TisRuntimeObject_m3469369570_gshared
aka:__ZNSt3__26vectorIN9ShaderLab19SerializedSubShaderENS_9allocatorIS2_EEE26__swap_out_circular_bufferERNS_14__split_bufferIS2_RS4_EE
dA:__ZN11UnityEngine9Animation33SetGenericTransformPropertyValuesERKNS0_30AnimatorGenericBindingConstantERKN7mecanim10ValueArrayEP9Transformy
pzh:__ZL59AttributeTargets_t1784037988_CustomAttributesCacheGeneratorP21CustomAttributesCache
eeh:_Collection_1_System_Collections_IList_get_Item_m3426129749_gshared
Haj:__ZN6il2cpp2vmL24thread_cleanup_on_cancelEPv
b3g:_List_1_RemoveAll_m3165362277_gshared
_cg:_Type_type_is_subtype_of_m1406623598
QKf:_Array_InternalArray__IEnumerable_GetEnumerator_TisRaycastResult_t3360306849_m3650537473_gshared
e9f:_Thread_get_CurrentThread_m4142136012
dWa:__Z30ProcessDynamicBatchGeometryJobP25DynamicVBOGeometryJobDataj
aPb:__ZNSt3__27__sort4IRNS_6__lessI11CulledLightS2_EEPS2_EEjT0_S6_S6_S6_T_
R_i:__ZN6il2cpp2vm14TypeNameParser26ParseArrayModifierOptionalEv
QZ:__Z26scripting_object_get_class18ScriptingObjectPtr
Gbj:__ZN6il2cpp6icalls8mscorlib6System10Reflection8Assembly13get_code_baseEP24Il2CppReflectionAssemblyb
Tfb:__ZNSt3__26vectorIN4core12basic_stringIcNS1_20StringStorageDefaultIcEEEE13stl_allocatorIS5_L18MemLabelIdentifier13ELi16EEE7reserveEj
X2d:_DSASignatureDeformatter__ctor_m2889130126
Tef:_X509ChainElementCollection_Clear_m2271223414
D3b:__ZNK28MonoBehaviourPropertyBinding15GenerateBindingERKN4core12basic_stringIcNS0_20StringStorageDefaultIcEEEEbRN11UnityEngine9Animation14GenericBindingE
gvg:_RectTransform_INTERNAL_set_pivot_m1160676233
Z7g:_List_1_set_Item_m35836043_gshared
cXh:__ZL70ScrollRect_t4137855814_CustomAttributesCacheGenerator_m_OnValueChangedP21CustomAttributesCache
Kef:_X509ChainElementCollection__ctor_m3424079155
vqi:_LinkStack_Push_m3081279930
Lxe:_Enumerator_MoveNext_m1107569389_gshared
$Xi:__ZNSt3__26vectorIP9FieldInfoNS_9allocatorIS2_EEE26__swap_out_circular_bufferERNS_14__split_bufferIS2_RS4_EE
Mji:_UnityEvent_3_GetDelegate_m1156357290_gshared
Jmj:__ZN6il2cpp6icalls8mscorlib6System11Environment15internalGetHomeEv
yoe:_InternalEnumerator_1__ctor_m4200721464_gshared
Ppg:_Matrix4x4_GetHashCode_m4034747639_AdjustorThunk
Pqd:_ResourceCacheItem_t51292791_marshal_pinvoke_cleanup
fX:__ZNK5Unity9Component7GetNameEv
DYi:__ZNSt3__214__split_bufferIN6il2cpp6icalls8mscorlib6System12PropertyPairERNS_9allocatorIS5_EEEC2EjjS8_
Ykf:_SymmetricAlgorithm_get_KeySize_m4185004893
a1g:_List_1_GetEnumerator_m232588170_gshared
nTe:_U3CDelayedSetDirtyU3Ec__Iterator0_Reset_m160466733
clg:_Native__cctor_m1435623442
o6g:_List_1_System_Collections_IList_Remove_m1070694895_gshared
Kxi:_LayoutCache__ctor_m3885940174
V5a:__ZN13ScreenManagerD0Ev
nNi:_AnimationMotionXToDeltaPlayable_GetHandle_m1319190040_AdjustorThunk
qB:__ZN7mecanim8skeleton26SkeletonPoseComputeGlobalQEPKNS0_8SkeletonEPKNS0_13SkeletonPoseTIN4math4trsXEEEPS7_ii
Wfg:_UInt64_System_IConvertible_ToByte_m1501504925_AdjustorThunk
kLi:_TextGenerator_Invalidate_m1072346986
Ide:_TlsClientHello_ProcessAsTls1_m2549285167
v$g:__Z74RuntimeInvoker_Boolean_t97287965_UIVertex_t4057497605_UIVertex_t4057497605PFvvEPK10MethodInfoPvPS4_
Jai:_ReadOnlyCollection_1_System_Collections_IList_Clear_m3591436538_gshared
OXe:_ScrollRect_set_decelerationRate_m723367336
SA:__ZN9BlobWrite8TransferI22OffsetPtrArrayTransferIiEEEvRT_PKc17TransferMetaFlags
Lsf:_EncoderExceptionFallback_Equals_m2760188920
Nsb:__Z18Transfer_BlittableI17RemapPPtrTransferLb1EjEvRK29SerializationCommandArgumentsR31RuntimeSerializationCommandInfo
fif:_RIPEMD160Managed_HashCore_m2350629432
TJ:__ZN4FMOD6System7releaseEv
xwb:__Z18Transfer_BlittableI19StreamedBinaryWriteILb0EELb1E8BitFieldEvRK29SerializationCommandArgumentsR31RuntimeSerializationCommandInfo
aAd:_Boolean_CompareTo_m3665076258
$pf:_String_Split_m3580120853
T5e:_PrivateKeyInfo__ctor_m2811023496
Q0:__Z18PathToAbsolutePathRKN4core12basic_stringIcNS_20StringStorageDefaultIcEEEE
mld:_PropertyBuilder_GetCustomAttributes_m2917594003
Fyi:_GUILayoutUtility_LayoutFromEditorWindow_m2914699782
y5d:_BigInteger_SetBit_m1723423691
CUg:__Z78RuntimeInvoker_RuntimeObject_ObjectU26_t2146539884_RuntimeObject_RuntimeObjectPFvvEPK10MethodInfoPvPS4_
hoh:__ZL65X509ExtensionCollection_t609554708_CustomAttributesCacheGeneratorP21CustomAttributesCache
bya:__ZL13BlitImageImplR14ImageReferenceiiRKS_NS_10ColorSpaceENS_8BlitModeEb
w8b:__ZN15DirectorManager17AcquireOutputNodeEv
kAa:__ZN6prcoreL17RemapGenericFloatI18TexFormatRGBAFloat17TexFormatRGBFloatEEvPKNS_9InnerInfoE
v5h:_GameObject_GetComponentInChildren_TisRuntimeObject_m1310240902_gshared
u_h:__ZL121U3CCrossFadeOutU3Ec__Iterator0_t1177697815_CustomAttributesCacheGenerator_U3CCrossFadeOutU3Ec__Iterator0_Reset_m957141427P21CustomAttributesCache
BLh:__ZL69PersistentCall_t3407714124_CustomAttributesCacheGenerator_m_ArgumentsP21CustomAttributesCache
YGa:__ZN16GeometryJobTasks20ScheduleGeometryJobsER9GfxDevicePFvP15GeometryJobDataEPK22GeometryJobInstructionjb
Wde:_TlsServerCertificateRequest_ProcessAsSsl3_m1084200341
YH:__ZN12AudioManager29ShutdownReinitializeAndReloadEv
gYa:__ZN16ReflectionProbes28GetMinBakedCubemapResolutionEv
L9a:__ZN14BlendShapeData8TransferI14SafeBinaryReadEEvRT_
Hze:_Enumerator__ctor_m1849900510_gshared
Snj:__GLOBAL__sub_I_String_cpp
XOi:__ZN15dense_hashtableINSt3__24pairIK10KeyWrapperIPK22Il2CppGenericParameterEP11Il2CppClassEES6_N6il2cpp5utils11PointerHashIS4_EEN14dense_hash_mapIS6_S9_SE_NS6_14EqualsComparerINS0_8equal_toIS5_EEEENS0_9allocatorISA_EEE9SelectKeyESJ_SL_E6insertERKSA_
nRe:_InputField_GenerateCaret_m1459647218
aKh:__ZL101SpriteAtlasManager_t3158462485_CustomAttributesCacheGenerator_SpriteAtlasManager_Register_m2413332465P21CustomAttributesCache
Zni:_X509CertificateEnumerator__ctor_m85694331
Yta:__ZN14DataBufferGLES16RecreateWithDataEjPKv
K2:__Z29GetGlobalAllowNameConversionsv
EPf:_Array_InternalArray__Insert_TisTableRange_t3332867892_m558285859_gshared
WYb:__ZN8Material8SetColorEN9ShaderLab16FastPropertyNameERK10ColorRGBAf
eSh:__ZL77ExecuteEvents_t3484638744_CustomAttributesCacheGenerator_U3CU3Ef__mgU24cacheFP21CustomAttributesCache
d2f:_Enumerator_System_Collections_IEnumerator_Reset_m3754523291_gshared
jLj:_glUniform3uiv__wrapper
Azh:__ZL77Convert_t2465617642_CustomAttributesCacheGenerator_Convert_ToByte_m2375887898P21CustomAttributesCache
RL:__ZN11AudioSource23VirtualRedirectTransferER18StreamedBinaryReadILb0EE
ftg:_RangeInt_get_end_m4128831787
Sba:__ZN21AssetReferenceStorageC2Ev
Bhi:_InvokableCall_1_Find_m1741895083_gshared
cxb:__ZN10RectOffset8TransferI19StreamedBinaryWriteILb0EEEEvRT_
CDj:dynCall_iiifiii
Z_:__ZL41AssemblyNameMatchesWithOrWithoutExtensionPKcS0_
g5g:_List_1_set_Item_m2082115010_gshared
M5f:_Encoding_GetBytes_m3735967069
Ixd:_Array_Initialize_m3004991267
yDa:__ZN14GfxContextGLES43AddRenderSurfaceToDeferredFBOInvalidateListEPK17RenderSurfaceGLES
gcj:__ZN6il2cpp6icalls8mscorlib6System9Threading6Thread15Thread_internalEP12Il2CppThreadP14Il2CppDelegate
ooa:__ZN11NamedObject23VirtualRedirectTransferER14SafeBinaryRead
l$e:_Text_get_resizeTextMinSize_m1002355407
iLc:__ZNSt3__26vectorIN20TextRenderingPrivate8FontImpl13CharacterInfoE13stl_allocatorIS3_L18MemLabelIdentifier1ELi16EEE6insertENS_11__wrap_iterIPKS3_EERS9_
iLa:__ZN23PreloadManagerOperation6IsDoneEv
M1g:_List_1_GrowIfNeeded_m3796726_gshared
p2i:__ZNK15dense_hashtableINSt3__24pairIK10KeyWrapperINS1_IPK10MethodInfoP11Il2CppClassEEEjEES9_17ReflectionMapHashIS8_EN14dense_hash_mapIS9_jSD_NS9_14EqualsComparerINS0_8equal_toIS8_EEEENS0_9allocatorISB_EEE9SelectKeyESI_SK_E8min_sizeEjj
ioj:__ZN6il2cpp5utils11StringUtils11Utf16ToUtf8ERKNSt3__212basic_stringIDsNS2_11char_traitsIDsEENS2_9allocatorIDsEEEE
Y7d:_MD4Managed_Decode_m4273685594
hKg:__Z50RuntimeInvoker_Int64_t3736567304_Int16_t2552820387PFvvEPK10MethodInfoPvPS4_
Ahb:__ZN21LightProbeProxyVolume18HasHardwareSupportEv
$Rb:__ZN26LightProbeProxyVolumeCacheC2ER13BatchRendererR15RenderLoopStats
Pya:__ZN6prcoreL31inner_stretch_argb8888_bilinearEPKNS_9InnerInfoE
zyb:__Z18Transfer_BlittableI18StreamedBinaryReadILb1EELb1E8BitFieldEvRK29SerializationCommandArgumentsR31RuntimeSerializationCommandInfo
E5:__ZNK4PPtrI11LightProbesEcvPS0_Ev
MEc:_UNITY_FT_Outline_Decompose
fQd:_Int64_System_IConvertible_ToChar_m1509243576_AdjustorThunk
jni:_GeneralNames_get_IPAddresses_m4242915644
pzf:_Decimal_op_Implicit_m3873897383
i0f:_Enumerator_Dispose_m3500272053_AdjustorThunk
Ksj:_GC_init_size_map
iTa:__Z20scripting_object_new17ScriptingClassPtr
tmh:__ZL69RuntimeArray_CustomAttributesCacheGenerator_Array_Reverse_m3714848183P21CustomAttributesCache
e6e:_KeyGeneratedEventHandler_Invoke_m2527485594
Fcf:_X509Extension_set_Critical_m1180944253
r1i:__ZN24dense_hashtable_iteratorINSt3__24pairIK10KeyWrapperINS1_IPK9FieldInfoP11Il2CppClassEEEjEES9_17ReflectionMapHashIS8_EN14dense_hash_mapIS9_jSD_NS9_14EqualsComparerINS0_8equal_toIS8_EEEENS0_9allocatorISB_EEE9SelectKeyESI_SK_E30advance_past_empty_and_deletedEv
mvi:_Repetition_get_Expression_m2673886232
xxf:_Decimal__ctor_m1925875020_AdjustorThunk
ANe:_SerializationCallbacks__ctor_m3863304525
pLa:__ZN23PreloadManagerOperation21MustCompleteNextFrameEv
Bvh:__ZL59SerializationInfo_t950877179_CustomAttributesCacheGeneratorP21CustomAttributesCache
P:Math_exp
vjg:_Vector3_Min_m1803158933
Do:FUNCTION_TABLE_iiifi
fkj:__ZN6il2cpp2os5posix13PosixAutoLockD2Ev
qmi:_TlsServerSettings_set_CertificateTypes_m2047242411
Lzi:_SymmetricTransform_OFB_m3690147804
gse:_InternalEnumerator_1_MoveNext_m3713722659_AdjustorThunk
Kxc:_cff_get_advances
hEb:__ZN13MonoBehaviour9SetScriptERK4PPtrI10MonoScriptE18ScriptingObjectPtr
I_i:_RaycastHit2D_get_collider_m1549426026
Wrb:__Z18Transfer_BlittableI17RemapPPtrTransferLb0E8Vector2fEvRK29SerializationCommandArgumentsR31RuntimeSerializationCommandInfo
gfj:__ZNSt3__218uninitialized_copyIPNS_4pairIK10KeyWrapperIP14Il2CppIUnknownEjEES8_EET0_T_SA_S9_
eZg:__Z77RuntimeInvoker_Void_t1185182177_Vector2U5BU5DU26_t476646542_Int32_t2950945753PFvvEPK10MethodInfoPvPS4_
u7e:_PKCS12_get_RNG_m2649456600
BMa:__ZNK10FileSystem16LastErrorMessageEv
HQf:_Array_InternalArray__Insert_TisVector3_t3722313464_m3862657277_gshared
mKh:__ZL104NativeClassAttribute_t2601352714_CustomAttributesCacheGenerator_U3CQualifiedNativeNameU3Ek__BackingFieldP21CustomAttributesCache
knf:_SecurityException__ctor_m1631242336
YQi:__ZN15dense_hashtableINSt3__24pairIK10KeyWrapperIPK11Il2CppClassEPKcEES6_N6il2cpp5utils11PointerHashIS3_EEN14dense_hash_mapIS6_S9_SE_NS6_14EqualsComparerINS0_8equal_toIS5_EEEENS0_9allocatorISA_EEE9SelectKeyESJ_SL_E14squash_deletedEv
p$c:_EventSystem_Update_m1662072334
XYc:__ZN22UnityWebRequestManager10InitializeEv
yDb:__ZN13MonoBehaviour13AwakeFromLoadE17AwakeFromLoadMode
Yph:__ZL51FileMode_t1183438340_CustomAttributesCacheGeneratorP21CustomAttributesCache
Gsb:__ZL26Transfer_SimpleNativeClassI17RemapPPtrTransfer8GradientLb1EEvRK29SerializationCommandArgumentsR31RuntimeSerializationCommandInfo
T_c:_RaycasterManager_RemoveRaycasters_m3057093063
H9b:__ZN12CachedWriter9InitWriteER15CacheWriterBase
l8b:__Z21UnsignedInt64ToStringy
_Ve:_GetRaycastNonAllocCallback_BeginInvoke_m3984885848
Ome:_InternalEnumerator_1_MoveNext_m4138204635_AdjustorThunk
xri:_PatternCompiler_BeginLink_m1295557963
IRa:__ZN14SafeBinaryRead21TransferSTLStyleArrayI13dynamic_arrayI17SortingLayerEntryLj4EEEEvRT_17TransferMetaFlags
qwh:__ZL46MD5_t3177620429_CustomAttributesCacheGeneratorP21CustomAttributesCache
EMd:_GuidParser_ThrowFormatException_m3223388534
Mui:_Group_GetAnchorInfo_m3730312864
_Uh:__ZL50Graphic_t1660335611_CustomAttributesCacheGeneratorP21CustomAttributesCache
rcg:_TimeSpan_op_LessThanOrEqual_m300470010
NGe:_ContextAttribute_Freeze_m3288175579
Qhf:_Interval_Merge_m3454211016_AdjustorThunk
Nda:__ZZN15DirectorManager15InitializeClassEvEN41FixedUpdateDirectorFixedUpdateRegistrator7ForwardEv
_Ud:_MemoryStream_get_Position_m3733941202
uHh:__ZL96TouchScreenKeyboard_t731888065_CustomAttributesCacheGenerator_TouchScreenKeyboard_Open_m43950298P21CustomAttributesCache
zEi:_AudioClipPlayable_Equals_m3705880618
q0b:__ZL10KeyHandleriPK23EmscriptenKeyboardEventPv
JHd:_Slot_t3975888750_marshal_pinvoke
xMj:_glLinkProgram__wrapper
wkb:__ZN18ScriptingArguments8AddInt64Ex
xza:__ZN6prcoreL12RemapGenericI17TexFormatARGB888815TexFormatBGR888EEvPKNS_9InnerInfoE
blb:__ZN12HandlerChain4LockER13FileEntryData12FileLockMode
dGf:_TextInfo_get_ListSeparator_m1628160079
XRh:__ZL77ExecuteEvents_t3484638744_CustomAttributesCacheGenerator_U3CU3Ef__mgU24cache6P21CustomAttributesCache
GZe:_Selectable_OnCanvasGroupChanged_m472903475
n9f:_EventWaitHandle_Reset_m3348053200
aAe:_Enumerator_get_Current_m2897627569_gshared
JWc:__ZN28UnityConnectScriptingClasses23CallSessionStateChangedEixxbP21ScriptingExceptionPtr
ibe:_ClientContext_get_SslStream_m1583577309
Aej:__ZN6il2cpp6icalls8mscorlib6System13Globalization11CultureInfo35construct_internal_locale_from_nameEP17Il2CppCultureInfoP12Il2CppString
Oub:__ZL22Transfer_ManagedObjectI24GenerateTypeTreeTransferLb1EEvRK29SerializationCommandArgumentsR31RuntimeSerializationCommandInfo
SBg:__Z100RuntimeInvoker_Boolean_t97287965_RuntimeObject_Int32_t2950945753_RuntimeObject_UInt16U26_t2814738322PFvvEPK10MethodInfoPvPS4_
AZg:__Z56RuntimeInvoker_ILTokenInfo_t2325775114_Int32_t2950945753PFvvEPK10MethodInfoPvPS4_
r3d:_HMAC_get_BlockSizeValue_m455678067
GMb:__ZN15RenderNodeQueueC2E10MemLabelId
Kqd:_ResourceEnumerator_FillCache_m1661715061
Lai:_ReadOnlyCollection_1_System_Collections_IList_IndexOf_m3664838805_gshared
Cxh:__ZL72SecuritySafeCriticalAttribute_t3505979402_CustomAttributesCacheGeneratorP21CustomAttributesCache
Zj:_emscripten_set_main_loop_timing
jjg:_Bounds_get_min_m3755135869
VLd:_Convert_ToUInt16_m3523269149
Xig:_Bounds_get_center_m1418449258
sva:__ZN14DataBufferGLES12RecordRenderEv
o0c:_ExecuteEvents_get_endDragHandler_m2879610446
DYb:__ZN14ImageReference10FlipImageYEv
GZi:_UsedByNativeCodeAttribute__ctor_m2647015777
zSa:__Z32TransferEnumWithNameForceIntSizeI14SafeBinaryRead13TargetEyeMaskEvRT_RT0_PKc17TransferMetaFlags
inc:__Z14GetDefaultSkini
iF:__ZN4FMOD3DSP9setBypassEb
j0b:__Z19NormalizeWheelInputf
wad:_Graphic_DoMeshGeneration_m3548487693
g$b:__Z29StdTemplateConversionFunctionIsaEbPvR14SafeBinaryRead
sy:__ZNK4PPtrI13MonoBehaviourEcvPS0_Ev
Lsi:_Repetition__ctor_m1672362629
hwc:__Z29Transfer_Blittable_ArrayFieldI8JSONReadhEvRT_R9ArrayInfoRK23StaticTransferFieldInfo
nof:_SecurityFrame_ToString_m339310712_AdjustorThunk
Fld:_TypeBuilder_create_runtime_class_m2581270900
Ske:_InternalEnumerator_1_get_Current_m3008260692_gshared
ixj:__ZN6il2cpp2os20ThreadLocalValueImpl8SetValueEPv
MTa:__ZN22RenderingCommandBuffer20CleanupCommandBufferEv
rzf:_Decimal_op_Implicit_m2299919277
Yqc:__Z18Transfer_BlittableI9JSONWriteLb1EtEvRK29SerializationCommandArgumentsR31RuntimeSerializationCommandInfo
WXd:_UnexceptionalStreamReader_ReadToEnd_m920589220
Ttf:_DateTime_System_IConvertible_ToType_m1242864300
yqf:_String_IndexOf_m1298810678
rk:___syscall85
KOh:__ZL85GUI_t1624858472_CustomAttributesCacheGenerator_GUI_set_nextScrollStepTime_m1026410471P21CustomAttributesCache
M5h:_Mesh_GetAllocArrayFromChannel_TisVector3_t3722313464_m2332439905_gshared
FJi:__ZL25UnresolvedVirtualCall_198P12Il2CppObjectfPK10MethodInfo
LMb:__ZNSt3__26__sortIRPFbP10GUIElementS2_EPS2_EEvT0_S7_T_
$6b:__ZN16GraphicsSettings12CleanupClassEv
Bgd:_ConstructorBuilder_GetILGenerator_m1750792206
h5f:_EncoderFallback_get_ReplacementFallback_m818398284
Ykj:__ZN6il2cpp2os6Thread19DetachCurrentThreadEv
K$c:_EventTrigger_OnBeginDrag_m4203438710
rPi:__ZN6il2cpp2vmL21SetupInterfacesLockedEP11Il2CppClassRKNS_2os12FastAutoLockE
I5e:_PKCS1_Sign_v15_m2719206817
_2h:_Dictionary_2_Do_CopyTo_TisRuntimeObject_TisRuntimeObject_m2344529027_gshared
rz:__ZN23AnimationPlayableOutput17SetSourcePlayableEP8Playable
zmj:__ZN6il2cpp2gc16GarbageCollector22MakeDescriptorForArrayEv
x_g:__Z37RuntimeInvoker_UILineInfo_t4195266810PFvvEPK10MethodInfoPvPS4_
ilg:_CullingGroup_Dispose_m782801025
kTf:_Dictionary_2_System_Collections_IDictionary_GetEnumerator_m529247385_gshared
hS:__ZN11UnityEngine15CloudWebService14DataDispatcher15SetupWebRequestEv
WTc:__ZN11UnityEngine15PlatformWrapper13GetShaderCapsEv
lUb:__ZNSt3__211__sift_downIR26RenderDeferredObjectSorterP16RenderObjectDataEEvT0_S5_T_NS_15iterator_traitsIS5_E15difference_typeES5_
mjd:_GenericTypeParameterBuilder_IsDefined_m98179866
b5e:_KeyPairPersistence_get_MachinePath_m3812267291
aJd:_Stack_Peek_m2216191248
bli:_ListPool_1_U3Cs_ListPoolU3Em__0_m657844629_gshared
Gtf:_DateTime_System_IConvertible_ToDecimal_m1044850612_AdjustorThunk
J7b:__ZN21FixedBehaviourManager6UpdateEv
ycc:__ZN9Transform9SetParentEPS_NS_15SetParentOptionE
I4:__ZN19ShaderPropertySheet8SetFloatEN9ShaderLab16FastPropertyNameEfNS_8SetFlagsE
rgb:__ZN19RuntimeSceneManager24BeginIntegrateMainThreadEP10UnityScene
Ode:_TlsServerCertificate_ProcessAsSsl3_m1306583193
Ilj:__ZNSt3__2plIcNS_11char_traitsIcEENS_9allocatorIcEEEENS_12basic_stringIT_T0_T1_EERKS9_S6_
XWd:_StringReader_CheckObjectDisposedException_m3796163530
Dja:__ZN9ShaderLab20SerializedSubProgramaSERKS0_
cDj:_roundf
mDe:_Dictionary_2_pick_value_m4268517353_gshared
UAd:_Byte_System_IConvertible_ToSingle_m324484566_AdjustorThunk
czf:_Decimal_op_Explicit_m2848387298
O_f:_KeyValuePair_2_ToString_m1238786018_gshared
Xs:__ZN8Animator15SetPrepareStageEv
JE:__ZN8AnimatorC2E10MemLabelId18ObjectCreationMode
sPi:__ZN6il2cpp2vmL24SetupTypeHierarchyLockedEP11Il2CppClassRKNS_2os12FastAutoLockE
r0b:__ZL11TextHandleriPK23EmscriptenKeyboardEventPv
qKe:_SoapFieldAttribute_get_XmlElementName_m2203304026
FKc:_destroy_face
KIj:_glBlendEquationSeparate__wrapper
vwc:__ZN5physx19PxAllocatorCallbackD2Ev
euj:__ZN6il2cpp6icalls8mscorlib6System8Security12Cryptography24RNGCryptoServiceProvider13RngInitializeEP11Il2CppArray
ZEh:__ZL68UsedByNativeCodeAttribute_t1703770351_CustomAttributesCacheGeneratorP21CustomAttributesCache
_L:__ZN20SoundChannelInstance7setMuteEb
ZBg:__Z81RuntimeInvoker_Void_t1185182177_RuntimeObject_Int32_t2950945753_Int32_t2950945753PFvvEPK10MethodInfoPvPS4_
eYa:__ZN4PPtrI5LightE8TransferI19StreamedBinaryWriteILb0EEEEvRT_
v1g:_List_1__cctor_m972674764_gshared
G$d:_NumberFormatter_NumberToString_m3906556024
yzb:__Z19TransferField_ArrayI18StreamedBinaryReadILb1EE27Converter_SimpleNativeClassI17AnimationCurveTplIfEEEvRK23StaticTransferFieldInfoR31RuntimeSerializationCommandInfoRT0_
Xva:__ZN18GfxFramebufferGLES22MakeCurrentFramebufferENS_7BuiltinE
spj:__ZN6il2cpp2vm12MarshalAlloc4FreeEPv
g7:__ZN12CachedReader4ReadEPvj
lqd:_TypeFilter_EndInvoke_m998903841
Z2c:_StandaloneInputModule_ProcessMouseEvent_m2923582521
sTf:_KeyValuePair_2__ctor_m1794021352_gshared
L1e:_SimpleCollator_MatchesForwardCore_m850743967
$Qb:__Z24CalculateLightShadowFadeRK6CamerafffR8Vector4f
vaa:__ZN19RuntimeSceneManagerD2Ev
SLh:__ZL77DeallocateOnJobCompletionAttribute_t3131681843_CustomAttributesCacheGeneratorP21CustomAttributesCache
kma:__ZN13dynamic_arrayIPN9ShaderLab4PassELj4EE9push_backERKS2_
vDf:_CCGregorianCalendar_GetMonth_m1547203696
xT:__ZN11UnityEngine15CloudWebService25WebRequestDownloadHandler17OnCompleteContentEv
Oya:__ZN6prcore17GetIntegerBlitterE13TextureFormatS0_N14ImageReference8BlitModeE
jsj:_GC_print_block_descr
I2i:__ZN6il2cpp2gc19AppendOnlyGCHashMapINSt3__24pairIPK11Il2CppImageP11Il2CppClassEEP22Il2CppReflectionModule17ReflectionMapHashIS9_ENS2_8equal_toIS9_EEE11TryGetValueERKS9_PSB_
Qph:__ZL51Directory_t828876208_CustomAttributesCacheGeneratorP21CustomAttributesCache
lyd:_SimpleEnumerator_Reset_m2182001888
vWg:__Z86RuntimeInvoker_Int32_t2950945753_Vector2_t2156229523_Vector2_t2156229523_RuntimeObjectPFvvEPK10MethodInfoPvPS4_
sec:__ZN9BlobWrite14ReduceCopyImplERK14ReduceCopyDataj
X8:__ZNSt3__26__treeI19RepeatingLogMessageNS_4lessIS1_EE13stl_allocatorIS1_L18MemLabelIdentifier73ELi16EEE12__find_equalIS1_EERPNS_16__tree_node_baseIPvEESD_RKT_
JP:__ZN11AudioSource18IsPlayingScriptingEv
V4e:_KeyBuilder_IV_m2230195376
AHj:_glShaderSource__wrapper
tOa:__ZN25MultiBlocksMemoryFileData17AdjustBlocksCountEj
Sbj:__ZNSt3__214__split_bufferIN6il2cpp2vm22EmbeddedResourceRecordERNS_9allocatorIS3_EEED2Ev
_Ic:__ZN13TextRendering4Font8TransferI24GenerateTypeTreeTransferEEvRT_
Ura:__ZN9GfxDevice15EndProfileEventEPN9profiling6MarkerE
Jfc:__Z27CullingGroup_CUSTOM_DisposeP12Il2CppObject
Abj:__ZN6il2cpp6icalls8mscorlib6SystemL23CheckWideningConversionEjjj
hXc:__ZNSt3__26vectorIP19BaseConnectSettings13stl_allocatorIS2_L18MemLabelIdentifier6ELi16EEE21__push_back_slow_pathIKS2_EEvRT_
qMb:__ZN13ComputeShader15SetTextureParamEjRKN9ShaderLab16FastPropertyNameE9TextureID16TextureDimension
wue:_Comparer_1__ctor_m319670016_gshared
zm:_glStencilMask
wlj:__ZN6il2cpp2os10ThreadImpl16GetCurrentThreadEv
rod:_MonoMethod_GetBaseDefinition_m2844667474
l0b:__ZN15GUIEventManager10QueueEventERK10InputEvent
cch:_Collection_1_Clear_m1300437781_gshared
zih:_Collection_1_Contains_m1707523067_gshared
urd:_DecimalConstantAttribute__ctor_m3583301917
Neh:_Collection_1_System_Collections_ICollection_get_IsSynchronized_m1640823718_gshared
Lrj:_GC_push_conditional_with_exclusions
gwe:_Enumerator_System_Collections_IDictionaryEnumerator_get_Entry_m2772123357_AdjustorThunk
cJe:_MethodCallDictionary__ctor_m2167303393
RB:__ZN12_GLOBAL__N_121ProcessAnimationBeginER35AnimationPlayableEvaluationConstantR32AnimationPlayableEvaluationInputR33AnimationPlayableEvaluationOutput
Mzh:__ZL80Convert_t2465617642_CustomAttributesCacheGenerator_Convert_ToDecimal_m2858622624P21CustomAttributesCache
prj:_GC_make_disappearing_links_disappear
hAj:_strrchr
Nkg:_Component_GetComponentInParent_m779177818
VEe:__ZN21InterfaceFuncInvoker1IP8String_tS1_E6InvokeEjP11Il2CppClassP12Il2CppObjectS1_
qRf:_Dictionary_2_System_Collections_ICollection_get_SyncRoot_m2069913662_gshared
z3c:_UIBehaviour_IsDestroyed_m3033055982
SMg:__Z109RuntimeInvoker_Void_t1185182177_RuntimeObject_RuntimeObject_SByte_t1669577662_Int32_t2950945753_RuntimeObjectPFvvEPK10MethodInfoPvPS4_
Ayg:_Enumerator_Reset_m39541243
OPe:_InputField_get_readOnly_m3111985574
rYa:__ZN14RenderSettings27UpdateIndirectSpecularColorEv
Pog:_Logger_get_logHandler_m1335645353
heb:__ZN14PlayerSettings8TransferI18StreamedBinaryReadILb0EEEEvRT_
jYi:__ZN6il2cpp6icalls8mscorlib6System8MonoType16GetMethodsByNameEP20Il2CppReflectionTypeP12Il2CppStringibS5_
Suh:__ZL73ObjRef_t2141158884_CustomAttributesCacheGenerator_U3CU3Ef__switchU24map26P21CustomAttributesCache
VSh:__ZL102PointerEventData_t3807901092_CustomAttributesCacheGenerator_PointerEventData_set_pointerId_m1888344330P21CustomAttributesCache
XNh:__ZL88AudioClip_t3680889665_CustomAttributesCacheGenerator_AudioClip_get_ambisonic_m3815052287P21CustomAttributesCache
iTe:_U3CDelayedSetDirtyU3Ec__Iterator0__ctor_m3936335621
M5:__ZN4PPtrI10GameObjectE8TransferI14SafeBinaryReadEEvRT_
gMh:__ZL106PlayableAsset_t3219022681_CustomAttributesCacheGenerator_PlayableAsset_Internal_CreatePlayable_m2550417712P21CustomAttributesCache
G9f:_Monitor_Monitor_wait_m3706677354
c5d:_RijndaelTransform__cctor_m2439033240
IIb:__ZNSt3__27__sort3IRNS_4lessIN22BuiltinResourceManager8ResourceEEEPS3_EEjT0_S7_S7_T_
Wmh:__ZL175U3CGetEnumeratorU3Ec__Iterator0_t1202911786_CustomAttributesCacheGenerator_U3CGetEnumeratorU3Ec__Iterator0_System_Collections_Generic_IEnumeratorU3CTU3E_get_Current_m322251035P21CustomAttributesCache
jGi:__ZL24UnresolvedVirtualCall_14P12Il2CppObject25RSAParameters_t1728406613PK10MethodInfo
vHc:_ps_hints_t2mask
d4h:_LayoutGroup_SetProperty_TisVector2_t2156229523_m2721164497_gshared
NIf:_Array_InternalArray__ICollection_Remove_TisMonoResource_t4103430009_m238733686_gshared
tRd:_IntPtr_ToString_m1831665121
B_e:_Slider_Set_m1476104429
icd:_Image_set_fillClockwise_m2210525152
Tab:__ZN10BlendShape8TransferI19StreamedBinaryWriteILb0EEEEvRT_
OF:__Z32TransferEnumWithNameForceIntSizeI14SafeBinaryReadN10SampleClip8LoadTypeEEvRT_RT0_PKc17TransferMetaFlags
kRd:__Z21il2cpp_codegen_sizeofP11Il2CppClass
HCa:__Z19GetTimeSinceStartupv
Icd:_Image_AddQuad_m2161647989
F_c:_BaseInputModule_DeactivateModule_m856719157
mlj:__ZN6il2cpp2os10ThreadImpl11SetPriorityENS0_14ThreadPriorityE
T1f:_Enumerator_System_Collections_IEnumerator_Reset_m2953002685_gshared
QDg:__Z50RuntimeInvoker_Int64_t3736567304_Int32_t2950945753PFvvEPK10MethodInfoPvPS4_
RGc:_TT_Load_Composite_Glyph
Xra:__ZN9GfxDevice16DeleteTimerQueryEP13GfxTimerQuery
I8g:_List_1_Insert_m1695211546_gshared
LRg:__Z49RuntimeInvoker_Void_t1185182177_Color_t2555686324PFvvEPK10MethodInfoPvPS4_
e$a:__ZN9ShaderLab11shaderprops9GetTexEnvEPK19ShaderPropertySheetS3_NS_16FastPropertyNameE16TextureDimensionb
e3g:_List_1_Sort_m3232912161_gshared
tPb:__ZN29RenderNodeQueuePrepareContextC2Ev
f8i:_il2cpp_gc_disable
Pka:__ZN9ShaderLab20SerializedSubProgram16TextureParameter8TransferI24GenerateTypeTreeTransferEEvRT_
Z2d:_DSASignatureDeformatter_SetKey_m2999549245
Euj:__ZN6il2cpp2os11MutexHandle4WaitEb
gpa:__ZN9GfxDevice19SaveStereoConstantsEv
Duj:__ZN6il2cpp2os11MutexHandle4WaitEj
kdc:__ZL34GetComponentsImplementationRecurseILb1ELi1ELi1EEbR10GameObjectbRK17CompareParametersRK39GetComponentsImplementation_ReturnValue
_Eg:__Z114RuntimeInvoker_Boolean_t97287965_RuntimeObject_RuntimeObject_Int32_t2950945753_Int32_t2950945753_Int32_t2950945753PFvvEPK10MethodInfoPvPS4_
Tfd:_AssemblyBuilder_GetTypes_m3415680380
HAa:__ZN6prcoreL17RemapGenericFloatI15TexFormatRGHalf18TexFormatARGBFloatEEvPKNS_9InnerInfoE
eAf:_StackFrame_GetMethod_m1395840764
EZa:__ZNK13RenderTexture13GetDataHeightEv
NGb:__Z18SimulateMouseInputi
HLb:__ZN13RenderManager23AddRemoveCamerasDelayedEv
bsc:__ZN9JSONWrite8TransferI13dynamic_arrayIdLj8EEEEvRT_PKc17TransferMetaFlags
kLa:__ZN23PreloadManagerOperation11GetPriorityEv
ASe:_LayoutElement_OnEnable_m1760066426
Dpc:__ZN5Unity9rapidjson6WriterI16TempBufferWriterNS0_4UTF8IcEES4_13JSONAllocatorE11WriteUint64Ey
Pyd:_BitConverter__cctor_m3841343255
ryf:_Decimal_Compare_m3062820418
Xhf:_IntervalCollection_GetMetaCollection_m4029522214
F$c:_EventTrigger_OnDeselect_m1919608102
cLi:_TextGenerator_get_characterCount_m864136654
xig:_AsyncOperation_t1445031843_marshal_pinvoke_cleanup
tbg:_TimeSpan__ctor_m2047388489_AdjustorThunk
pXb:__ZN13RenderTexture8SetWidthEi
O3b:__ZNK28RectTransformPropertyBinding12SetPPtrValueERKN11UnityEngine9Animation10BoundCurveEi
YIb:__ZN18FrameTimingManager18GetVSyncsPerSecondEv
EAb:__Z18Transfer_BlittableI18StreamedBinaryReadILb0EELb0EfEvRK29SerializationCommandArgumentsR31RuntimeSerializationCommandInfo
dbb:__ZN10MeshFilterD0Ev
TGc:_UNITY_FT_GlyphLoader_CheckSubGlyphs
lke:_InternalEnumerator_1__ctor_m1341209356_AdjustorThunk
ERb:__Z25SetupObjectBakedOcclusionbRK15SharedLightDataRK26SharedLightmapSettingsDataRK15LightmapIndicesR17ShaderPassContext
idh:_Collection_1_System_Collections_ICollection_CopyTo_m1516601228_gshared
leh:_Collection_1_CopyTo_m4278237485_gshared
pgh:_Collection_1_Add_m3860636938_gshared
aGi:__ZL23UnresolvedVirtualCall_5P12Il2CppObjectsPK10MethodInfo
xD:__ZN4PPtrI6AvatarE8TransferI19StreamedBinaryWriteILb0EEEEvRT_
W2f:_List_1_Insert_m4050947056_gshared
Q4:__ZN9ShaderLab16FastPropertyName4InitEPKc
Xne:_InternalEnumerator_1__ctor_m39232262_AdjustorThunk
tOg:__Z48RuntimeInvoker_OperatingSystemFamily_t1868066375PFvvEPK10MethodInfoPvPS4_
Iyh:__ZL61Thread_t2300836069_CustomAttributesCacheGenerator_local_slotsP21CustomAttributesCache
Y2b:__Z13RegisterClassIN2UI13RectTransformEEvv
V5h:_Collection_1_System_Collections_IEnumerable_GetEnumerator_m3596816767_gshared
t6b:__ZL31MeshRendererTransformChangedJobP13BoundsJobDatajPK23TransformAccessReadOnlyPKyj
wuc:__ZN8JSONRead21TransferSTLStyleArrayI31ArrayOfManagedObjectsTransfererEEvRT_17TransferMetaFlags
DBd:_Char_System_IConvertible_ToByte_m2347554595_AdjustorThunk
UKh:__ZL59TooltipAttribute_t3957072629_CustomAttributesCacheGeneratorP21CustomAttributesCache
j7a:__ZN10VertexData8TransferI17RemapPPtrTransferEEvRT_
fZa:__ZN13RenderTexture9SetMipMapEb
nRi:__ZN15dense_hashtableINSt3__24pairIK10KeyWrapperIPK11Il2CppClassEPKcEES6_N6il2cpp5utils11PointerHashIS3_EEN14dense_hash_mapIS6_S9_SE_NS6_14EqualsComparerINS0_8equal_toIS5_EEEENS0_9allocatorISA_EEE9SelectKeyESJ_SL_E13set_empty_keyERKSA_
zrf:_String_CreateString_m860434552
hea:__Z18GetDirectorManagerv
Yze:_Enumerator_System_Collections_IEnumerator_Reset_m278261807_AdjustorThunk
Rch:_Collection_1_GetEnumerator_m1824095167_gshared
zsh:__ZL107CriticalFinalizerObject_t701527852_CustomAttributesCacheGenerator_CriticalFinalizerObject__ctor_m3245424448P21CustomAttributesCache
NPd:_Int32_Equals_m2976157357_AdjustorThunk
Ljc:__Z38Transform_CUSTOM_INTERNAL_get_rotationP12Il2CppObjectP11Quaternionf
mJh:__ZL99SceneManager_t2787271929_CustomAttributesCacheGenerator_SceneManager_LoadScene_m2298600132____mode1P21CustomAttributesCache
oKe:_SoapAttribute_get_XmlNamespace_m859394681
x2i:__ZNK15dense_hashtableINSt3__24pairIK10KeyWrapperINS1_IPK10MethodInfoP11Il2CppClassEEEjEES9_17ReflectionMapHashIS8_EN14dense_hash_mapIS9_jSD_NS9_14EqualsComparerINS0_8equal_toIS8_EEEENS0_9allocatorISB_EEE9SelectKeyESI_SK_E5beginEv
dqi:_X509ExtensionCollection_System_Collections_IEnumerable_GetEnumerator_m1475785462
Zta:__ZN7ApiGLES19UploadBufferSubDataEjN2gl12BufferTargetEllPKv
RNi:_SkeletonBone_t4134054672_marshal_pinvoke_cleanup
tga:__ZNSt3__216__rotate_forwardINS_11__wrap_iterIPN4core12basic_stringIcNS2_20StringStorageDefaultIcEEEEEEEET_S9_S9_S9_
Yyg:_Vector2_GetHashCode_m3916089713
eca:__ZdaPv
mwg:_SendMouseEvents_HitTestLegacyGUI_m579942228
N_d:_MulticastDelegate_Equals_m2502840627
Zkf:_SymmetricAlgorithm_set_KeySize_m3805756466
_Ad:_Byte_System_IConvertible_ToUInt32_m1049546902_AdjustorThunk
a4c:_U3CDelayUpdateU3Ec__Iterator0_System_Collections_IEnumerator_get_Current_m2906633870
WNg:__Z53RuntimeInvoker_Double_t594665363_Interval_t1802865632PFvvEPK10MethodInfoPvPS4_
TIb:__Z21InitializeBatchedJobsv
dMi:_CanvasGroup_get_blocksRaycasts_m1805542303
Hjf:_SHA1Internal_ProcessBlock_m1991889327
Ipb:__Z19TransferField_ArrayI14SafeBinaryRead27Converter_SimpleNativeClassI8GUIStyleEEvRK23StaticTransferFieldInfoR31RuntimeSerializationCommandInfoRT0_
TKh:__ZL60PropertyAttribute_t3677895545_CustomAttributesCacheGeneratorP21CustomAttributesCache
Nej:__ZN15dense_hashtableINSt3__24pairIK10KeyWrapperIP14Il2CppIUnknownEjEES5_N6il2cpp5utils11PointerHashIS3_EEN14dense_hash_mapIS5_jSB_NS5_14EqualsComparerINS0_8equal_toIS4_EEEENS0_9allocatorIS7_EEE9SelectKeyESG_SI_ED2Ev
F1h:_Array_Sort_TisRuntimeObject_TisRuntimeObject_m1685639929_gshared
nuj:__ZN6il2cpp5utils10MemoryPoolC2Ev
OXa:__ZN14RenderSettings5ResetEv
P1b:__ZN6Sprite9BindAtlasERK4PPtrI11SpriteAtlasE
Loc:__ZN5Unity9rapidjson12GenericValueINS0_4UTF8IcEE13JSONAllocatorE10FindMemberIS4_EENS0_21GenericMemberIteratorILb0ES3_S4_EERKNS1_IS3_T_EE
Doe:_InternalEnumerator_1_System_Collections_IEnumerator_get_Current_m3892960115_AdjustorThunk
zdj:__ZNSt3__212basic_stringIDsNS_11char_traitsIDsEENS_9allocatorIDsEEE6appendEPKDsj
Fzi:_SymmetricTransform_Finalize_m4129642865
ADd:_ArrayList_Clone_m2682741233
D3d:_HMAC_HashCore_m3684104066
ghj:__ZN15dense_hashtableI10KeyWrapperIP18Il2CppGenericClassES3_N6il2cpp8metadata22Il2CppGenericClassHashEN14dense_hash_setIS3_S6_NS3_14EqualsComparerINS5_25Il2CppGenericClassCompareEEENSt3__29allocatorIS3_EEE8IdentityESA_SD_EC2ERKSG_j
jpc:__ZN5Unity9rapidjson13GenericReaderINS0_4UTF8IcEES3_13JSONAllocatorE11ParseNumberILj1ENS0_25GenericInsituStringStreamIS3_EENS0_15GenericDocumentIS3_S4_S4_EEEEvRT0_RT1_
$lh:__ZL88RuntimeArray_CustomAttributesCacheGenerator_Array_CreateInstance_m1027597705____lengths1P21CustomAttributesCache
Rfh:_Collection_1_RemoveItem_m2911050674_gshared
QBg:__Z79RuntimeInvoker_UInt16_t2177724958_RuntimeObject_Int32_t2950945753_RuntimeObjectPFvvEPK10MethodInfoPvPS4_
glj:__ZN6il2cpp2os10ThreadImplD2Ev
cGf:_TextInfo_System_Runtime_Serialization_IDeserializationCallback_OnDeserialization_m1492046432
eqc:__ZN8Gradient8TransferI9JSONWriteEEvRT_
$gb:__ZN21RendererUpdateManager18OncePerFrameUpdateER13RendererScene
lQh:__ZL81TextEditor_t2759855366_CustomAttributesCacheGenerator_TextEditor__ctor_m242049450P21CustomAttributesCache
xJd:_Convert_ToBoolean_m2833621053
SKa:__ZNK12TLSAllocatorI14StackAllocatorE22GetAllocatedMemorySizeEv
SDh:__ZL62WebHeaderCollection_t1942268960_CustomAttributesCacheGeneratorP21CustomAttributesCache
_2:__ZN17RemapPPtrTransfer12PushMetaFlagE17TransferMetaFlags
oXf:_EqualityComparer_1_System_Collections_IEqualityComparer_GetHashCode_m2138064395_gshared
ZM:__ZNK7WeakPtrI20SoundChannelInstanceE10SharedData9GetRawPtrEv
Okb:__ZN12HandlerChain4NameEv
V6c:_FloatTween_t1274330004_marshal_pinvoke
kNd:_Int16_System_IConvertible_ToType_m3672347013_AdjustorThunk
Lqf:_String_LastIndexOf_m578673845
vrb:__Z29Transfer_Blittable_ArrayFieldI14SafeBinaryReadN4math12int3_storageEEvRT_R9ArrayInfoRK23StaticTransferFieldInfo
Znf:_SecurityException_ToString_m3228070608
WOd:_Int16_ToString_m2013897809
cXg:__Z60RuntimeInvoker_Int32_t2950945753_ResourceCacheItem_t51292791PFvvEPK10MethodInfoPvPS4_
$nf:_String_Substring_m2848979100
CRc:__Z44Register_UnityEngine_CanvasRenderer_get_cullv
tOi:__ZN15dense_hashtableINSt3__24pairIK10KeyWrapperIPK22Il2CppGenericParameterEP11Il2CppClassEES6_N6il2cpp5utils11PointerHashIS4_EEN14dense_hash_mapIS6_S9_SE_NS6_14EqualsComparerINS0_8equal_toIS5_EEEENS0_9allocatorISA_EEE9SelectKeyESJ_SL_ED2Ev
y5h:_ScriptableObject_CreateInstance_TisRuntimeObject_m1552711675_gshared
Wnf:_SecurityException_get_PermissionType_m2237538728
BHi:__ZL24UnresolvedVirtualCall_86P12Il2CppObjectxS0_xPK10MethodInfo
I$b:__Z29StdTemplateConversionFunctionIbbEbPvR14SafeBinaryRead
fTc:__ZN11UnityEngine7Connect17XRDeviceInfoEvent12XRDeviceInfoD2Ev
Knb:__Z44InitializeTransferFunctionScriptingTraitsForI17RemapPPtrTransferEvR31TransferFunctionScriptingTraits
F3b:__ZNSt3__26vectorI16MessageForwarder13stl_allocatorIS1_L18MemLabelIdentifier7ELi8EEE6resizeEj
fef:_X509Chain_SelectBestFromCollection_m1068759221
Ozi:_SymmetricTransform_TransformBlock_m851059707
ilh:__ZL68IntPtr_t_CustomAttributesCacheGenerator_IntPtr_ToPointer_m4157623054P21CustomAttributesCache
d6h:_Collection_1_System_Collections_IList_get_IsReadOnly_m2978442176_gshared
eah:_Enumerator_System_Collections_IEnumerator_Reset_m2261065994_AdjustorThunk
rYe:_ScrollRect_get_verticalNormalizedPosition_m3693218937
pgb:__ZN18LoadSceneOperation21MustCompleteNextFrameEv
D_e:_Slider_UpdateDrag_m1102107039
Vod:_MonoMethodInfo_get_method_info_m88651774
$L:__ZNK12AudioManager16GetAudioListenerEv
hPd:_Int32_System_IConvertible_ToDateTime_m1824716955
wRf:_Dictionary_2_System_Collections_Generic_ICollectionU3CSystem_Collections_Generic_KeyValuePairU3CTKeyU2CTValueU3EU3E_CopyTo_m331407443_gshared
s0d:_RuntimeTypeHandle__ctor_m3315980708_AdjustorThunk
fxh:__ZL69IIdentityPermissionFactory_t3268650966_CustomAttributesCacheGeneratorP21CustomAttributesCache
JLi:_Canvas_set_overrideSorting_m4088794420
xId:_SortedList_Add_m810900317
bVf:_DefaultComparer_Equals_m2585095694_gshared
Oog:_Logger_set_filterLogType_m3622751173
rji:_UnityEvent_1_GetDelegate_m25714567_gshared
su:__ZN7mecanim9animation12GetHumanPoseERKNS0_18ClipMuscleConstantEPKNS0_10ValueDeltaERNS_5human9HumanPoseE
iw:__ZN22AnimationMixerPlayable17ProcessRootMotionEP35AnimationPlayableEvaluationConstantP32AnimationPlayableEvaluationInputP33AnimationPlayableEvaluationOutput
hxb:__Z29Transfer_Blittable_ArrayFieldI19StreamedBinaryWriteILb0EEjEvRT_R9ArrayInfoRK23StaticTransferFieldInfo
W0:__Z13GetFileSystemv
hba:__ZNK5Unity4Type21FindAllDerivedClassesER13dynamic_arrayIPKS0_Lj4EENS0_17TypeFilterOptionsE
aca:__ZN13RuntimeStaticI15GUIEventManagerLb0EE16StaticInitializeEPv
OBb:__ZL12InvokeMethodI18StreamedBinaryReadILb0EEEvRK29SerializationCommandArgumentsR31RuntimeSerializationCommandInfo
yhg:_Version_CompareTo_m3146217210
rde:_TlsClientCertificate_FindParentCertificate_m3844441401
Cvi:_Uri_ParseAsUnixAbsoluteFilePath_m1476768041
GOf:_Array_InternalArray__ICollection_CopyTo_TisKeyValuePair_2_t71524366_m1056941380_gshared
Ncg:_Type_get_IsClass_m589177581
Zcg:_Type_get_IsSystemType_m624798880
Ozb:__Z29Transfer_Blittable_ArrayFieldI18StreamedBinaryReadILb1EE5RectTIfEEvRT_R9ArrayInfoRK23StaticTransferFieldInfo
cnb:__ZN19ShaderPropertySheet9SetMatrixEN9ShaderLab16FastPropertyNameERK10Matrix4x4fNS_8SetFlagsE
o3a:__Z29GetTextureSizeAllowedMultiple13TextureFormat
jyf:_Decimal_Subtract_m835601464
oKb:__ZZ23InitPlayerLoopCallbacksvEN52InitializationAsyncUploadTimeSlicedUpdateRegistrator7ForwardEv
eNg:__Z73RuntimeInvoker_Boolean_t97287965_RuntimeObject_IPv6AddressU26_t3285609463PFvvEPK10MethodInfoPvPS4_
Vfb:__ZNSt3__26vectorIN4core12basic_stringIcNS1_20StringStorageDefaultIcEEEE13stl_allocatorIS5_L18MemLabelIdentifier13ELi16EEE8__appendEj
Z7b:__ZN21IntermediateRenderers3AddEP20IntermediateRenderer
q7i:_il2cpp_array_element_size
OYd:_MissingMemberException__ctor_m2571045846
Rjh:__ZL62ComVisibleAttribute_t1362837655_CustomAttributesCacheGeneratorP21CustomAttributesCache
s3g:_List_1_System_Collections_IEnumerable_GetEnumerator_m1824431956_gshared
cvg:_RectTransform_INTERNAL_set_sizeDelta_m188783163
Wf:_glCheckFramebufferStatus
Ktj:__ZN6il2cpp2os11EventHandle4WaitEv
hhe:_U3CGetEnumeratorU3Ec__Iterator0_System_Collections_Generic_IEnumeratorU3CTU3E_get_Current_m9057020_gshared
PU:__ZN19CloudServiceHandler20StartEventDispatcherERKN11UnityEngine15CloudWebService18CloudServiceConfigERNS1_23WebRequestRestHeaderMapE
Wad:_GraphicRaycaster__ctor_m646559428
V9d:_CipherSuite_get_CipherAlgorithmType_m137858741
vFd:_BitArrayEnumerator_get_Current_m4220391712
jed:__Z37il2cpp_codegen_get_executing_assemblyPK10MethodInfo
Dvg:_Transform_get_parent_m835071599
Vbh:_Collection_1_System_Collections_IList_Remove_m3686118478_gshared
mkb:__ZN9Transform23VirtualRedirectTransferER17RemapPPtrTransfer
laf:_IPAddress_get_ScopeId_m4237202723
vr:__ZN4core8hash_mapIN11UnityEngine9Animation14GenericBindingENS2_10BoundIndexENS2_25GenericBindingHashFunctorENS2_30GenericBindingValueArrayUniqueEE4growEi
Ft:__ZN21AnimationClipPlayable7SetTimeEd
Psi:_ExpressionCollection_get_Item_m3510736379
SUh:__ZL62FontData_t746620069_CustomAttributesCacheGenerator_m_AlignmentP21CustomAttributesCache
y2c:_StandaloneInputModule_get_inputActionsPerSecond_m3946624274
K8f:_UTF8Encoding_InternalGetCharCount_m82458470
lzg:_Vector2__cctor_m2108982652
GQg:__Z72RuntimeInvoker_Boolean_t97287965_Vector4_t3319028937_Vector4_t3319028937PFvvEPK10MethodInfoPvPS4_
ur:__ZN4core8hash_mapIN11UnityEngine9Animation14GenericBindingENS2_10BoundIndexENS2_25GenericBindingHashFunctorENS2_30GenericBindingValueArrayUniqueEE4growEv
Ere:_InternalEnumerator_1_MoveNext_m2734554195_AdjustorThunk
Qej:__ZN14dense_hash_mapI10KeyWrapperIP14Il2CppIUnknownEjN6il2cpp5utils11PointerHashIS1_EENS3_14EqualsComparerINSt3__28equal_toIS2_EEEENS9_9allocatorINS9_4pairIKS3_jEEEEE15set_deleted_keyERSF_
uba:__ZN22BuiltinResourceManager16StaticInitializeEPv
Maj:__ZN6il2cpp2gc9AllocatorIP12Il2CppThreadE10deallocateEPvj
b5i:__ZN13Il2CppHashMapIPK14Il2CppAssemblyPK22Il2CppMonoAssemblyNameN6il2cpp5utils11PointerHashIS1_EENSt3__28equal_toIS2_EENSA_9allocatorINSA_4pairIK10KeyWrapperIS2_ES5_EEEEEC2EjRKS9_RKSC_
Vvd:_DelegatePInvokeWrapper_AppDomainInitializer_t682969308
b0:__ZN8Remapper6RemoveEi
Tii:_UnityEvent_1__ctor_m3777630589_gshared
VOa:__ZN10MemoryFile4ReadEyPvPy
L5f:_Encoding_GetBytes_m3148649984
pLc:__ZL36CleanupTextRenderingScriptingClassesv
mXb:__ZN15ReflectionProbe17UseRendererResultEP13ProbeRenderer
Wkc:__Z34Mesh_CUSTOM_SetArrayForChannelImplP12Il2CppObject30InternalScriptingShaderChannel34InternalScriptingVertexChannelTypeiP11Il2CppArrayi
U_:__Z32scripting_class_get_nested_types17ScriptingClassPtrRNSt3__26vectorIS_13stl_allocatorIS_L18MemLabelIdentifier1ELi16EEEE
mMi:_CanvasRenderer_INTERNAL_CALL_EnableRectClipping_m3318097918
agg:_UInt64_System_IConvertible_ToDecimal_m806594027_AdjustorThunk
bwe:_Enumerator_System_Collections_IEnumerator_get_Current_m361750367_AdjustorThunk
yji:_UnityEvent_1_GetDelegate_m274387680_gshared
sLe:_RealProxy_InternalGetTransparentProxy_m1765012608
x0g:_List_1__ctor_m3395838871_gshared
C6h:_Collection_1_IsFixedSize_m3698021882_gshared
dVf:_DefaultComparer_GetHashCode_m2651362016_gshared
zni:_PKCS12__ctor_m1854440921
h1h:_Array_Resize_TisCustomAttributeNamedArgument_t287865710_m885566878_gshared
YKg:__Z85RuntimeInvoker_RuntimeObject_RuntimeObject_SByte_t1669577662_ExceptionU26_t3600731591PFvvEPK10MethodInfoPvPS4_
MTf:_DefaultComparer__ctor_m2556554241_gshared
TD:__ZN11UnityEngine9Animation28GenericAnimationBindingCache25RegisterIAnimationBindingEPKN5Unity4TypeEiP17IAnimationBinding
Kmh:__ZL66RuntimeArray_CustomAttributesCacheGenerator_Array_Sort_m2537416106P21CustomAttributesCache
GRc:__Z70RectTransformUtility_CUSTOM_INTERNAL_CALL_RectangleContainsScreenPointP12Il2CppObjectRK13Vector2fIcallS0_
ZSd:_DirectoryInfo__ctor_m481305441
uff:_X509ExtensionCollection_get_SyncRoot_m2667861032
jPi:__ZN6il2cpp2vm5Class15GetElementClassEP11Il2CppClass
q9:__ZN10MemoryPoolC2E10MemLabelIdbPKciii
Fgh:_Collection_1_SetItem_m941095285_gshared
OVb:__Z40ProcessCameraIndexListIsNodeVisibleInOutRK22SceneCullingParametersPK9SceneNodePK4AABBR9IndexList
Jyi:_GUIScrollGroup_SetHorizontal_m291416666
uVa:__ZN16GraphicsSettings8TransferI17RemapPPtrTransferEEvRT_
cPc:__ZN2UI6Canvas13UpdateBatchesEb
bcf:_X509BasicConstraintsExtension_Decode_m120598446
oz:__ZNK23AnimationPlayableOutput11DerivesFromE17ScriptingClassPtr
o2a:__ZN7Texture19SupportsAsyncUploadI19StreamedBinaryWriteILb0EEEEbRT_
sQg:__Z49RuntimeInvoker_Boolean_t97287965_Rect_t2360479859PFvvEPK10MethodInfoPvPS4_
wJh:__ZL101Transform_t3600365921_CustomAttributesCacheGenerator_Transform_INTERNAL_get_localRotation_m1111330565P21CustomAttributesCache
DKg:__Z51RuntimeInvoker_UInt32_t2560061978_Int16_t2552820387PFvvEPK10MethodInfoPvPS4_
Voa:__ZNK13GfxDeviceGLES12GetWireframeEv
Wzi:_DelegatePInvokeWrapper_Action_t1264377477
CPh:__ZL64EventType_t3528516131_CustomAttributesCacheGenerator_dragUpdatedP21CustomAttributesCache
vUc:__ZN11UnityEngine7Connect13ConfigHandler12GetListenersERKN4core12basic_stringIcNS2_20StringStorageDefaultIcEEEE
Dqa:__ZN9GfxDevice18AllocRenderSurfaceEb
vBd:_Char__cctor_m2787437263
f$h:__ZL61MoodSlider_t2274410658_CustomAttributesCacheGenerator_sadFaceP21CustomAttributesCache
I1b:__ZN10TagManager32GetSortingLayerUniqueIDFromValueEi
N3c:_AspectRatioFitter_get_rectTransform_m2996235303
H_:__ZL27CleanupCoreScriptingClassesv
$Ef:_DateTimeFormatInfo_get_IsReadOnly_m1173781646
wFf:_NumberFormatInfo_get_PercentPositivePattern_m1800841633
Tad:_Graphic_UnregisterDirtyMaterialCallback_m2707090617
gve:_Comparer_1_System_Collections_IComparer_Compare_m1313384821_gshared
CTe:_LayoutRebuilder_GetHashCode_m1943075341
Gjd:_GenericTypeParameterBuilder_MakeGenericType_m3048165991
Phc:__Z26AnimationCurve_CUSTOM_InitP12Il2CppObjectP11Il2CppArray
dLj:_glUniform1uiv__wrapper
O4i:__ZN6il2cpp2vm10Reflection7IsEventEP12Il2CppObject
Zwj:__ZNSt3__26__treeINS_12__value_typeIPFvvEPK10MethodInfoEENS_19__map_value_compareIS3_S7_NS_4lessIS3_EELb1EEENS_9allocatorIS7_EEE16__insert_node_atEPNS_16__tree_node_baseIPvEERSI_SI_
uZ:__ZN17PersistentManager26GetStreamNameSpaceInternalEi
XF:__ZN4FMOD6System11createSoundEPKcjP22FMOD_CREATESOUNDEXINFOPPNS_5SoundE
Xn:FUNCTION_TABLE_iiifiiii
Ire:_InternalEnumerator_1_System_Collections_IEnumerator_Reset_m1451164462_AdjustorThunk
mxc:__ZN13SpeedTreeWind20AdvanceWithoutUpdateEd
Ftf:_DateTime_System_IConvertible_ToDecimal_m1044850612
M4f:_List_1_IndexOf_m2206067159_gshared
Kje:_InternalEnumerator_1_System_Collections_IEnumerator_Reset_m1318888374_AdjustorThunk
V9:__ZN9ShaderLab19CommonPropertyNames13StaticCleanupEPv
v$:__Z31scripting_method_get_returntype18ScriptingMethodPtr
rHi:__ZL24UnresolvedVirtualCall_76P12Il2CppObjectPK10MethodInfo
J4a:__ZN15SerializeTraitsI12LightmapDataE8TransferI24GenerateTypeTreeTransferEEvRS0_RT_
umf:_SecurityElement_AddAttribute_m311510562
CHj:_glStencilOpSeparate__wrapper
Iac:__ZN4Mesh5SetUvEiPKfjj
K5a:__ZN7Texture13SetAnisoLimitENS_20AnisotropicFilteringE
XN:__ZN11AudioModule16SetListenerPauseEb
Fyd:_Attribute_IsDefined_m4069052474
Qh:_emscripten_glCompressedTexSubImage2D
nDa:__ZN13GfxDeviceGLES22MemoryBarrierImmediateEyN2gl17MemoryBarrierTypeE
VRe:_U3CCaretBlinkU3Ec__Iterator0_Dispose_m860898205
VAa:__ZN6prcoreL26RemapGenericFloatToIntegerI18TexFormatARGBFloat17TexFormatARGB8888EEvPKNS_9InnerInfoE
T8g:_List_1_set_Capacity_m1977188119_gshared
edc:__Z46GetShaderModelNumericValueFromRequirementsMask18ShaderRequirements
_Ac:_cff_ps_has_glyph_names
H8c:_DropdownItem_get_rectTransform_m3147806615
vTf:_Dictionary_2_Resize_m3287623642_gshared
nqj:_GC_write
Ylh:__ZL69RuntimeArray_CustomAttributesCacheGenerator_Array_SetValue_m394135409P21CustomAttributesCache
y4d:_RC2_Create_m2516417038
Dad:_Graphic_OnPopulateMesh_m767318148
W3d:_HMACSHA512_set_ProduceLegacyHmacValues_m3961135292
GCe:_Dictionary_2_Remove_m4193450060_gshared
N3e:_ASN1_get_Tag_m1032367219
SQd:_Int64_TryParse_m3606398488
h0h:_Array_InternalArray__set_Item_TisMark_t3471605523_m1299772331_gshared
xoc:__Z44Register_UnityEngine_GUIStyle_SetDefaultFontv
Hxb:__Z18Transfer_BlittableI18StreamedBinaryReadILb1EELb1EiEvRK29SerializationCommandArgumentsR31RuntimeSerializationCommandInfo
QA:__ZN9BlobWrite8TransferI22OffsetPtrArrayTransferIKN4math7_float3EEEEvRT_PKc17TransferMetaFlags
eFg:__Z173RuntimeInvoker_Int32_t2950945753_RuntimeObject_Int32_t2950945753_Int32_t2950945753_Int32_t2950945753_RuntimeObject_Int32_t2950945753_SByte_t1669577662_ContextU26_t3937453398PFvvEPK10MethodInfoPvPS4_
r2g:_List_1__ctor_m2576108087_gshared
C3i:__ZN15dense_hashtableINSt3__24pairIK10KeyWrapperINS1_IPK12PropertyInfoP11Il2CppClassEEEjEES9_17ReflectionMapHashIS8_EN14dense_hash_mapIS9_jSD_NS9_14EqualsComparerINS0_8equal_toIS8_EEEENS0_9allocatorISB_EEE9SelectKeyESI_SK_E12maybe_shrinkEv
Wni:_X509Certificate_get_DSA_m565099499
gyb:__Z18Transfer_BlittableI18StreamedBinaryReadILb1EELb1EsEvRK29SerializationCommandArgumentsR31RuntimeSerializationCommandInfo
a7f:_StringBuilder_Remove_m940064945
s2d:_DESCryptoServiceProvider_GenerateIV_m683687014
dZf:_GenericComparer_1__ctor_m1900257738_gshared
cse:_InternalEnumerator_1_get_Current_m3792939945_gshared
KSc:__ZN22BaseUnityConnectClient17OnEnterStateReadyEv
t$e:_Text_get_fontSize_m1677872538
z3f:_List_1_System_Collections_IList_get_Item_m995551621_gshared
iEh:__ZL63X509ChainStatusFlags_t1026973125_CustomAttributesCacheGeneratorP21CustomAttributesCache
JTa:__ZN14GrowableBufferD2Ev
fhc:__Z29Input_CUSTOM_GetMouseButtonUpi
BNd:_Int16_Parse_m138525169
JYi:__ZN6il2cpp6icalls8mscorlib6System8MonoType16InternalGetEventEP20Il2CppReflectionTypeP12Il2CppStringi
uwi:_UriScheme_t722425697_marshal_pinvoke_back
SCc:_UNITY_tt_face_load_maxp
thc:__Z46Input_CUSTOM_INTERNAL_set_compositionCursorPosRK13Vector2fIcall
yt:__ZN7mecanim5human12FullBodyMaskEv
LZh:__ZL62Shadow_t773074319_CustomAttributesCacheGenerator_m_EffectColorP21CustomAttributesCache
s2e:_BigInteger_ToString_m3475000413
Xbb:__ZN19ShaderPropertySheet11ComputeHashEv
WSi:__ZN30dense_hashtable_const_iteratorI10KeyWrapperIPK19Il2CppGenericMethodES4_N6il2cpp8metadata23Il2CppGenericMethodHashEN14dense_hash_setIS4_S7_NS4_14EqualsComparerINS6_26Il2CppGenericMethodCompareEEENSt3__29allocatorIS4_EEE8IdentityESB_SE_EppEv
T7c:_Resources_t1597885468_marshal_pinvoke_cleanup
czb:__ZN4PPtrI6ObjectE8TransferI18StreamedBinaryReadILb1EEEEvRT_
gT:__ZN11UnityEngine15CloudWebService20WebRequestRestClient6IsDoneEv
iui:_Group__ctor_m2980794822
tmi:_X509CertificateCollection_get_Item_m1033426577
Ugi:_CachedInvokableCall_1_Invoke_m502907382_gshared
Ni:_llvm_fabs_f32
LS:__ZN11UnityEngine15CloudWebService16SessionContainer16GetJsonDataBlockEjRKN4core12basic_stringIcNS2_20StringStorageDefaultIcEEEERS6_PjSA_
J3e:_ASN1_Decode_m1695284166
z5i:__ZN15dense_hashtableINSt3__24pairIK10KeyWrapperIPK14Il2CppAssemblyEPK22Il2CppMonoAssemblyNameEES6_N6il2cpp5utils11PointerHashIS4_EEN14dense_hash_mapIS6_SA_SF_NS6_14EqualsComparerINS0_8equal_toIS5_EEEENS0_9allocatorISB_EEE9SelectKeyESK_SM_E13set_empty_keyERKSB_
Qfh:_Collection_1_RemoveAt_m2240641437_gshared
QBf:_Enum_ToString_m3248653065
KZ:__ZN14SafeBinaryReadD2Ev
MJf:_SetPropertyUtility_SetStruct_TisFillMethod_t1167457570_m4164776730_gshared
R2b:__Z13RegisterClassI7TextureEvv
_1f:_Enumerator_MoveNext_m3859993671_gshared
wzb:__ZN8Gradient8TransferI18StreamedBinaryReadILb1EEEEvRT_
G6d:_SequentialSearchPrimeGeneratorBase_IsPrimeAcceptable_m1127740833
Off:_Capture__ctor_m3103117740
M7a:__ZN4core8hash_mapINS_12basic_stringIcNS_20StringStorageDefaultIcEEEE13dynamic_arrayI4PPtrI6SpriteELj4EENS_4hashIS4_EENSt3__28equal_toIS4_EEEixERKS4_
cEg:__Z113RuntimeInvoker_Void_t1185182177_RuntimeObject_Int64_t3736567304_RuntimeObject_Int64_t3736567304_Int64_t3736567304PFvvEPK10MethodInfoPvPS4_
gtg:_RangeInt_get_end_m4128831787_AdjustorThunk
mej:__ZN6il2cpp6icalls8mscorlib6System4Type15MakeGenericTypeEP20Il2CppReflectionTypeP11Il2CppArray
nj:_SDL_PauseAudio
jHd:_Hashtable_Clone_m3078962909
N7i:_il2cpp_class_from_type
LZi:__ZN6il2cpp2os4File11GetStdErrorEv
nAh:__ZL77Convert_t2465617642_CustomAttributesCacheGenerator_Convert_ToSByte_m516918950P21CustomAttributesCache
U9:__ZN9ShaderLab19CommonPropertyNames16StaticInitializeEPv
uib:__ZN13MemoryManager31DisallowAllocationsOnThisThreadEv
VC:__ZN7mecanim9animation18CreateAvatarOutputEPKNS0_14AvatarConstantEbbRNS_6memory9AllocatorE
Swd:_Array_GetLongLength_m561139708
OEi:_DelegatePInvokeWrapper_PCMSetPositionCallback_t1059417452
j_e:_Slider_set_maxValue_m2251404465
U_e:_SpriteState_get_pressedSprite_m3868967445_AdjustorThunk
TL:__ZN11AudioSource23VirtualRedirectTransferER24GenerateTypeTreeTransfer
sac:__ZN7Texture11SetWrapModeE15TextureWrapMode
h8a:__ZN14Texture2DArray23VirtualRedirectTransferER14SafeBinaryRead
RYd:_MissingMemberException__ctor_m1220732369
WQb:__ZNK6Camera21CalculateCanDoShadowsEv
YSg:__Z52RuntimeInvoker_Void_t1185182177_Int32U26_t1369213839PFvvEPK10MethodInfoPvPS4_
eig:_Application_InvokeOnBeforeRender_m2875673833
Rkj:__ZN6il2cpp2os6Thread12SetStackSizeEj
VUe:_MaskableGraphic_RecalculateMasking_m183336762
D4h:_Array_InternalArray__get_Item_TisRuntimeObject_m3347010206_gshared
Vld:_TypeBuilder_IsSubclassOf_m3458909121
nac:__ZNK8Renderer16IsVisibleInSceneEv
iZ:__Z13VFormatBufferPciPKcz
CAb:__Z18Transfer_BlittableI18StreamedBinaryReadILb0EELb1EhEvRK29SerializationCommandArgumentsR31RuntimeSerializationCommandInfo
Dtd:_X509Certificate__cctor_m198658613
YGg:__Z43RuntimeInvoker_MethodAttributes_t2366443849PFvvEPK10MethodInfoPvPS4_
fsg:_PlayableHandle_Equals_m1666612586_AdjustorThunk
FBi:_U3CDoFadeU3Ec__Iterator0_Reset_m2768421957
ZAa:__ZN6prcoreL27StretchGenericFloatBilinearI15TexFormatRFloatEEvPKNS_9InnerInfoE
RDh:__ZL139ServicePointManager_t170559685_CustomAttributesCacheGenerator_ServicePointManager_t170559685____CheckCertificateRevocationList_PropertyInfoP21CustomAttributesCache
aCf:_Enum_ToObject_m1628250250
lw:__Z24ProcessAnimationMixBeginP35AnimationPlayableEvaluationConstantP32AnimationPlayableEvaluationInputP33AnimationPlayableEvaluationOutput
a7g:_List_1_set_Item_m2057272351_gshared
aya:__Z14PadImageBorderR14ImageReferenceii
c2i:__ZN15dense_hashtableINSt3__24pairIK10KeyWrapperINS1_IPK10MethodInfoP11Il2CppClassEEEjEES9_17ReflectionMapHashIS8_EN14dense_hash_mapIS9_jSD_NS9_14EqualsComparerINS0_8equal_toIS8_EEEENS0_9allocatorISB_EEE9SelectKeyESI_SK_E4findERSA_
eWi:__ZN6il2cpp2vm13MetadataCache28GetFieldDefaultValueForFieldEPK9FieldInfo
$Lf:_Array_IndexOf_TisUIVertex_t4057497605_m3336763564_gshared
feh:__ZN21InterfaceFuncInvoker1I22OrderBlock_t1585977831iE6InvokeEjP11Il2CppClassP12Il2CppObjecti
Pw:__ZN27AnimationLayerMixerPlayableD2Ev
e6c:_ColorBlock_Equals_m518833916_AdjustorThunk
yLh:__ZL66PersistentCall_t3407714124_CustomAttributesCacheGenerator_m_TargetP21CustomAttributesCache
cI:__ZN12AudioManager39HandlePendingAudioConfigurationCallbackEv
kk:_emscripten_glIsFramebuffer
j6e:_RSAManaged_EncryptValue_m799827583
Q1:__ZN12_GLOBAL__N_16qAtan2Eff
sBg:__Z61RuntimeInvoker_UInt32_t2560061978_RuntimeObject_RuntimeObjectPFvvEPK10MethodInfoPvPS4_
xag:_ThreadAbortException__ctor_m1955533141
ok:_JS_Sound_SetLoopPoints
Gca:__ZN15dense_hashtableINSt3__24pairIKyP17VertexDeclarationEEy14GfxGenericHashIyEN14GfxDoubleCacheIyS4_S7_NS0_8equal_toIyEEN31GfxDoubleCacheConcurrencyPolicy11LocklessGetE42GfxDoubleCacheDefaultEmptyDeletedGeneratorIyEE9SelectKeyESA_13stl_allocatorIS5_L18MemLabelIdentifier24ELi16EEE14squash_deletedEv
fN:__ZN12AudioManager17ShouldSourcePauseEb
Ouj:__ZN6il2cpp2vm26MetadataAllocGenericMethodEv
YIf:_Array_InternalArray__ICollection_Remove_TisUInt16_t2177724958_m1766181761_gshared
ZGa:__ZN19ConstantBuffersGLES12RecordRenderEv
Aji:_UnityEvent_1__ctor_m3675246889_gshared
Wrc:__ZN9JSONWrite8TransferI10RectOffsetEEvRT_PKc17TransferMetaFlags
Hxa:__ZN4crnd12symbol_codec11decode_bitsEj
JVg:__Z59RuntimeInvoker_Boolean_t97287965_KeyValuePair_2_t3842366416PFvvEPK10MethodInfoPvPS4_
z8d:_EncryptedPrivateKeyInfo__ctor_m3415744930
Uyc:_cf2_doFlex
vbf:_AsnEncodedData__ctor_m3792312694
fAi:_AesManaged_GenerateIV_m1368817386
I7b:__ZN21FixedBehaviourManagerD0Ev
KRa:__ZN13dynamic_arrayI17SortingLayerEntryLj4EE6insertEPS0_jRKS0_
gI:__ZN4FMOD6System12createReverbEPPNS_6ReverbE
Tnj:__ZN6il2cpp2vm6String21InitializeEmptyStringEP11Il2CppClass
Gw:__ZN7mecanim19ValueArrayBlendNodeILb1EEEvRKNS_10ValueArrayERKNS_14ValueArrayMaskERS1_RS4_RNS_16ValueArrayWeightEf
u1d:_CodeAccessPermission_GetHashCode_m880096813
wib:__Z16MarkDependenciesR27GarbageCollectorThreadStatej
led:_AssemblyConfigurationAttribute__ctor_m3236176989
kli:_ObjectPool_1_get_countInactive_m526975942_gshared
gLe:_RemotingServices_DisposeIdentity_m2605848806
a2:__ZNK9Transform11GetPositionEv
uUd:_WriteDelegate_EndInvoke_m952736984
fjg:_Bounds_set_size_m4127623202
CMd:_GuidParser_Reset_m2640004655
xWa:__ZN23SharedMeshRenderingData18UnloadVertexStreamEi
Y7b:__ZN31CanvasBatchIntermediateRenderer11AddSubBatchERK16DrawBuffersRangePK19ShaderPropertySheet
G6b:__ZN19RenderEventsContextC2Ei
XQ:__Z6simd4fRKf
iJh:__ZL67SceneManager_t2787271929_CustomAttributesCacheGenerator_sceneLoadedP21CustomAttributesCache
gFf:_GregorianCalendar_GetEra_m2369958449
Sk:_emscripten_glEnable
zme:_InternalEnumerator_1_System_Collections_IEnumerator_get_Current_m2982675020_gshared
DRa:__ZN10TagManager23VirtualRedirectTransferER14SafeBinaryRead
wWh:__ZL51RawImage_t3182918964_CustomAttributesCacheGeneratorP21CustomAttributesCache
e6h:_Collection_1_System_Collections_IList_get_Item_m2931804586_gshared
SKe:_ObjRef_get_EnvoyInfo_m1782007847
C2g:_List_1_System_Collections_ICollection_get_IsSynchronized_m3331050698_gshared
FTb:__Z15InitLightMeshesv
End:_MonoCMethod_ToString_m3992577062
w_i:_RaycastHit_get_collider_m1464180279
An:FUNCTION_TABLE_iifiii
JOi:__ZNK15dense_hashtableINSt3__24pairIK10KeyWrapperIPK22Il2CppGenericParameterEP11Il2CppClassEES6_N6il2cpp5utils11PointerHashIS4_EEN14dense_hash_mapIS6_S9_SE_NS6_14EqualsComparerINS0_8equal_toIS5_EEEENS0_9allocatorISA_EEE9SelectKeyESJ_SL_E10test_emptyEj
sci:_ReadOnlyCollection_1_System_Collections_IList_Contains_m2904046095_gshared
F5a:__ZN15QualitySettings8TransferI19StreamedBinaryWriteILb0EEEEvRT_
NPh:__ZL56GUISkin_t1244372282_CustomAttributesCacheGenerator_m_boxP21CustomAttributesCache
cUe:_LayoutUtility_U3CGetFlexibleHeightU3Em__7_m2991026842
Uvb:__Z18Transfer_BlittableI19StreamedBinaryWriteILb0EELb1E8Vector2fEvRK29SerializationCommandArgumentsR31RuntimeSerializationCommandInfo
wyc:_cf2_arrstack_init
M4h:_Array_InternalArray__get_Item_TisResourceCacheItem_t51292791_m1306056717_gshared
QRg:__Z157RuntimeInvoker_Void_t1185182177_RuntimeObject_RuntimeObject_RuntimeObject_RuntimeObject_RuntimeObject_RuntimeObject_RuntimeObject_RuntimeObject_RuntimeObjectPFvvEPK10MethodInfoPvPS4_
Z_c:_EventSystem_get_pixelDragThreshold_m1103650852
_W:__Z15CleanLogHandler7LogTypePKcz
t$d:_NumberFormatter_NumberToString_m2481532188
wla:__ZN9ShaderLab19SerializedSubShader8TransferI19StreamedBinaryWriteILb0EEEEvRT_
uYe:_ScrollRect_InternalGetBounds_m599803667
CH:__ZN14AudioBehaviour15ThreadedCleanupEv
UDb:__ZN6Camera17RemoveImageFilterERK11ImageFilter
bna:__ZNSt3__218__insertion_sort_3IR25ValueParameterArraySorterPN20GpuProgramParameters14ValueParameterEEEvT0_S6_T_
DGh:__ZL90Display_t1387065949_CustomAttributesCacheGenerator_Display_GetRenderingExtImpl_m2069813991P21CustomAttributesCache
FDh:__ZL67EditorBrowsableAttribute_t1475454531_CustomAttributesCacheGeneratorP21CustomAttributesCache
oGd:_Comparer__cctor_m3311686689
XPc:__ZZN2UI11CanvasGroup15InitializeClassEvEN38FunctorImpl_117kTransformParentChanged4CallEPviR11MessageData
w3c:_UIBehaviour_OnDidApplyAnimationProperties_m2143584361
vFh:__ZL102SystemInfo_t3561985952_CustomAttributesCacheGenerator_SystemInfo_get_operatingSystemFamily_m4256884728P21CustomAttributesCache
L9e:_HttpWebRequest_get_Address_m2672661563
tcg:_TimeZone__ctor_m1831364098
f4i:__ZNK10KeyWrapperINSt3__24pairIPK9EventInfoP11Il2CppClassEEE14EqualsComparerINS0_8equal_toIS7_EEEclERKS8_SE_
bme:_InternalEnumerator_1_get_Current_m3500427238_AdjustorThunk
KPc:__ZN2UI26InitializeDeviceForOverlayEi
V8:__Z27LogRepeatingStringWithFlagsRKN4core12basic_stringIcNS_20StringStorageDefaultIcEEEE15LogMessageFlagsi
lgg:_UInt64_System_IConvertible_ToSingle_m925613075
bCf:_Enum_IsDefined_m1442314461
Y9f:_Thread__cctor_m817723615
WEi:_AudioExtensionManager_RegisterBuiltinDefinitions_m2742744104
Zt:__ZN17AnimationPlayable28ComputeNeedsBindingRebuildedEv
et:__ZN17AnimationPlayable23RequestAllocateBindingsEv
Vfi:_Predicate_1_EndInvoke_m3884403745_gshared
Fsf:_DecoderReplacementFallbackBuffer_Fallback_m1261056214
OMb:__ZNSt3__227__insertion_sort_incompleteIRPFbP10GUIElementS2_EPS2_EEbT0_S7_T_
Oed:_Binder_get_DefaultBinder_m950908649
pTd:_StreamReader__ctor_m1616861391
jzh:__ZL59ArgumentException_t132251570_CustomAttributesCacheGeneratorP21CustomAttributesCache
BVc:__ZN18UnityConnectClient33OnPlayerSessionStateChangedStaticEPS_jyy
Qif:_RSA_ToXmlString_m2922661427
ST:__ZNK11UnityEngine15CloudWebService23WebRequestUploadHandler11GetProgressEv
Hua:__ZN7ApiGLES4LoadE16GfxDeviceLevelGL
W4a:__ZN18StreamedBinaryReadILb0EE21TransferSTLStyleArrayI13dynamic_arrayI31EnlightenSystemAtlasInformationLj8EEEEvRT_17TransferMetaFlags
IPh:__ZL61GUIContent_t3050628031_CustomAttributesCacheGenerator_m_ImageP21CustomAttributesCache
zwc:__ZN5physx15PxErrorCallbackD2Ev
Ehj:__ZN15dense_hashtableI10KeyWrapperIP18Il2CppGenericClassES3_N6il2cpp8metadata22Il2CppGenericClassHashEN14dense_hash_setIS3_S6_NS3_14EqualsComparerINS5_25Il2CppGenericClassCompareEEENSt3__29allocatorIS3_EEE8IdentityESA_SD_E15insert_noresizeERKS3_
N5b:__ZZL31RegisterOtherRendererPropertiesR22GenericPropertyBindingEN30Wrapper_RendererReceiveShadows13GetFloatValueEPv
uHf:_Array_InternalArray__ICollection_Contains_TisSlot_t384495010_m688761886_gshared
n3a:__ZN17SharedTextureDataC2E10MemLabelIdii13TextureFormatjiibb
GTg:__Z114RuntimeInvoker_RuntimeObject_RuntimeObject_Int32_t2950945753_Int32_t2950945753_Int32_t2950945753_Int32_t2950945753PFvvEPK10MethodInfoPvPS4_
$Gb:__ZN8Material11SetPassFastEPN9ShaderLab4PassER17ShaderPassContextP6Shaderib
c6a:__ZNK13ScreenManager13GetLockCursorEv
zVc:__ZN11UnityEngine7Connect20BasePersistentValues10SaveValuesER9JSONWrite
uhh:_Collection_1_IsFixedSize_m3748602684_gshared
Htf:_DateTime_System_IConvertible_ToDouble_m2116720007
Vlg:_Display_GetSystemExtImpl_m2808197389
kbg:_WaitHandle_WaitOne_m2577152516
qtd:_X509Certificate_PEM_m1177570576
_vh:__ZL46DSA_t2386879874_CustomAttributesCacheGeneratorP21CustomAttributesCache
Ihe:_ArrayReadOnlyList_1_GetEnumerator_m1835926958_gshared
vbc:__Z14ScaleCurveTimeR17AnimationCurveTplIfEf
gca:__ZN22VirtualJoystickManagerC2Ev
Iba:__ZN20GlobalCachingManager7DisposeEv
UNb:__Z12SetupLODFadeR9GfxDeviceR17ShaderPassContextf
f1a:__ZNK14PlayableOutput7GetTypeEv
hnh:__ZL69Type_t_CustomAttributesCacheGenerator_Type_GetConstructors_m576905011P21CustomAttributesCache
sTb:__ZL24CollectForwardObjectsJobP27CollectForwardObjectsHeader
xVi:__ZNK15dense_hashtableINSt3__24pairIK10KeyWrapperIPK11Il2CppClassEPKcEES6_N6il2cpp5utils11PointerHashIS3_EEN14dense_hash_mapIS6_S9_SE_NS6_14EqualsComparerINS0_8equal_toIS5_EEEENS0_9allocatorISA_EEE9SelectKeyESJ_SL_E12test_deletedERK24dense_hashtable_iteratorISA_S6_SE_SN_SJ_SL_E
nVb:__Z13IsNodeVisibleRK9SceneNodeRK4AABBRK22SceneCullingParameters
DMf:_Array_InternalArray__IndexOf_TisLabelFixup_t858502054_m1491765395_gshared
pEg:__Z44RuntimeInvoker_RuntimeTypeHandle_t3027515415PFvvEPK10MethodInfoPvPS4_
pmi:_TlsServerSettings_set_CertificateRequest_m1039729760
f1e:_SortKeyBuffer_AppendCJKExtension_m2591091991
IRc:__Z57RectTransformUtility_CUSTOM_INTERNAL_CALL_PixelAdjustRectP12Il2CppObjectS0_R5RectTIfE
E8f:_UTF8Encoding_GetByteCount_m4153686982
nWb:__Z24ScheduleCullingAllGroupsR8JobFenceRK22SceneCullingParametersiRK13CullingOutputRK13dynamic_arrayIP12CullingGroupLj4EERKS_
$Mj:_emscripten_glStencilMask__wrapper
TCg:__Z49RuntimeInvoker_Void_t1185182177_Double_t594665363PFvvEPK10MethodInfoPvPS4_
MSi:__ZN15dense_hashtableI10KeyWrapperIPK19Il2CppGenericMethodES4_N6il2cpp8metadata23Il2CppGenericMethodHashEN14dense_hash_setIS4_S7_NS4_14EqualsComparerINS6_26Il2CppGenericMethodCompareEEENSt3__29allocatorIS4_EEE8IdentityESB_SE_EC2ERKSH_j
DTa:__ZN15RenderNodeQueue7CleanupEv
aKf:_Array_InternalArray__IEnumerable_GetEnumerator_TisByte_t1134296376_m1979205379_gshared
opd:_MonoProperty_CreateGetterDelegate_m2478402519
xwc:__ZN16NovodexAllocator8allocateEjPKcS1_i
Z$a:__ZN39DeprecatedFastPropertyNameSerialization8TransferI14SafeBinaryReadEEvRT_
Nni:_DeriveBytes_DeriveIV_m973925711
sPd:_Int32_System_IConvertible_ToSByte_m3133688512
iGi:__ZL24UnresolvedVirtualCall_13P12Il2CppObjectaPK10MethodInfo
tci:_ReadOnlyCollection_1_System_Collections_IList_IndexOf_m848971554_gshared
pTb:__ZN9ShaderLab10GrabPassesD2Ev
DYe:_ScrollRect_CalculateOffset_m927043599
s8a:__ZN14Texture2DArray13UploadTextureEv
FUe:_MaskableGraphic_UpdateCull_m2805101913
zDc:_tt_cmap14_done
sgb:__ZN18AwakeFromLoadQueue25RegisterObjectInstanceIDsEv
Uw:__ZNK27AnimationLayerMixerPlayable11DerivesFromE17ScriptingClassPtr
LJc:__ZN20TextRenderingPrivate19NativeTextGenerator15InsertCharacterEiPj
EFg:__Z77RuntimeInvoker_Void_t1185182177_RuntimeObject_SByte_t1669577662_RuntimeObjectPFvvEPK10MethodInfoPvPS4_
kGg:__Z81RuntimeInvoker_Void_t1185182177_RuntimeObject_SByte_t1669577662_SByte_t1669577662PFvvEPK10MethodInfoPvPS4_
SZd:_MonoType_get_attributes_m1332507727
Yxi:_GUIContent_ClearStaticCache_m1205116045
y4g:_List_1_System_Collections_IList_get_IsFixedSize_m203251153_gshared
Bv:__ZN17AnimationPlayableD0Ev
Mwb:__Z18Transfer_BlittableI19StreamedBinaryWriteILb0EELb0EyEvRK29SerializationCommandArgumentsR31RuntimeSerializationCommandInfo
BMe:_BinaryCommon__cctor_m2978407547
BBd:_Char_System_IConvertible_ToByte_m2347554595
bci:_ReadOnlyCollection_1_GetEnumerator_m1017886827_gshared
ioh:__ZL47ASN1_t2114160832_CustomAttributesCacheGeneratorP21CustomAttributesCache
sLc:__ZN20TextRenderingPrivate15DynamicFontData21GetFontMetricsForFaceERK13dynamic_arrayIN4core17string_with_labelILi35EEELj4EEiRKS1_I4PPtrIN13TextRendering4FontEELj4EEPfSF_
Uji:_IndexedSet_1__ctor_m2250384602_gshared
uVf:_DefaultComparer__ctor_m1306123661_gshared
Peg:_UInt16_TryParse_m4139137016
Gkj:__ZN6il2cpp5utils13dynamic_arrayIPNS_2os6ThreadELj4EE9push_backEv
Dmj:__ZN6il2cpp2gc16GarbageCollector9FreeFixedEPv
y5f:_Encoding__ctor_m2997749867
_og:_ManagedStreamHelpers_ManagedStreamSeek_m3158782053
Gui:_ExpressionAssertion_Compile_m2166597834
lDb:__ZN16ScriptingManagerD0Ev
Oof:_Single_System_IConvertible_ToSByte_m1208276900_AdjustorThunk
ipj:__ZN6il2cpp6icalls8mscorlib6System7Convert24InternalFromBase64StringEP12Il2CppStringb
PWf:_EqualityComparer_1__ctor_m2241711498_gshared
Ith:__ZL58ChannelServices_t3942013484_CustomAttributesCacheGeneratorP21CustomAttributesCache
igj:__ZN30dense_hashtable_const_iteratorINSt3__24pairIK10KeyWrapperINS1_IPKcS4_EEEiEES6_24NamespaceAndNamePairHashN14dense_hash_mapIS6_iS9_NS6_14EqualsComparerI26NamespaceAndNamePairEqualsEENS0_9allocatorIS8_EEE9SelectKeyESD_SF_EppEv
Gfc:__Z44Register_UnityEngine_Component_get_transformv
yXg:__Z48RuntimeInvoker_Void_t1185182177_Link_t3209266973PFvvEPK10MethodInfoPvPS4_
UB:__ZN12_GLOBAL__N_120ProcessPlayableGraphERN8Animator11AnimatorJobER35AnimationPlayableEvaluationConstantR32AnimationPlayableEvaluationInputR33AnimationPlayableEvaluationOutputPFvS4_R17AnimationPlayableEPFvS4_S6_S8_EPFvS8_S4_S6_S8_fESE_MS9_FvPS3_PS5_PS7_E
HMi:_CanvasRenderer_get_absoluteDepth_m2703237819
hGf:_TextInfo_ToLower_m2744057472
YJb:__ZN17ArchiveFileSystem12MountArchiveEPKcS1_
KYf:_EqualityComparer_1_System_Collections_IEqualityComparer_Equals_m3977314386_gshared
$qc:__Z18Transfer_BlittableI9JSONWriteLb1E8Vector4fEvRK29SerializationCommandArgumentsR31RuntimeSerializationCommandInfo
wn:FUNCTION_TABLE_viififiii
oDf:_CCGregorianCalendar_year_from_fixed_m463929682
QNc:__ZN2UI13CanvasManagerD0Ev
EX:__ZThn32_NK8Renderer14GetSubsetIndexEi
ulg:_Debug_get_unityLogger_m2239795986
N7d:_MD2Managed_Initialize_m2341076836
qci:_ReadOnlyCollection_1_System_Collections_IList_Add_m4240023232_gshared
wra:__ZN9GfxDevice15ImmediateVertexEfff
A2b:__Z13RegisterClassI8MaterialEvv
f4a:__ZNK16LightmapSettings22GetTypeVirtualInternalEv
fUa:__ZN16GraphicsSettings13AwakeFromLoadE17AwakeFromLoadMode
Vp:__ZN6Object13AwakeFromLoadE17AwakeFromLoadMode
Ooa:__ZN13GfxDeviceGLES15SetStencilStateEPK18DeviceStencilStatei
pAd:_Buffer_BlockCopyInternal_m418318694
kzj:_cycle
pig:_AssetBundleCreateRequest_t3119663542_marshal_pinvoke
_oj:__ZN6il2cpp2vm8Profiler7GCEventE13Il2CppGCEvent
EEg:__Z76RuntimeInvoker_Void_t1185182177_RuntimeObject_RuntimeFieldHandle_t1871169219PFvvEPK10MethodInfoPvPS4_
coi:_PKCS12_Finalize_m507756088
Dd:_emscripten_glUniform1iv
uag:_Thread_get_ManagedThreadId_m1068113671
imb:__ZN16MemoryFileSystemD2Ev
VEg:__Z150RuntimeInvoker_Int32_t2950945753_RuntimeObject_Int32_t2950945753_Int32_t2950945753_RuntimeObject_Int32_t2950945753_Int32_t2950945753_Int32_t2950945753PFvvEPK10MethodInfoPvPS4_
Syd:_BitConverter_DoubleToInt64Bits_m3574395137
jvf:_DateTime_Parse_m3729096069
w2g:_List_1_System_Collections_IList_Add_m1540114404_gshared
uie:_InternalEnumerator_1_System_Collections_IEnumerator_Reset_m81420524_AdjustorThunk
ofc:__Z37Register_UnityEngine_Camera_get_depthv
YWd:_StringReader_Read_m3322058819
kEe:_CrossAppDomainChannel_get_ChannelPriority_m3418073750
TVf:_EqualityComparer_1__ctor_m1860346363_gshared
BRe:_Selectable_StartColorTween_m3618813981
w_c:_BaseInputModule_HandlePointerExitAndEnter_m1705532066
dmd:_EventInfo__ctor_m3033129999
_1b:__ZN15ApplicationInfo16GetInstallerNameEv
K$b:__Z23ConvertIntegerToTypePtrItEbPvR14SafeBinaryRead
Pzf:_Delegate_CombineImpl_m3572135514
cOd:_NumberFormatter_IntegerToString_m1679294587
akf:_SHA256Managed_AddLength_m1060552216
I9h:_ReadOnlyCollection_1_System_Collections_IList_RemoveAt_m422909114_gshared
zC:__ZN7mecanim5human29HumanGetGoalOrientationOffsetENS0_4GoalE
Ud:_emscripten_glStencilFunc
ZYh:__ZL78LayoutRebuilder_t541313304_CustomAttributesCacheGenerator_U3CU3Ef__amU24cache2P21CustomAttributesCache
d3h:_Dictionary_2_Do_CopyTo_TisKeyValuePair_2_t3699644050_TisRuntimeObject_m2224738096_gshared
bGi:__ZL23UnresolvedVirtualCall_6P12Il2CppObjectiPK10MethodInfo
i2c:__Z46il2cpp_codegen_get_marshal_directive_exceptionPKc
ePe:_InputField_get_isFocused_m709836844
$d:_glGetActiveUniformBlockName
uSh:__ZL90PointerEventData_t3807901092_CustomAttributesCacheGenerator_U3CpointerIdU3Ek__BackingFieldP21CustomAttributesCache
Kf:_emscripten_glUniform1fv
Khc:__Z39Quaternion_CUSTOM_INTERNAL_CALL_InverseRK11QuaternionfRS_
TTa:__ZNK4PPtrI5FlareEcvPS0_Ev
bJ:__ZN4FMOD7Channel20set3DConeOrientationEP11FMOD_VECTOR
nn:FUNCTION_TABLE_iiifii
Sfd:_AssemblyBuilder_not_supported_m1735277432
Sqe:_InternalEnumerator_1_MoveNext_m1344185775_AdjustorThunk
Kjj:__ZN6il2cpp2vm12GenericClass11SetupEventsEP11Il2CppClass
xGc:_tt_delta_interpolate
kBi:_EndingController_Continue_m3688977736
XDc:_tt_cmap12_get_info
sfj:__ZN6il2cpp2vm15ReboxIReferenceEP14Il2CppIUnknownP11Il2CppClass
u1f:_Enumerator__ctor_m2029608698_AdjustorThunk
aOi:__ZN6il2cpp6icalls8mscorlib6System7Decimal14decimalCompareEP19il2cpp_decimal_reprS5_
FCe:_Dictionary_2_OnDeserialization_m4209543208_gshared
Fpj:__ZThn4_N6il2cpp2vm13CachedCCWBaseINS0_13ManagedObjectEE7ReleaseEv
Sng:_GameObject_AddComponent_m136524825
Cuh:__ZL62SoapMethodAttribute_t1935009310_CustomAttributesCacheGeneratorP21CustomAttributesCache
jOg:__Z100RuntimeInvoker_Void_t1185182177_RuntimeObject_Int32_t2950945753_Int32_t2950945753_UInt16_t2177724958PFvvEPK10MethodInfoPvPS4_
$0a:__ZNSt3__26__treeINS_12__value_typeIN9ShaderLab16FastPropertyNameE10ColorRGBAfEENS_19__map_value_compareIS3_S5_NS_4lessIS3_EELb1EEENS_9allocatorIS5_EEE12__find_equalIS3_EERPNS_16__tree_node_baseIPvEENS_21__tree_const_iteratorIS5_PNS_11__tree_nodeIS5_SF_EEiEESI_RKT_
dKj:_glCopyTexImage2D__wrapper
VAf:_Double_System_IConvertible_ToUInt32_m271206838
K7:__GLOBAL__sub_I_runtime_graphics_billboard_0_cpp
kHb:__Z18ClearByDrawingQuad13GfxClearFlagsRK10ColorRGBAffjR17ShaderPassContext
wAa:__ZN6prcoreL17RemapGenericFloatI14TexFormatRHalf15TexFormatRFloatEEvPKNS_9InnerInfoE
Dzc:_cf2_getBlueValues
JNb:__Z16ShouldUseShadowsb
dea:__ZN15DirectorManager21RebuildStageCallbacksEv
xHb:__ZN19RuntimeSceneManager9LoadSceneERKN4core12basic_stringIcNS0_20StringStorageDefaultIcEEEES6_S6_RK9UnityGUIDiNS_11LoadingModeE
AGi:__ZL24UnresolvedVirtualCall_31P12Il2CppObjectiS0_S0_PK10MethodInfo
Ota:__ZN7ApiGLES10DrawArraysE16GfxPrimitiveTypejjj
yG:__ZN10SampleClip13LoadBaseSoundEv
Fud:_SmallXmlParser_SkipWhitespaces_m4243606597
cEf:_CompareInfo_IndexOf_m2631915198
ygd:_ConstructorBuilder_GetCustomAttributes_m2495332786
THe:_MethodCall__ctor_m3669645
P$c:_TriggerEvent__ctor_m87299207
AMg:__Z48RuntimeInvoker_ExchangeAlgorithmType_t1320888206PFvvEPK10MethodInfoPvPS4_
eQ:__Z57AudioSource_CUSTOM_INTERNAL_CALL_ClearExtensionPropertiesP12Il2CppObjectRK12PropertyName
Yij:__ZN15dense_hashtableINSt3__24pairIK10KeyWrapperIP12Il2CppObjectEN6il2cpp2gc9CachedCCWEEES5_NS7_5utils11PointerHashIS3_EEN14dense_hash_mapIS5_S9_SD_NS5_14EqualsComparerINS0_8equal_toIS4_EEEENS0_9allocatorISA_EEE9SelectKeyESI_SK_E15insert_noresizeERKSA_
K9d:_CertificateValidationCallback2__ctor_m1685875113
Qca:__ZL50StaticRegisterSceneLoadedCallback_LightmapSettingsPv
b1a:__ZN22DeviceMVPMatricesStateC2ER9GfxDevice
Lkh:__ZL48Double_t594665363_CustomAttributesCacheGeneratorP21CustomAttributesCache
Zm:FUNCTION_TABLE_iifii
Nog:_Logger_set_logEnabled_m1180597166
EFd:_Comparer_Compare_m3984347512
m4a:__ZN21EnlightenSceneMapping8TransferI14SafeBinaryReadEEvRT_
b7i:__ZN6il2cpp2vm10Reflection12HasAttributeEP9FieldInfoP11Il2CppClass
Mm:FUNCTION_TABLE_iiffi
hc:invoke_viiifi
npd:_MonoProperty_GetCustomAttributes_m3619796755
TYi:__ZNSt3__214__split_bufferIP11Il2CppClassRNS_9allocatorIS2_EEEC2EjjS5_
hJe:_MethodDictionary_System_Collections_IEnumerable_GetEnumerator_m4169036899
Kud:__ZN23InterfaceActionInvoker2IP8String_tP12Il2CppObjectE6InvokeEjP11Il2CppClassS3_S1_S3_
VLa:__ZNK11AssetBundle14GetPreloadDataEiR13dynamic_arrayIiLj4EE
qif:_RIPEMD160Managed_JJJ_m4161373884
VDe:_CrossContextChannel__ctor_m3755842292
XTf:_DefaultComparer_Equals_m3257444875_gshared
jf:_JS_Sound_SetPosition
XYa:__ZN19RenderBufferManager13GetTempBufferEii17DepthBufferFormat19RenderTextureFormatj22RenderTextureReadWrite14VRTextureUsagei23RenderTextureMemoryless
GVi:__ZL13GetSharedInstPK17Il2CppGenericInst
YSh:__ZL98PointerEventData_t3807901092_CustomAttributesCacheGenerator_PointerEventData_get_delta_m1062010255P21CustomAttributesCache
q1g:_List_1_get_Count_m634446588_gshared
SSc:__ZN22BaseUnityConnectClient17SaveSessionValuesEv
eke:_InternalEnumerator_1_get_Current_m476140818_gshared
b4g:_List_1_Sort_m4240158523_gshared
aAg:_WaitForEndOfFrame__ctor_m1381314187
vTb:__Z24SetupActiveLightsContextR21ActiveLightingContextRK12ActiveLightsRK11CullResultsP14ShadowMapCacheRK10MinMaxAABB
I3c:_AnimationTriggers_set_disabledTrigger_m933056574
Vic:__Z38Sprite_CUSTOM_INTERNAL_get_textureRectP12Il2CppObjectP5RectTIfE
P5i:__ZNK15dense_hashtableINSt3__24pairIK10KeyWrapperIPK22Il2CppGenericParameterEPK24MonoGenericParameterInfoEES6_N6il2cpp5utils11PointerHashIS4_EEN14dense_hash_mapIS6_SA_SF_NS6_14EqualsComparerINS0_8equal_toIS5_EEEENS0_9allocatorISB_EEE9SelectKeyESK_SM_E3endEv
O0g:_List_1_Add_m238442097_gshared
bdc:__ZN9TextAsset7SetTextERKN4core12basic_stringIcNS0_20StringStorageDefaultIcEEEE
ASa:__ZN6Camera8TransferI24GenerateTypeTreeTransferEEvRT_
Ha:invoke_iiiiiiif
Ea:invoke_iiiiiiii
MQf:_Array_InternalArray__set_Item_TisByte_t1134296376_m3104140039_gshared
sug:_Rect_ToString_m447614148
poi:_PKCS12_GetBytes_m415958948
Qbe:_Context_get_HandshakeState_m2425796590
NWb:__ZN8Renderer17PendingAddToSceneEv
vih:_Collection_1_System_Collections_IList_set_Item_m2625856224_gshared
ZNj:b122
aOj:b125
$Nj:b124
hOj:b127
cOj:b126
mOj:b129
kic:__Z52Register_UnityEngine_RectTransform_INTERNAL_get_rectv
lqg:_Mesh_SetSizedArrayForChannel_m2565120436
t_:__Z21PostprocessStacktracePKcRN4core12basic_stringIcNS1_20StringStorageDefaultIcEEEE
$og:_ManagedStreamHelpers_ManagedStreamLength_m2930872960
neb:__ZN18StreamedBinaryReadILb0EE21TransferSTLStyleArrayI13dynamic_arrayI16SplashScreenLogoLj4EEEEvRT_17TransferMetaFlags
$mi:_BasicConstraintsExtension_Encode_m2009213240
zfc:__Z47Register_UnityEngine_Camera_get_allCamerasCountv
p5c:___clang_call_terminate
VSc:__ZN22BaseUnityConnectClient20StartEventDispatcherEv
Nac:__ZNSt3__26vectorIj13stl_allocatorIjL18MemLabelIdentifier1ELi16EEE6assignIPKtEENS_9enable_ifIXaasr21__is_forward_iteratorIT_EE5valuesr16is_constructibleIjNS_15iterator_traitsIS9_E9referenceEEE5valueEvE4typeES9_S9_
kB:__ZN7mecanim9animation16EvaluateAvatarIKEPKNS0_14AvatarConstantEPKNS0_11AvatarInputEPNS0_12AvatarOutputEPNS0_12AvatarMemoryEPNS0_15AvatarWorkspaceEb
cCa:__ZL25ProgramUniformMatrix4x3fvPK7ApiGLESjiihPKv
b$b:__Z29StdTemplateConversionFunctionIsiEbPvR14SafeBinaryRead
iLb:__ZN12InputManager13InputEndFrameEv
eYi:__ZNSt3__26__treeIP11Il2CppClassNS_4lessIS2_EENS_9allocatorIS2_EEE25__emplace_unique_key_argsIS2_JRKS2_EEENS_4pairINS_15__tree_iteratorIS2_PNS_11__tree_nodeIS2_PvEEiEEbEERKT_DpOT0_
Aqg:_Object_get_name_m4211327027
Paj:__ZN6il2cpp2vm6Thread5SetupEP12Il2CppThread
A7h:_ReadOnlyCollection_1_System_Collections_IList_get_IsReadOnly_m1248651675_gshared
Fxe:_Enumerator_System_Collections_IDictionaryEnumerator_get_Key_m2500634048_gshared
SKi:_TextGenerator_t3211863866_marshal_pinvoke_back
pAj:___munmap
ag:_localtime_r
oMb:__ZN22RenderingCommandBuffer13GetAndCheckRTE24BuiltinRenderTextureTypeRKN9ShaderLab16FastPropertyNameEPKcPP13RenderTexture
Fca:__ZN14GfxDoubleCacheIyP17VertexDeclaration14GfxGenericHashIyENSt3__28equal_toIyEEN31GfxDoubleCacheConcurrencyPolicy11LocklessGetE42GfxDoubleCacheDefaultEmptyDeletedGeneratorIyEEC2Ev
ane:_InternalEnumerator_1_System_Collections_IEnumerator_Reset_m3619766341_AdjustorThunk
PW:__Z19free_alloc_internalPv10MemLabelId
zuh:__ZL56ReturnMessage_t1376985608_CustomAttributesCacheGeneratorP21CustomAttributesCache
e8f:_UTF32Decoder_GetChars_m1925558948
dg:_strftime
VEa:__ZN7Texture33SetStoredColorSpaceNoDirtyNoApplyE17TextureColorSpace
crd:_ResourceSet__ctor_m3618395942
Rxf:_Decimal_System_IConvertible_ToDouble_m3125524987_AdjustorThunk
u1:__ZN12FileAccessorD2Ev
e7:__ZN10ColorRGBAf8TransferI18StreamedBinaryReadILb0EEEEvRT_
KWa:__ZN14VertexDataInfoC2Ev
nmj:__ZN6il2cpp2gc16GarbageCollector14CollectALittleEv
AIh:__ZL87Sprite_t280657092_CustomAttributesCacheGenerator_Sprite_INTERNAL_get_border_m3728071101P21CustomAttributesCache
x8b:__ZNK9HPlayable15GetPlayableTypeEv
TYg:__Z117RuntimeInvoker_Void_t1185182177_CustomAttributeTypedArgumentU5BU5DU26_t2503877664_Int32_t2950945753_Int32_t2950945753PFvvEPK10MethodInfoPvPS4_
Vyb:__ZL17Transfer_GUIStyleI18StreamedBinaryReadILb1EELb1EEvRK29SerializationCommandArgumentsR31RuntimeSerializationCommandInfo
RVe:_RectMask2D_IsRaycastLocationValid_m1652308696
zYi:__ZN6il2cpp6icalls8mscorlib6SystemL9IsPrivateEPK12PropertyInfo
yoi:_X501_ToString_m1148552872
hvg:_RectTransform_add_reapplyDrivenProperties_m1374850920
S9:__ZN9shadertag10InitializeEv
zVg:__Z69RuntimeInvoker_Void_t1185182177_Int32_t2950945753_Color32_t2600501292PFvvEPK10MethodInfoPvPS4_
WNb:__ZN13BatchRenderer20RenderSingleWithPassER17ShaderPassContextPK18SharedMaterialDataP6ShaderPN9ShaderLab4PassEiPKNS7_10GrabPassesEjib15BatchBreakCause
PRi:__ZN15dense_hashtableINSt3__24pairIK10KeyWrapperIPK19Il2CppGenericMethodEPK26Il2CppGenericMethodIndicesEES6_N6il2cpp8metadata23Il2CppGenericMethodHashEN14dense_hash_mapIS6_SA_SE_NS6_14EqualsComparerINSD_26Il2CppGenericMethodCompareEEENS0_9allocatorISB_EEE9SelectKeyESI_SK_ED2Ev
C5a:__ZN15QualitySettings14QualitySetting8TransferI24GenerateTypeTreeTransferEEvRT_
Hvj:__ZN6il2cpp5utils6Memory11AlignedFreeEPv
wae:_Context_get_ClientWriteKey_m3174706656
YRh:__ZL77ExecuteEvents_t3484638744_CustomAttributesCacheGenerator_U3CU3Ef__mgU24cache7P21CustomAttributesCache
jPe:_InputField_get_textComponent_m948764648
zkc:__Z44Register_UnityEngine_Object_DestroyImmediatev
ILd:_Convert_ToSingle_m835189399
P9b:__ZN22BlockMemoryCacheWriter14LockCacheBlockEjPPhS1_
Qmc:__ZNSt3__218__insertion_sort_3IRPFbPKN5IMGUI9GUIWindowES4_EPPS2_EEvT0_SA_T_
Y1d:_CryptographicUnexpectedOperationException__ctor_m69881930
Uwh:__ZL73TripleDESCryptoServiceProvider_t3595206342_CustomAttributesCacheGeneratorP21CustomAttributesCache
Hbh:_Collection_1_SetItem_m1218178236_gshared
Luc:__Z22TransferField_NonArrayI8JSONRead27Converter_SimpleNativeClassI8GUIStyleEEvRK23StaticTransferFieldInfoR31RuntimeSerializationCommandInfoRT0_
OSi:__ZN15dense_hashtableI10KeyWrapperIPK19Il2CppGenericMethodES4_N6il2cpp8metadata23Il2CppGenericMethodHashEN14dense_hash_setIS4_S7_NS4_14EqualsComparerINS6_26Il2CppGenericMethodCompareEEENSt3__29allocatorIS4_EEE8IdentityESB_SE_E16reset_thresholdsEv
Kg:_llvm_eh_typeid_for
r2b:__Z13RegisterClassI10GameObjectEvv
dGd:_CollectionBase_OnClear_m883003723
RIe:_RemotingServices_FindInterfaceMethod_m2125212568
nz:__ZNK23AnimationPlayableOutput7GetTypeEv
FWd:_StreamWriter__cctor_m1229272693
MBf:_Enum_System_IConvertible_ToSByte_m779472798
Ocg:_Type_get_IsInterface_m3284996719
Pje:_InternalEnumerator_1_MoveNext_m1543390728_gshared
hBb:__Z18Transfer_BlittableI18StreamedBinaryReadILb0EELb1E8Vector4fEvRK29SerializationCommandArgumentsR31RuntimeSerializationCommandInfo
XFf:_SortKey_get_OriginalString_m1428586816
DVg:__Z51RuntimeInvoker_Void_t1185182177_Vector4_t3319028937PFvvEPK10MethodInfoPvPS4_
ITf:_Dictionary_2_U3CCopyToU3Em__0_m2023886030_gshared
UVg:__Z64RuntimeInvoker_Boolean_t97287965_RefEmitPermissionSet_t484390987PFvvEPK10MethodInfoPvPS4_
BMj:_glBindVertexArray__wrapper
vNe:_SerializationInfo__ctor_m2923079689
E$a:__ZN8Material8TransferI14SafeBinaryReadEEvRT_
P1a:__ZN12CubemapArray17UploadToGfxDeviceEv
bfi:_Func_2__ctor_m1150804732_gshared
HNd:_Int32_JumpOverWhite_m208298144
o$h:__ZL116U3CCrossFadeU3Ec__Iterator0_t3936085357_CustomAttributesCacheGenerator_U3CCrossFadeU3Ec__Iterator0__ctor_m1384238123P21CustomAttributesCache
zaj:__ZN24dense_hashtable_iteratorINSt3__24pairIK10KeyWrapperIP11Il2CppClassES4_EES5_N6il2cpp8metadata16SZArrayClassHashEN14dense_hash_mapIS5_S4_SA_NS5_14EqualsComparerINS9_19SZArrayClassCompareEEENS0_9allocatorIS7_EEE9SelectKeyESE_SG_E30advance_past_empty_and_deletedEv
sXg:__Z53RuntimeInvoker_Int32_t2950945753_UIVertex_t4057497605PFvvEPK10MethodInfoPvPS4_
CLj:_emscripten_glGetUniformiv__wrapper
ypj:__ZN6il2cpp2vm13ManagedObject14QueryInterfaceERK10Il2CppGuidPPv
WG:__ZN11AudioSource4StopEb
Pqb:__ZN14SafeBinaryRead21TransferSTLStyleArrayI13dynamic_arrayI10Matrix4x4fLj4EEEEvRT_17TransferMetaFlags
nTa:__ZN15LODGroupManager26CollectAllLODGroupManagersERK16CoreCameraValuesR13dynamic_arrayIPS_Lj4EEb
huj:__ZN6il2cpp2os14WindowsRuntime13DeleteHStringEP15Il2CppHString__
yfg:_UInt32_System_IConvertible_ToUInt32_m1744564280_AdjustorThunk
uHa:__ZN18GlslGpuProgramGLESD2Ev
aZb:__ZN13RenderTexture14SetVolumeDepthEi
nS:__ZN11UnityEngine15CloudWebService14DataErrorEvent12ToJsonStringERN4core12basic_stringIcNS2_20StringStorageDefaultIcEEEEjPKc
BNg:__Z86RuntimeInvoker_Void_t1185182177_UInt16_t2177724958_SByte_t1669577662_SByte_t1669577662PFvvEPK10MethodInfoPvPS4_
Rma:__Z22LoadGpuProgramFromDataPKhS0_Rj
pvc:__ZN10Matrix4x4f8TransferI8JSONReadEEvRT_
HIc:__ZN14SafeBinaryRead21TransferSTLStyleArrayI13dynamic_arrayIN4core17string_with_labelILi35EEELj4EEEEvRT_17TransferMetaFlags
BVe:_PositionAsUV1_ModifyMesh_m4231919476
JGd:_Hashtable__ctor_m1941859523
Mxi:_WindowFunction__ctor_m2544237635
Tue:_Comparer_1_get_Default_m1947376189_gshared
cYe:_ScrollRect_set_horizontalScrollbarSpacing_m2209919081
MY:__ZN17PersistentManager18ReadObjectThreadedEi
kEa:__ZN25TransformFeedbackSkinning31CleanupTransformFeedbackShadersEv
m_h:__ZL64EndingController_t1669716513_CustomAttributesCacheGenerator_fadeP21CustomAttributesCache
bTa:__Z22scripting_object_unbox18ScriptingObjectPtr
HHe:_AsyncResult_get_NextSink_m1844209137
NJc:__ZNK20TextRenderingPrivate8FontImpl19GetCharacterAdvanceEjijfPj
iOf:_Array_InternalArray__ICollection_Add_TisUriScheme_t722425697_m3142345403_gshared
Nyj:_fmt_u
X2h:_Dictionary_2_Do_CopyTo_TisDictionaryEntry_t3123975638_TisDictionaryEntry_t3123975638_m1126292988_gshared
p7a:__ZN10VertexData8TransferI18StreamedBinaryReadILb0EEEEvRT_
Oxj:__ZN6il2cpp8metadata25Il2CppGenericClassCompare7CompareEPK18Il2CppGenericClassS4_
t_d:_MonoType_get_Assembly_m4290914179
Wlh:__ZL70RuntimeArray_CustomAttributesCacheGenerator_Array_GetValue_m1062368071P21CustomAttributesCache
Lna:__ZN9ShaderLab7ProgramC2E10MemLabelIdi10ShaderType
mZb:__ZN14PreloadManager16UpdatePreloadingEv
g2:__ZN12BaseRendererD2Ev
Oqf:_String_LastIndexOf_m95398196
x0h:_Array_InternalArray__set_Item_TisUILineInfo_t4195266810_m2313892078_gshared
sqe:_InternalEnumerator_1_System_Collections_IEnumerator_Reset_m3355902602_AdjustorThunk
Vrg:_PlayableAsset__ctor_m2395156306
wTh:__ZL79StandaloneInputModule_t2760469101_CustomAttributesCacheGenerator_m_SubmitButtonP21CustomAttributesCache
OV:__ZNK21UnityDefaultAllocatorI17LowLevelAllocatorE8ContainsEPKv
QWi:__ZNSt3__213__vector_baseI6pollfdNS_9allocatorIS1_EEED2Ev
u0d:_RuntimeTypeHandle_Equals_m2857439487
Uh:_emscripten_get_main_loop_timing
zsd:_SafeHandle_Finalize_m3866180675
B5a:__ZN24GenerateTypeTreeTransfer21TransferSTLStyleArrayINSt3__26vectorIN15QualitySettings14QualitySettingENS1_9allocatorIS4_EEEEEEvRT_17TransferMetaFlags
iVd:_MemoryStream_ToArray_m3911744835
exe:_Enumerator_System_Collections_IDictionaryEnumerator_get_Entry_m859540448_AdjustorThunk
cUg:__Z72RuntimeInvoker_Boolean_t97287965_RaycastHitU26_t2429360258_RuntimeObjectPFvvEPK10MethodInfoPvPS4_
Cxj:__ZN6il2cpp2os5Event4WaitEjb
pdg:_Type_GetHashCode_m1947148725
LIg:__Z91RuntimeInvoker_Void_t1185182177_RuntimeObject_RuntimeObject_RuntimeObject_SByte_t1669577662PFvvEPK10MethodInfoPvPS4_
xjb:__ZNK2UI13RectTransform22GetTypeVirtualInternalEv
ep:getTempRet0
snf:_StrongName_get_Version_m4243032012
pne:_InternalEnumerator_1_MoveNext_m2234422530_gshared
k0i:__ZN6il2cpp2gc19AppendOnlyGCHashMapINSt3__24pairIPK14Il2CppAssemblyP11Il2CppClassEEP24Il2CppReflectionAssembly17ReflectionMapHashIS9_ENS2_8equal_toIS9_EEE10CopyValuesEPv
Q_c:_BaseRaycaster_OnEnable_m2678466030
qwe:_Enumerator_get_CurrentKey_m627428048_AdjustorThunk
eng:_UnityEventBase__ctor_m1851535676
v2h:_Array_Sort_TisVector4_t3319028937_m2797285308_gshared
nde:_HandshakeMessage_Update_m2417837686
tih:_Collection_1_System_Collections_IList_get_Item_m3314684800_gshared
lcj:__ZN6il2cpp6icalls8mscorlib6System9ThreadingL21lookup_cached_cultureEP12Il2CppThreadi
Itj:__ZN6il2cpp2os11EventHandleD2Ev
Bmg:_NetFxCoreExtensions_CreateDelegate_m751211712
mUb:__ZN18DeferredRenderLoopD2Ev
jNi:_AnimationLayerMixerPlayable__cctor_m4086299972
G2:__ZNK16TypeTreeIterator4NameEv
tgh:_Collection_1_CopyTo_m756458445_gshared
U0:__ZN15FileSystemEntry3SetEPKc
rgd:_ConstructorBuilder_Invoke_m3010446651
K3c:_AspectRatioFitter_get_aspectMode_m3735191157
qaf:_IPv6Address_set_ScopeId_m3907190992
G6h:_ReadOnlyCollection_1_System_Collections_Generic_IListU3CTU3E_Insert_m568455025_gshared
MI:__ZN20SoundChannelInstance15ParameterBuffer5ApplyEPN4FMOD7ChannelE
eaf:_IPv6Address__ctor_m4117281080
TGh:__ZL88GameObject_t1113636619_CustomAttributesCacheGenerator_GameObject_SendMessage_m3720186693P21CustomAttributesCache
KJc:__ZN20TextRenderingPrivate19NativeTextGenerator9InsertTabEv
eDj:_sbrk
KRg:__Z66RuntimeInvoker_Boolean_t97287965_Vector2_t2156229523_RuntimeObjectPFvvEPK10MethodInfoPvPS4_
Tdh:_Collection_1_System_Collections_Generic_ICollectionU3CTU3E_get_IsReadOnly_m1032650589_gshared
j2f:_Enumerator_VerifyState_m3474272061_AdjustorThunk
wTc:__ZN11UnityEngine15PlatformWrapper24GetRuntimePlatformStringEv
Ei:_glIsEnabled
Xib:__ZN15CacheWriterBaseD2Ev
Xfd:_DerivedType__ctor_m1853298054
Epb:__Z25scripting_class_get_image17ScriptingClassPtr
Qnf:_SecurityException__ctor_m836898292
W3f:_List_1_RemoveAt_m2730968292_gshared
Wfb:__ZNSt3__26vectorIN4core12basic_stringIcNS1_20StringStorageDefaultIcEEEE13stl_allocatorIS5_L18MemLabelIdentifier13ELi16EEEC2INS_11__wrap_iterIPS5_EEEET_SE_RKS8_PNS_9enable_ifIXaasr21__is_forward_iteratorISE_EE5valuesr16is_constructibleIS5_NS_15iterator_traitsISE_E9referenceEEE5valueEvE4typeE
Ii:_emscripten_glDrawElementsInstanced
ay:__ZN26AnimatorControllerPlayable27SetupStateMachineBehavioursEv
kKf:_Array_InternalArray__IEnumerable_GetEnumerator_TisSlot_t3975888750_m1869932007_gshared
PSe:_LayoutGroup_get_preferredWidth_m3816902260
RUa:__ZN18JobBatchDispatcherD2Ev
sjb:__ZN9Transform17MainThreadCleanupEv
psj:_GC_clear_hdr_marks
xNj:_emscripten_glCreateShader__wrapper
Uxc:_cff_fd_select_get
k$e:_Text_set_resizeTextForBestFit_m4095249125
ncf:_OidEnumerator_MoveNext_m3138911739
dWg:__Z53RuntimeInvoker_Boolean_t97287965_Keyframe_t4206410242PFvvEPK10MethodInfoPvPS4_
Ti:_emscripten_glGetShaderiv
MJ:__ZN4FMOD6System10getVersionEPj
VMc:__ZN2UI6Canvas23VirtualRedirectTransferER24GenerateTypeTreeTransfer
tZe:_Selectable_set_animationTriggers_m2970345687
dhh:_Collection_1_CopyTo_m4271769704_gshared
Tsc:__ZN9JSONWrite8TransferIN4math12int2_storageEEEvRT_PKc17TransferMetaFlags
tIc:__ZN13TextRendering4Font13AwakeFromLoadE17AwakeFromLoadMode
iEf:_CompareInfo_LastIndexOf_m2688553706
ABf:_Enum__ctor_m3602080049
aqa:__ZN9GfxDevice21ReleaseSharedMeshDataEP14SharedMeshData
G1c:_MouseState__ctor_m1467839005
Svi:_Uri_IsDomainAddress_m2867513594
ddb:__ZNSt3__27__sort5IRNS_6__lessINS_4pairIPKN5Unity4TypeE7Hash128EES8_EEPS8_EEjT0_SC_SC_SC_SC_T_
Nzh:__ZL79Convert_t2465617642_CustomAttributesCacheGenerator_Convert_ToDouble_m2949593046P21CustomAttributesCache
O8c:_Dropdown_CreateItem_m2954407740
wrj:_GC_unreachable_finalize_mark_proc
Kdf:_X509Chain_ProcessCrlExtensions_m236234529
Usj:_maybe_finalize
IQi:__ZN6il2cpp2vm5Class40GetInterfaceInvokeDataFromVTableSlowPathEPK12Il2CppObjectPK11Il2CppClassj
CMf:_Array_InternalArray__IndexOf_TisLabelData_t360167391_m1826525656_gshared
cic:__Z43RectTransform_CUSTOM_INTERNAL_get_anchorMaxP12Il2CppObjectP13Vector2fIcall
ZKi:_TextGenerator_INTERNAL_CALL_Populate_Internal_cpp_m4171649399
aGe:_RealProxy_get_ObjectIdentity_m2790771985
nFe:_RemotingConfiguration_RegisterChannelTemplate_m3105688054
qxf:_Decimal_Parse_m942471224
Y3a:__ZN8Material28UpdateHashesOnPropertyChangeEN9ShaderLab16FastPropertyNameE
Kch:_Collection_1_System_Collections_IList_get_Item_m1368877441_gshared
Iqh:__ZL56MethodBuilder_t2807316753_CustomAttributesCacheGeneratorP21CustomAttributesCache
k5d:_Locale_GetText_m3520169047
Oic:__Z53Register_UnityEngine_SortingLayer_GetLayerValueFromIDv
kHh:__ZL85RectOffset_t1369453676_CustomAttributesCacheGenerator_RectOffset_set_right_m807318764P21CustomAttributesCache
wob:__Z18Transfer_BlittableI14SafeBinaryReadLb1E8Vector4fEvRK29SerializationCommandArgumentsR31RuntimeSerializationCommandInfo
g_i:_SessionStateChanged_EndInvoke_m3128001178
Q3c:_AspectRatioFitter_SetDirty_m2910185270
XL:__ZN11AudioSource12AddToManagerEv
Os:__ZN8Animator23VirtualRedirectTransferER19StreamedBinaryWriteILb0EE
Jz:__ZN11UnityEngine9Animation32CreateAnimatorGenericBindingsOptERKNS0_20AnimationSetBindingsER9TransformPKN7mecanim9animation14AvatarConstantEPKNS0_21AvatarBindingConstantEbRNS6_6memory9AllocatorER8Animator
ngj:__ZN6il2cpp2vm5Image13ClassFromNameEPK11Il2CppImagePKcS6_
JDj:dynCall_vdddddd
Aka:__ZN24GenerateTypeTreeTransfer21TransferSTLStyleArrayINSt3__26vectorIN9ShaderLab14SerializedPassENS1_9allocatorIS4_EEEEEEvRT_17TransferMetaFlags
qaa:__ZL32MarkLevelGameManagerDependenciesR27GarbageCollectorThreadState
ysa:__ZNK13GfxDeviceGLES26HasActiveRandomWriteTargetEv
Faj:__GLOBAL__sub_I_Thread_cpp
lnh:__ZL54_MemberInfo_t3922476713_CustomAttributesCacheGeneratorP21CustomAttributesCache
rIj:_glGetActiveUniformsiv__wrapper
Lic:__Z43Register_UnityEngine_Material_EnableKeywordv
Eqg:_Mesh_GetIndices_m2873123901
e_:__ZN13MonoBehaviour19SetupScriptingCacheE17ScriptingClassPtrP10MonoScript
hXi:__ZNSt3__214__split_bufferIP12Il2CppThreadRNS_9allocatorIS2_EEED2Ev
cs:__Z20AnimationEventToMonoRK14AnimationEventR18MonoAnimationEvent
XTg:__Z106RuntimeInvoker_Void_t1185182177_Single_t1397266774_Single_t1397266774_Single_t1397266774_Int32_t2950945753PFvvEPK10MethodInfoPvPS4_
$6c:_FloatTween_set_targetValue_m3604919944_AdjustorThunk
tZ:__ZN17PersistentManager29ReadAndActivateObjectThreadedEiRK26SerializedObjectIdentifierP14SerializedFilebb
aDd:_ArrayList_get_IsReadOnly_m913775115
u1c:_PointerEventData_get_dragging_m746831934
bdg:_Type_get_TypeHandle_m160082026
pci:_ReadOnlyCollection_1_System_Collections_IEnumerable_GetEnumerator_m2781605075_gshared
Tda:__ZZN15DirectorManager15InitializeClassEvEN52PreLateUpdateDirectorUpdateAnimationBeginRegistrator7ForwardEv
WGf:_Array_get_swapper_TisCustomAttributeNamedArgument_t287865710_m4254011335_gshared
Sad:_Graphic_RegisterDirtyMaterialCallback_m106898453
byi:_GUILayoutEntry_get_margin_m3174861737
iKa:__ZN4PPtrI6SpriteE8TransferI14SafeBinaryReadEEvRT_
jWf:_EqualityComparer_1_System_Collections_IEqualityComparer_Equals_m1672604045_gshared
D9i:__ZN15dense_hashtableINSt3__24pairIK10KeyWrapperIP11Il2CppClassES4_EES5_N6il2cpp8metadata16SZArrayClassHashEN14dense_hash_mapIS5_S4_SA_NS5_14EqualsComparerINS9_19SZArrayClassCompareEEENS0_9allocatorIS7_EEE9SelectKeyESE_SG_E16reset_thresholdsEv
N5g:_List_1_GetEnumerator_m2095602005_gshared
Sja:__ZNSt3__26vectorIN9ShaderLab14SerializedPassENS_9allocatorIS2_EEE8__appendEj
bja:__ZNSt3__26vectorIN9ShaderLab20SerializedSubProgram13BufferBindingENS_9allocatorIS3_EEEC2INS_11__wrap_iterIPS3_EEEET_SB_RKS5_PNS_9enable_ifIXaasr21__is_forward_iteratorISB_EE5valuesr16is_constructibleIS3_NS_15iterator_traitsISB_E9referenceEEE5valueEvE4typeE
H$g:__Z37RuntimeInvoker_Enumerator_t3436819725PFvvEPK10MethodInfoPvPS4_
rsg:_PlayableOutputHandle_op_Equality_m388301694
b6f:_Encoding_get_ISOLatin1_m2107621369
r6d:_BigInteger_op_Inequality_m2697143438
YHh:__ZL89Mathf_t3464937446_CustomAttributesCacheGenerator_Mathf_SmoothDamp_m394423605____maxSpeed4P21CustomAttributesCache
klh:__ZL72IntPtr_t_CustomAttributesCacheGenerator_IntPtr_op_Inequality_m3063970704P21CustomAttributesCache
hoi:_SafeBag_get_ASN1_m2293701606
F3a:__ZN9Texture2D23VirtualRedirectTransferER18StreamedBinaryReadILb0EE
Itf:_DateTime_System_IConvertible_ToDouble_m2116720007_AdjustorThunk
tFd:_BitArrayEnumerator__ctor_m2359341397
w0f:_Enumerator_MoveNext_m1177880931_gshared
I1a:__ZNK12CubemapArray12GetDataWidthEv
rte:_DefaultComparer__ctor_m3288720761_gshared
IWg:__Z102RuntimeInvoker_Int32_t2950945753_RuntimeObject_Vector2_t2156229523_Int32_t2950945753_Int32_t2950945753PFvvEPK10MethodInfoPvPS4_
IRi:__ZN30dense_hashtable_const_iteratorINSt3__24pairIK10KeyWrapperIPKcEP11Il2CppClassEES5_N6il2cpp5utils11StringUtils12StringHasherIS4_EEN14dense_hash_mapIS5_S8_SE_NS5_14EqualsComparerINSB_13VmStringUtils21CaseSensitiveComparerEEENS0_9allocatorIS9_EEE9SelectKeyESJ_SL_E30advance_past_empty_and_deletedEv
XMh:__ZL73g_UnityEngine_TextRenderingModule_Assembly_CustomAttributesCacheGeneratorP21CustomAttributesCache
C$:__ZN16ScriptingManager27NativeTypeForScriptingClassE17ScriptingClassPtr
Zfg:_UInt64_System_IConvertible_ToDateTime_m3434604642
Ycg:_Type_get_IsSerializable_m1040556850
ICc:_get_sfnt_table
u1h:_Array_Resize_TisUIVertex_t4057497605_m1219201596_gshared
kqh:__ZL55StreamWriter_t1266378904_CustomAttributesCacheGeneratorP21CustomAttributesCache
WCe:_Dictionary_2_System_Collections_ICollection_get_IsSynchronized_m256515291_gshared
qX:__ZN8Renderer20RendererAddedToSceneEv
HVb:__ZL22ScheduleSceneNodesJobsP25ScheduleSceneNodesJobDataj
Jk:_emscripten_set_canvas_size
W9c:_Graphic_SetVerticesDirty_m2124914069
lEf:_CultureInfo__ctor_m3285927757
EUe:_MaskableGraphic_get_rootCanvasRect_m3492154629
p1h:_Array_Resize_TisRaycastResult_t3360306849_m1811054291_gshared
n7h:_ReadOnlyCollection_1_System_Collections_Generic_ICollectionU3CTU3E_get_IsReadOnly_m3152485890_gshared
wja:__ZNSt3__26vectorIN9ShaderLab20SerializedSubProgramENS_9allocatorIS2_EEE8__appendEj
wW:__ZN20DynamicHeapAllocatorI17LowLevelAllocatorE8AllocateEji
zzi:_Locale_GetText_m2427493201
BOb:__ZN20DynamicPropertySheet15SetVectorQueuedERKN9ShaderLab16FastPropertyNameERK8Vector4fN19ShaderPropertySheet8SetFlagsE
vA:__ZN7mecanim9animation22EvaluateAvatarRetargetEPKNS0_14AvatarConstantEPKNS0_11AvatarInputEPNS0_12AvatarOutputEPNS0_12AvatarMemoryEPNS0_15AvatarWorkspaceEb
Cqe:_InternalEnumerator_1_System_Collections_IEnumerator_Reset_m996811230_AdjustorThunk
QXa:__ZN14RenderSettings23VirtualRedirectTransferER19StreamedBinaryWriteILb0EE
hgd:_ConstructorBuilder_get_TypeBuilder_m2755629087
qrc:__ZL26Transfer_SimpleNativeClassI9JSONWrite10RectOffsetLb0EEvRK29SerializationCommandArgumentsR31RuntimeSerializationCommandInfo
Qrj:_GC_push_conditional
Bwa:__ZN17GenericDynamicVBO10AllocateVBEjR21DynamicVBOChunkHandle
oDi:_ShoppingEvent_AfterDialogue_m1781916307
fxf:_DBNull_ToString_m3638608738
qhj:__ZN30dense_hashtable_const_iteratorI10KeyWrapperIP18Il2CppGenericClassES3_N6il2cpp8metadata22Il2CppGenericClassHashEN14dense_hash_setIS3_S6_NS3_14EqualsComparerINS5_25Il2CppGenericClassCompareEEENSt3__29allocatorIS3_EEE8IdentityESA_SD_EppEv
qFd:_BitArray_Clone_m3537018332
ZMe:_ObjectRecord_UnchainFixup_m3191243952
mCi:_OpeningController_EnterFade_m3538508175
wmi:_TlsStream_get_CanWrite_m16389328
MOg:__Z65RuntimeInvoker_RuntimeObject_RuntimeObject_Vector3U26_t3464235976PFvvEPK10MethodInfoPvPS4_
hl:_glMapBufferRange
x3a:__ZN9Texture2D8TransferI18StreamedBinaryReadILb0EEEEvRT_
ehc:__Z31Input_CUSTOM_GetMouseButtonDowni
F8b:__ZN13PlayableGraph4PlayEv
_7b:__Z29AddCanvasIntermediateRendererPN2UI6CanvasEPNS_13CanvasBuffersEP17VertexDeclarationjRK10Matrix4x4ftRK4AABB4PPtrI8MaterialEi17ShadowCastingModebP6Camerab
drf:_String_Format_m3339413201
Nsf:_EncoderExceptionFallbackBuffer_get_Remaining_m1573636148
w_d:_MonoType_get_BaseType_m1098640416
nLa:__ZN13LoadOperation19IntegrateTimeSlicedEi
Pmi:_TlsStream_Read_m3392972801
tIi:__ZL25UnresolvedVirtualCall_132P12Il2CppObject17Color_t2555686324faaaPK10MethodInfo
Jsa:__ZN13GfxDeviceGLES22DispatchComputeProgramE12ObjectHandleI18ComputeProgram_TagPvE15ComputeBufferIDj
JJb:__ZN20DefaultGfxDeviceImpl32InitStereoGlobalsBuffersPlatformEiijPKv
K6f:_Latin1Encoding_GetString_m254210343
zhb:__Z17TransformAABBSlowRK4AABBRK10Matrix4x4fRS_
Rxd:_Array_combsort_m4052486289
Z6a:__ZN15SerializeTraitsI13dynamic_arrayI12SpriteVertexLj4EEE19ResizeSTLStyleArrayERS2_i
s4f:_List_1_System_Collections_ICollection_get_SyncRoot_m314215814_gshared
Tha:__ZN9ShaderLab21SerializedShaderState8TransferI14SafeBinaryReadEEvRT_
BCf:_Environment_GetWindowsFolderPath_m1738399646
Cah:_Queue_1_System_Collections_Generic_IEnumerableU3CTU3E_GetEnumerator_m2263220760_gshared
S7g:_List_1_Sort_m378918663_gshared
Vyc:_cf2_stack_pushInt
FD:__ZN7mecanim9animation20DestroyLayerConstantEPNS0_13LayerConstantERNS_6memory9AllocatorE
nA:__ZN8Animator19FireAnimationEventsERNS_11AnimatorJobE
cnd:_Module_GetCustomAttributes_m76573271
Q1d:_CryptoConfig_EncodeOID_m2635914623
Cka:__ZN15SerializeTraitsINSt3__24pairIN4core12basic_stringIcNS2_20StringStorageDefaultIcEEEES6_EEE8TransferI24GenerateTypeTreeTransferEEvRS7_RT_
SKj:b89
RKj:b88
rKj:b81
qKj:b80
fFa:__ZN7ApiGLES19CreateSparseTextureEjj14GraphicsFormatiiiiRiS1_S1_
k0:__ZN18ResourceImageGroup7CleanupEv
KKj:b85
JKj:b84
MKj:b87
LKj:b86
Ap:__ZN11Quaternionf8TransferI24GenerateTypeTreeTransferEEvRT_
WJe:_RemotingSurrogateSelector_GetSurrogate_m3900875713
yNg:__Z69RuntimeInvoker_Boolean_t97287965_UInt16_t2177724958_Int16_t2552820387PFvvEPK10MethodInfoPvPS4_
M9h:_ReadOnlyCollection_1_System_Collections_IList_get_IsReadOnly_m3626439112_gshared
H9d:_CertificateValidationCallback_Invoke_m1014111289
OYa:__ZN8Playable19SetOutputConnectionEPS_i
Fih:__ZN23InterfaceActionInvoker2Ii19Vector2_t2156229523E6InvokeEjP11Il2CppClassP12Il2CppObjectiS0_
ZQi:__ZN15dense_hashtableINSt3__24pairIK10KeyWrapperIPK11Il2CppClassEPKcEES6_N6il2cpp5utils11PointerHashIS3_EEN14dense_hash_mapIS6_S9_SE_NS6_14EqualsComparerINS0_8equal_toIS5_EEEENS0_9allocatorISA_EEE9SelectKeyESJ_SL_EC2ERKSO_j
Wl:_glDeleteShader
EAa:__ZN6prcoreL17RemapGenericFloatI15TexFormatRGHalf16TexFormatRGFloatEEvPKNS_9InnerInfoE
g2h:_Array_Sort_TisUICharInfo_t75501106_m128665067_gshared
mBc:_otv_GSUB_validate
rjf:_RSAPKCS1SignatureDeformatter_SetHashAlgorithm_m1602190713
EBf:_Enum_System_IConvertible_ToByte_m1219166845
wCe:_Dictionary_2_CopyToCheck_m45332585_gshared
t5g:_List_1_System_Collections_ICollection_get_IsSynchronized_m3630704857_gshared
mke:_InternalEnumerator_1_System_Collections_IEnumerator_Reset_m4239728915_AdjustorThunk
hdc:__Z27scripting_add_internal_callPKcPKv
Bhh:__ZN21InterfaceFuncInvoker1Ib20UIVertex_t4057497605E6InvokeEjP11Il2CppClassP12Il2CppObjectS0_
v6i:__ZN13Il2CppHashMapINSt3__24pairIPK9EventInfoP11Il2CppClassEEj17ReflectionMapHashIS7_ENS0_8equal_toIS7_EENS0_9allocatorINS1_IK10KeyWrapperIS7_EjEEEEEC2EjRKS9_RKSB_
gij:__GLOBAL__sub_I_GarbageCollector_cpp
a5:__Z17GetPlayerSettingsv
VA:__ZN34BlobWriteTransferSTLStyleArrayImplI22OffsetPtrArrayTransferIiEEclERS1_17TransferMetaFlagsR9BlobWrite
$Xh:__ZL156U3CDelayUpdateU3Ec__Iterator0_t299064644_CustomAttributesCacheGenerator_U3CDelayUpdateU3Ec__Iterator0_System_Collections_IEnumerator_get_Current_m2906633870P21CustomAttributesCache
Wnd:_MonoField_get_FieldHandle_m3729647377
BXe:_ScrollRect_get_content_m2477524320
mxe:_Enumerator_MoveNext_m1556953412_AdjustorThunk
jt:__ZN26AnimatorControllerPlayable18SetLayerAutoWeightEv
nSc:__Z44Register_UnityEngine_Canvas_get_pixelPerfectv
Qui:_Literal_GetAnchorInfo_m810577400
XJh:__ZL101RectTransform_t3704657025_CustomAttributesCacheGenerator_RectTransform_INTERNAL_set_pivot_m1160676233P21CustomAttributesCache
uPc:__ZN2UI14CanvasRenderer12SyncMaterialENS0_8SyncFlagE
RWd:_StreamWriter_Write_m1660535366
dYg:__Z66RuntimeInvoker_Void_t1185182177_Int32_t2950945753_Link_t3209266973PFvvEPK10MethodInfoPvPS4_
Nvj:__ZN6il2cpp2vm9Parameter30GetDefaultParameterValueObjectEPK10MethodInfoPK13ParameterInfoPb
D8f:_UTF8Encoding_GetByteCount_m4152118078
HXg:__Z71RuntimeInvoker_Void_t1185182177_CustomAttributeNamedArgument_t287865710PFvvEPK10MethodInfoPvPS4_
r5e:_KeyPairPersistence__CanSecure_m3516574278
lDe:_Dictionary_2_make_pair_m3116882385_gshared
uJg:__Z95RuntimeInvoker_Void_t1185182177_RuntimeObject_RuntimeObject_Int32_t2950945753_SByte_t1669577662PFvvEPK10MethodInfoPvPS4_
o4d:_MD5CryptoServiceProvider_Dispose_m3502499818
Reh:_Collection_1_System_Collections_IList_get_Item_m2422562729_gshared
vQg:__Z87RuntimeInvoker_Void_t1185182177_RuntimeObject_StringU26_t181565287_StringU26_t181565287PFvvEPK10MethodInfoPvPS4_
hve:_Comparer_1_get_Default_m1596450988_gshared
gmh:__ZL74RuntimeArray_CustomAttributesCacheGenerator_Array_BinarySearch_m3171087170P21CustomAttributesCache
Hlh:__ZL72Enum_t4135868527_CustomAttributesCacheGenerator_Enum_ToObject_m122225012P21CustomAttributesCache
vDc:_UNITY_tt_face_done_kern
Bae:_SecurityParameters_get_ServerWriteMAC_m3430427271
cPh:__ZL90GUIStyle_t3956901511_CustomAttributesCacheGenerator_GUIStyle_get_stretchHeight_m4172805773P21CustomAttributesCache
Mhe:_ArrayReadOnlyList_1_RemoveAt_m2104218585_gshared
pab:__ZN12BoneWeights48TransferI24GenerateTypeTreeTransferEEvRT_
jBi:_EndingController_CrossFadeOut_m216635374
BKf:_Array_InternalArray__IEnumerable_GetEnumerator_TisParameterModifier_t1461694466_m3675077728_gshared
yWh:__ZL60RawImage_t3182918964_CustomAttributesCacheGenerator_m_UVRectP21CustomAttributesCache
nGb:__Z19scripting_gc_enablev
Yqe:_InternalEnumerator_1_get_Current_m2907722321_gshared
pKb:__ZZ23InitPlayerLoopCallbacksvEN41InitializationPlayerUpdateTimeRegistrator7ForwardEv
Tcc:__ZN11UTF16StringC2ERKS_10MemLabelId
G_b:__Z29StdTemplateConversionFunctionIihEbPvR14SafeBinaryRead
hse:_InternalEnumerator_1_get_Current_m3792939945_AdjustorThunk
oRc:__Z55Register_UnityEngine_CanvasRenderer_DisableRectClippingv
Q9a:__ZN14SafeBinaryRead21TransferSTLStyleArrayI13dynamic_arrayI11ColorRGBA32Lj4EEEEvRT_17TransferMetaFlags
rub:__ZL26Transfer_SimpleNativeClassI24GenerateTypeTreeTransfer8GradientLb0EEvRK29SerializationCommandArgumentsR31RuntimeSerializationCommandInfo
cWh:__ZL118U3CCaretBlinkU3Ec__Iterator0_t2589889038_CustomAttributesCacheGenerator_U3CCaretBlinkU3Ec__Iterator0_Reset_m1547565867P21CustomAttributesCache
HIa:__ZN9GfxDevice22UploadTextureCubeArrayE9TextureIDPKhjii14GraphicsFormati18TextureUploadFlags
Nle:_InternalEnumerator_1_System_Collections_IEnumerator_get_Current_m888718134_gshared
oFg:__Z175RuntimeInvoker_Void_t1185182177_SByte_t1669577662_SByte_t1669577662_SByte_t1669577662_SByte_t1669577662_SByte_t1669577662_SByte_t1669577662_SByte_t1669577662_SByte_t1669577662PFvvEPK10MethodInfoPvPS4_
rrg:_Object_Destroy_m3118546832
yuf:_DateTime_FromTicks_m4059645178_AdjustorThunk
i4h:_Array_InternalArray__get_Item_TisClientCertificateType_t1004704908_m2297379651_gshared
oFe:_ConfigHandler_ParseTime_m1787834288
Cma:__ZN9ShaderLab7Program27CreateFromSerializedProgramERKNS_17SerializedProgramE10ShaderTypeiP16PropertyNamesSetPK6Shader
hed:_Assembly_Load_m3487507613
fXa:__ZNSt3__27__sort4IRNS_6__lessIN4core12basic_stringIcNS2_20StringStorageDefaultIcEEEES6_EEPS6_EEjT0_SA_SA_SA_T_
nEj:dynCall_viiiifii
Z4i:__ZN6il2cpp2gc19AppendOnlyGCHashMapINSt3__24pairIPK11Il2CppImageP11Il2CppClassEEP22Il2CppReflectionModule17ReflectionMapHashIS9_ENS2_8equal_toIS9_EEEC2Ev
JY:__Z20GetPersistentManagerv
LGc:_UNITY_TT_Set_Var_Design
g8:__ZN21SystemInfoStringCache16StaticInitializeEPv
Lzh:__ZL80Convert_t2465617642_CustomAttributesCacheGenerator_Convert_ToDecimal_m1695757674P21CustomAttributesCache
uZe:_Selectable_get_targetGraphic_m559777690
H6h:_ReadOnlyCollection_1_System_Collections_Generic_ICollectionU3CTU3E_Remove_m1100818788_gshared
nij:__ZNK10KeyWrapperIP12Il2CppObjectE14EqualsComparerINSt3__28equal_toIS1_EEEclERKS2_S9_
Xia:__ZNSt3__26vectorIN9ShaderLab20SerializedSubProgram15StructParameterENS_9allocatorIS3_EEE6assignIPS3_EENS_9enable_ifIXaasr21__is_forward_iteratorIT_EE5valuesr16is_constructibleIS3_NS_15iterator_traitsISA_E9referenceEEE5valueEvE4typeESA_SA_
Bjh:_Collection_1_IsSynchronized_m2291009199_gshared
CDb:__ZNK13MonoBehaviour7GetNameEv
u$h:__ZL58RandomEvent_t78915677_CustomAttributesCacheGenerator_womanP21CustomAttributesCache
Cib:__ZN19ScriptingInvocation28AdjustArgumentsToMatchMethodEv
$ji:_IndexedSet_1_Contains_m1525966688_gshared
xG:__Z15_CheckFMODError11FMOD_RESULTPKciS1_
xbj:__ZN6il2cpp6icalls8mscorlib6SystemL16ThrowInvalidCastEPK11Il2CppClassS5_
QVa:__Z20RenderMultipleMeshesRK15RenderNodeQueueRK18RenderMultipleData17ShaderChannelMask
KXf:_EqualityComparer_1_get_Default_m79107703_gshared
XWc:__ZN11UnityEngine15PlatformWrapper20GetPlayerPrefsStringERKN4core12basic_stringIcNS1_20StringStorageDefaultIcEEEES5_
AUe:_MaskableGraphic_get_maskable_m1260382606
e6f:_Latin1Encoding__ctor_m498920120
N$i:__ZN6il2cpp2vm4Type19GetGenericParameterEPK10Il2CppType
pWd:_StreamReader_Peek_m2272511193
svf:_DateTimeFormatInfo_FillAllDateTimePatterns_m2683124783
OQc:__Z51Register_UnityEngine_CanvasGroup_get_blocksRaycastsv
p$d:_NumberFormatter_get_IsFloatingSource_m3714711779
dgh:_Collection_1_System_Collections_IList_Add_m1403891193_gshared
sle:_InternalEnumerator_1_System_Collections_IEnumerator_Reset_m169899350_AdjustorThunk
Edg:_Type_GetConstructor_m1195697116
sd:_glBeginQuery
Bph:__ZL104RegionInfo_t1090270226_CustomAttributesCacheGenerator_RegionInfo_t1090270226____DisplayName_PropertyInfoP21CustomAttributesCache
CLi:_Canvas_get_scaleFactor_m3314757802
QLb:__ZN6Camera12RenderStereoENS_10RenderFlagE8CullFlagPNS_24PerformEyeRenderFunctionE
Flb:__ZN20LocalFileSystemPosix10ToAbsoluteEPKc
FVa:__ZN20TierGraphicsSettings8TransferI19StreamedBinaryWriteILb0EEEEvRT_
ONj:b111
N7:__GLOBAL__sub_I_runtime_input_0_cpp
Qoj:__ZN6il2cpp2vm13ComObjectBase16DisconnectObjectEj
jZf:_GenericComparer_1__ctor_m3652072706_gshared
Bm:f0
YJa:__ZN9BehaviourD0Ev
fVa:__Z32TransferEnumWithNameForceIntSizeI14SafeBinaryRead7HDRModeEvRT_RT0_PKc17TransferMetaFlags
Nzj:_getcwd
zKa:__ZN25ThreadsafeLinearAllocatorD2Ev
Qgb:__Z21SendMessageToEveryoneRK17MessageIdentifier11MessageData
zca:__ZN21BillboardBatchManager16StaticInitializeEPv
ptf:_DateTime_AbsoluteDays_m4235097773
t9:__ZN12_GLOBAL__N_138ArchiveRedirectFileSystemStaticDestroyEPv
Ymh:__ZL126U3CGetEnumeratorU3Ec__Iterator0_t1202911786_CustomAttributesCacheGenerator_U3CGetEnumeratorU3Ec__Iterator0_Dispose_m2078994225P21CustomAttributesCache
AAg:__Z74RuntimeInvoker_RuntimeObject_RuntimeObject_RuntimeObject_SByte_t1669577662PFvvEPK10MethodInfoPvPS4_
gnh:__ZL69Type_t_CustomAttributesCacheGenerator_Type_GetConstructor_m1195697116P21CustomAttributesCache
P7c:_DefaultControls_CreateScrollView_m3842770629
M1a:__ZN12CubemapArray34UpdateFileTextureUploadInstructionEP26FileAssetUploadInstructionj
vqh:__ZL94EnumBuilder_t2400448213_CustomAttributesCacheGenerator_EnumBuilder_GetConstructors_m3294436155P21CustomAttributesCache
kZg:__Z55RuntimeInvoker_TableRange_t3332867892_Int32_t2950945753PFvvEPK10MethodInfoPvPS4_
Foe:_InternalEnumerator_1_MoveNext_m1020308708_gshared
eFa:__Z23CreateSparseTextureGLES9TextureIDii14GraphicsFormati
UBc:_otv_Anchor_validate
zGf:_Guid_CompareTo_m243656946_AdjustorThunk
kDf:_CCMath_mod_m3631663509
gcg:_TimeSpan_Negate_m1889505500_AdjustorThunk
cai:_ReadOnlyCollection_1_System_Collections_ICollection_CopyTo_m2715087453_gshared
zQh:__ZL84Canvas_t3310196443_CustomAttributesCacheGenerator_Canvas_get_scaleFactor_m3314757802P21CustomAttributesCache
Fye:_Transform_1__ctor_m2810088858_gshared
sKc:__ZNSt3__23mapIN20TextRenderingPrivate7FontRefEP11FT_FaceRec_NS_4lessIS2_EENS_9allocatorINS_4pairIKS2_S4_EEEEEixERS9_
TMa:__ZN17ArchiveFileSystem10AddStorageEP20ArchiveStorageReader
THi:__ZL25UnresolvedVirtualCall_104P12Il2CppObjectS0_S0_S0_iPK10MethodInfo
gWi:__ZN6il2cpp2vm13MetadataCache37GetParameterDefaultValueDataFromIndexEi
S7i:_il2cpp_class_get_assemblyname
kKg:__Z50RuntimeInvoker_SByte_t1669577662_SByte_t1669577662PFvvEPK10MethodInfoPvPS4_
Bad:_Graphic_OnFillVBO_m1026749972
kPi:__ZN6il2cpp2vm5Class15GetEnumBaseTypeEP11Il2CppClass
Ice:_Context_set_WriteSequenceNumber_m942577065
Xd:_glVertexAttrib4fv
hpj:__ZNK6il2cpp5utils13VmStringUtils23CaseInsensitiveComparerclERKNSt3__212basic_stringIcNS3_11char_traitsIcEENS3_9allocatorIcEEEEPKc
X4c:_CanvasScaler_SetScaleFactor_m3006968999
q$g:__Z78RuntimeInvoker_Boolean_t97287965_Navigation_t3049316579_Navigation_t3049316579PFvvEPK10MethodInfoPvPS4_
O2a:__ZNK9Texture2D16GetNpotTexelSizeEv
l$d:_NumberFormatter_Init_m3576155222
pMa:__ZL33FileEntryInfoListToFolderContentsRKN4core12basic_stringIcNS_20StringStorageDefaultIcEEEERK19dynamic_block_arrayI13FileEntryInfoLj32EERNSt3__23setIS3_NSB_4lessIS3_EENSB_9allocatorIS3_EEEE
PTe:_LayoutUtility_GetLayoutProperty_m714717302
Y_c:_EventSystem_set_sendNavigationEvents_m983981895
Qpa:__ZN9GfxDevice22GetDefaultVertexBufferE26GfxDefaultVertexBufferTypej
AHf:_Array_InternalArray__ICollection_Contains_TisInt64_t3736567304_m2911357929_gshared
LLb:__ZNK6Camera16GetTargetDisplayEv
cfh:_Collection_1_Remove_m3022471627_gshared
dAj:___fseeko_unlocked
gdd:_Object_ToString_m1740002499
Xzj:_sscanf
v0c:_ExecuteEvents_GetEventChain_m2404658789
mHb:__Z17BeginSplashScreenv
t1h:_Array_Resize_TisUILineInfo_t4195266810_m3763058392_gshared
k1d:_SByte_ToString_m3584531119_AdjustorThunk
tla:__ZN9ShaderLab16SerializedShader8TransferI19StreamedBinaryWriteILb0EEEEvRT_
SC:__ZN7mecanim9animation18CreateAvatarMemoryEPKNS0_14AvatarConstantERNS_6memory9AllocatorE
PBd:_Convert_ToInt32_m1876369743
R5d:_ModulusRing__ctor_m2420310199
dKd:_Convert_ToDateTime_m626620011
Hxe:_Enumerator_System_Collections_IDictionaryEnumerator_get_Key_m2500634048_AdjustorThunk
EB:__ZN7mecanim8skeleton16SkeletonPoseCopyIN4math4trsXENS2_7affineXEEEvPKNS0_13SkeletonPoseTIT_EEPNS5_IT0_EE
Gwb:__Z18Transfer_BlittableI19StreamedBinaryWriteILb0EELb0EaEvRK29SerializationCommandArgumentsR31RuntimeSerializationCommandInfo
Y2f:_List_1_Remove_m3037048099_gshared
jwa:__ZN18GfxFramebufferGLES18GetFramebufferNameERK20GfxRenderTargetSetup
Z_h:__ZL115U3CCrossFadeU3Ec__Iterator0_t410743727_CustomAttributesCacheGenerator_U3CCrossFadeU3Ec__Iterator0_Reset_m2469697034P21CustomAttributesCache
a$i:__ZN6il2cpp2vm14TypeNameParser12ParseVersionERKNSt3__212basic_stringIcNS2_11char_traitsIcEENS2_9allocatorIcEEEERtSB_SB_SB_
bRe:_InputField_MoveDown_m1455948167
Enc:__Z30Event_Get_Custom_PropCharacterP12Il2CppObject
mea:__ZN13PlayableGraph27SchedulePlayableDestructionERK9HPlayable
dBc:_cff_get_mm_var
tHj:_glGetFramebufferAttachmentParameteriv__wrapper
SDe:_ChannelServices_GetCurrentChannelInfo_m3041604116
nXc:__Z13RegisterClassI20UnityConnectSettingsEvv
xre:_InternalEnumerator_1__ctor_m2635640285_AdjustorThunk
Bpb:__Z22scripting_array_length17ScriptingArrayPtr
bXd:_SynchronizedReader_Peek_m148942882
iEg:__Z95RuntimeInvoker_Void_t1185182177_RuntimeObject_Int32_t2950945753_Int32_t2950945753_RuntimeObjectPFvvEPK10MethodInfoPvPS4_
Z1a:__ZN14SafeBinaryRead20TransferTypelessDataEjPvi
bIc:_Horizontal_Sweep_Init
oN:__ZN13dynamic_arrayI12SoundChannelLj4EE9push_backERKS0_
Z4:__Z19GetActiveColorSpacev
XCc:_UNITY_tt_face_load_kern
ynd:_MonoMethodInfo_GetDeclaringType_m2924452727
zIb:__ZN13sorted_vectorINSt3__24pairIiN17InstancingBatcher12PropertyTypeEEEN10vector_mapIiS3_NS0_4lessIiEE13stl_allocatorIS4_L18MemLabelIdentifier1ELi16EEE13value_compareESA_E21sort_clear_duplicatesEv
rQc:__ZZN2UI14CanvasRenderer15InitializeClassEvEN38FunctorImpl_909kCanvasHierarchyChanged4CallEPviR11MessageData
z$:__Z6StrCmpPKcS0_
POd:_NumberFormatter_AppendIntegerString_m2257376141
Kna:__Z21CheckGpuProgramUsable20ShaderGpuProgramType
a4b:__ZN13ProduceHelperI14Texture2DArrayLb0EE7ProduceE10MemLabelId18ObjectCreationMode
Flj:__ZN6il2cpp2os9Directory20GetFileSystemEntriesERKNSt3__212basic_stringIcNS2_11char_traitsIcEENS2_9allocatorIcEEEESA_iiPi
Bwd:_Array_System_Collections_IList_Add_m1063688101
rWh:__ZL66Navigation_t3049316579_CustomAttributesCacheGenerator_m_SelectOnUpP21CustomAttributesCache
CJc:__ZN20TextRenderingPrivate19NativeTextGenerator5SetupEv
WSb:__ZNK15SharedLightData24GetFinalShadowResolutionEv
Tri:_PatternCompiler_EmitAlternationEnd_m2444359097
RGh:__ZL91GameObject_t1113636619_CustomAttributesCacheGenerator_GameObject_get_activeSelf_m1767405923P21CustomAttributesCache
keb:__ZN12AspectRatios8TransferI18StreamedBinaryReadILb0EEEEvRT_
T7b:__ZN10GameObject14CopyPropertiesERS_
soc:__Z44Register_UnityEngine_GUIStyle_get_fixedWidthv
xIf:_Array_InternalArray__ICollection_Remove_TisLink_t544317964_m1280781374_gshared
plj:__ZNSt3__214__split_bufferIN6il2cpp2os10ThreadImpl10APCRequestERNS_9allocatorIS4_EEEC2EjjS7_
Qyd:_BitConverter_DoubleWordsAreSwapped_m1474345095
p6a:__ZNK13ScreenManager12IsFullScreenEv
kEd:_FixedSizeArrayListWrapper_set_Capacity_m4221053039
yAj:_rand
XHj:_emscripten_glFramebufferRenderbuffer__wrapper
Zac:__ZN13MeshScripting10CreateMeshE21ScriptingObjectOfTypeI4MeshE
Yki:_ListPool_1__cctor_m3480273184_gshared
lQg:__Z56RuntimeInvoker_Void_t1185182177_PropertyName_t3749835189PFvvEPK10MethodInfoPvPS4_
b0c:__ZN23InterfaceActionInvoker1IP25BaseEventData_t3903027533E6InvokeEjP11Il2CppClassP12Il2CppObjectS1_
xqb:__ZN14SafeBinaryRead21TransferSTLStyleArrayINSt3__26vectorI17AnimationCurveTplIfE13stl_allocatorIS4_L18MemLabelIdentifier1ELi16EEEEEEvRT_17TransferMetaFlags
PEd:_SynchronizedArrayListWrapper_Contains_m3809499313
KIf:_Array_InternalArray__ICollection_Remove_TisLabelData_t360167391_m3556246844_gshared
c3i:__ZN15dense_hashtableINSt3__24pairIK10KeyWrapperINS1_IPK11Il2CppImageP11Il2CppClassEEEjEES9_17ReflectionMapHashIS8_EN14dense_hash_mapIS9_jSD_NS9_14EqualsComparerINS0_8equal_toIS8_EEEENS0_9allocatorISB_EEE9SelectKeyESI_SK_E12expand_arrayEjN21dense_hash_map_traits17integral_constantIbLb0EEE
O3d:_HMACSHA256__ctor_m346174875
qkg:_Color_op_Multiply_m2887457390
qVb:__Z22PrepareOptimizedPlanesPK5PlaneiPKN4math7_float4E
Ale:_InternalEnumerator_1__ctor_m1559487635_gshared
kV:__ZN11UnityEngine15CloudWebService17WebFileDownloaderINS0_20WebRequestRestClientENS0_23WebRequestRestHeaderMapEE10InitializeERKN4core12basic_stringIcNS5_20StringStorageDefaultIcEEEE
xca:__ZN17UniqueIDGenerator15CreatePureIndexEv
zr:__ZN11UnityEngine9Animation28GenericAnimationBindingCache15DidReloadDomainEv
afb:__ZNSt3__26vectorIN15ResourceManager10DependencyE13stl_allocatorIS2_L18MemLabelIdentifier52ELi16EEE6assignINS_11__wrap_iterIPS2_EEEENS_9enable_ifIXaasr21__is_forward_iteratorIT_EE5valuesr16is_constructibleIS2_NS_15iterator_traitsISC_E9referenceEEE5valueEvE4typeESC_SC_
zOi:__ZN15dense_hashtableINSt3__24pairIK10KeyWrapperIPK22Il2CppGenericParameterEP11Il2CppClassEES6_N6il2cpp5utils11PointerHashIS4_EEN14dense_hash_mapIS6_S9_SE_NS6_14EqualsComparerINS0_8equal_toIS5_EEEENS0_9allocatorISA_EEE9SelectKeyESJ_SL_E14squash_deletedEv
T_a:__ZN9ShaderLabL27GetDesiredRenderTextureDescEPK6Camera
zwh:__ZL131RSACryptoServiceProvider_t2683512874_CustomAttributesCacheGenerator_RSACryptoServiceProvider_t2683512874____PublicOnly_PropertyInfoP21CustomAttributesCache
nQf:_Array_InternalArray__Insert_TisMark_t3471605523_m2854535880_gshared
Vya:__ZN6prcoreL29inner_stretch_rgb565_bilinearEPKNS_9InnerInfoE
Olc:__Z14GUIClipTextureP9Texture2DPhiiii
ENh:__ZL52HumanBone_t2465339518_CustomAttributesCacheGeneratorP21CustomAttributesCache
DJe:_MethodReturnDictionary__cctor_m278392388
EIi:__ZL25UnresolvedVirtualCall_143P12Il2CppObjectaaPK10MethodInfo
rY:__ZNK9Transform18TransformDirectionERK8Vector3f
_ge:_SslStreamBase_get_CanWrite_m1622082918
FNa:__ZNK17ArchiveFileSystem12GetAssetGUIDERK13FileEntryData
Cna:__ZNSt3__26vectorIN9ShaderLab20SerializedSubProgram15MatrixParameterENS_9allocatorIS3_EEE21__push_back_slow_pathIKS3_EEvRT_
eYh:__ZL80CanvasScaler_t2767979955_CustomAttributesCacheGenerator_m_ReferencePixelsPerUnitP21CustomAttributesCache
FBc:_otv_MarkLigPos_validate
$2e:_PrimalityTests_RabinMillerTest_m1471415870
_$f:_Enumerator_MoveNext_m2114485647_gshared
PIi:__ZL25UnresolvedVirtualCall_154P12Il2CppObject40CustomAttributeTypedArgument_t2723150157PK10MethodInfo
ojd:_GenericTypeParameterBuilder_GetCustomAttributes_m580748276
RUi:__ZN15dense_hashtableINSt3__24pairIK10KeyWrapperIPK11Il2CppClassEPKcEES6_N6il2cpp5utils11PointerHashIS3_EEN14dense_hash_mapIS6_S9_SE_NS6_14EqualsComparerINS0_8equal_toIS5_EEEENS0_9allocatorISA_EEE9SelectKeyESJ_SL_E12resize_deltaEjj
hCj:__ZNK10__cxxabiv120__si_class_type_info27has_unambiguous_public_baseEPNS_19__dynamic_cast_infoEPvi
W5d:_Kernel_LeftShift_m4140742987
Wdd:_Assembly_GetManifestResourceInternal_m1224391897
Fwa:__Z30AddDefaultStreamsToMeshBuffersR9GfxDeviceR11MeshBuffersj17ShaderChannelMaskS3_
c9:__ZL16GetInterfaceImpl18UnityInterfaceGUID
DPi:__ZN6il2cpp2vmL17SetupFieldOffsetsENS0_15FieldLayoutKindEP11Il2CppClassjRKNSt3__26vectorIjNS4_9allocatorIjEEEE
Foj:__ZN6il2cpp6icalls8mscorlib6System15MonoCustomAttrs27GetCustomAttributesInternalEP12Il2CppObjectP20Il2CppReflectionTypeb
Wb:invoke_viifi
gHc:_UNITY_TT_Set_MM_Blend
O7:__GLOBAL__sub_I_runtime_math_random_0_cpp
pli:_InternalAsyncResult_get_FromWrite_m4228047810
yHg:__Z53RuntimeInvoker_MonoEventInfo_t346866618_RuntimeObjectPFvvEPK10MethodInfoPvPS4_
Phh:_Collection_1_CopyTo_m955200729_gshared
zHb:__ZN14PreloadManager35WaitForAllAsyncOperationsToCompleteEv
wXf:_EqualityComparer_1__ctor_m1138336971_gshared
y_:__ZNK18ScriptingObjectPtr17ToScriptingStringEv
eI:__ZL31InitializeAudioScriptingClassesv
KMb:__Z14SortGUIByDepthP10GUIElementS0_
y8:__ZN13RuntimeStaticI13dynamic_arrayIPK31TransferFunctionScriptingTraitsLj4EELb0EE16StaticInitializeEPv
pMg:__Z69RuntimeInvoker_UInt32_t2560061978_Int32_t2950945753_SByte_t1669577662PFvvEPK10MethodInfoPvPS4_
pC:__ZN12_GLOBAL__N_120ProcessRootMotionMixER33AnimationPlayableEvaluationOutputR35AnimationPlayableEvaluationConstantR32AnimationPlayableEvaluationInputS1_f
Awi:_UriParser__cctor_m3655686731
FTe:_LayoutRebuilder_U3Cs_RebuildersU3Em__0_m589488547
O_g:__Z53RuntimeInvoker_KeyValuePair_2_t71524366_RuntimeObjectPFvvEPK10MethodInfoPvPS4_
fmb:__ZNK20LocalFileSystemPosix21GetAvailableDiskSpaceEPKcRy
m8:__ZNSt3__26__treeIiNS_4lessIiEENS_9allocatorIiEEE7destroyEPNS_11__tree_nodeIiPvEE
jpa:__ZNK9GfxDevice14GetWorldMatrixEv
Kuc:__ZN8JSONRead8TransferI8Vector2fEEvRT_PKc17TransferMetaFlagsb
kyg:_Transform_set_parent_m786917804
znj:__ZN15dense_hashtableINSt3__24pairIK10KeyWrapperIPK19Il2CppGenericMethodEP10MethodInfoEES6_N6il2cpp8metadata23Il2CppGenericMethodHashEN14dense_hash_mapIS6_S9_SD_NS6_14EqualsComparerINSC_26Il2CppGenericMethodCompareEEENS0_9allocatorISA_EEE9SelectKeyESH_SJ_E13set_empty_keyERKSA_
m_e:_Slider_get_value_m739683640
vkb:__Z19scripting_array_new17ScriptingClassPtrjj
cN:__ZN11SoundHandle13CreateChannelEb
Bag:_WaitCallback_BeginInvoke_m3012509827
o4a:__ZN14SafeBinaryRead21TransferSTLStyleArrayI13dynamic_arrayI12LightmapDataLj4EEEEvRT_17TransferMetaFlags
Eja:__ZNSt3__26vectorIN9ShaderLab20SerializedSubProgram16TextureParameterENS_9allocatorIS3_EEE6assignIPS3_EENS_9enable_ifIXaasr21__is_forward_iteratorIT_EE5valuesr16is_constructibleIS3_NS_15iterator_traitsISA_E9referenceEEE5valueEvE4typeESA_SA_
sTi:__ZN13Il2CppHashMapIN6il2cpp5utils13dynamic_arrayIPK10Il2CppTypeLj4EEEPFvvENS0_8metadata19Il2CppSignatureHashENS9_22Il2CppSignatureCompareENSt3__29allocatorINSC_4pairIK10KeyWrapperIS6_ES8_EEEEEC2EjRKSA_RKSB_
JEg:__Z122RuntimeInvoker_Void_t1185182177_RuntimeObject_RuntimeObject_ContractionU5BU5DU26_t2277527001_Level2MapU5BU5DU26_t359320357PFvvEPK10MethodInfoPvPS4_
F5i:__ZN15dense_hashtableINSt3__24pairIK10KeyWrapperIPK22Il2CppGenericParameterEPK24MonoGenericParameterInfoEES6_N6il2cpp5utils11PointerHashIS4_EEN14dense_hash_mapIS6_SA_SF_NS6_14EqualsComparerINS0_8equal_toIS5_EEEENS0_9allocatorISB_EEE9SelectKeyESK_SM_E15set_deleted_keyERKSB_
i1d:_SByte_TryParse_m2431806379
YBh:__ZL64ObjectDisposedException_t21392786_CustomAttributesCacheGeneratorP21CustomAttributesCache
w1b:__ZN6prcoreL11inner_clearILj2EEEvPhjjj
xGh:__ZL92Debug_t3317548046_CustomAttributesCacheGenerator_Debug_LogWarningFormat_m1153215311____args2P21CustomAttributesCache
M2d:_DSACryptoServiceProvider_get_KeySize_m786836990
MRi:__ZNSt3__218uninitialized_fillIPNS_4pairIK10KeyWrapperIPKcEP11Il2CppClassEES9_EEvT_SB_RKT0_
Ig:_emscripten_exit_fullscreen
fdd:_Object_MemberwiseClone_m1474068832
Akj:__ZN6il2cpp6icalls8mscorlib6System6String19InternalAllocateStrEi
Rvc:__Z29Transfer_Blittable_ArrayFieldI8JSONRead11QuaternionfEvRT_R9ArrayInfoRK23StaticTransferFieldInfo
Olb:__ZN20LocalFileSystemPosix8SetFlagsER13FileEntryDatajj
ufc:__Z45Register_UnityEngine_Camera_get_targetDisplayv
c6b:__ZNK24RendererAnimationBinding15GenerateBindingERKN4core12basic_stringIcNS0_20StringStorageDefaultIcEEEEbRN11UnityEngine9Animation14GenericBindingE
uaf:_IPv6Address__ctor_m3704187391
dNb:__Z15GetFlareManagerv
Y1b:__ZN15ApplicationInfo24GetApplicationIdentifierEv
TJa:__ZN9Behaviour8TransferI18StreamedBinaryReadILb0EEEEvRT_
Hz:__ZN8Animator13GetAvatarRootEv
ZNf:_Array_InternalArray__ICollection_Add_TisResourceCacheItem_t51292791_m3851804827_gshared
yyj:___toread
GFb:__ZNSt3__26vectorI10vector_mapIiiNS_4lessIiEE13stl_allocatorINS_4pairIiiEEL18MemLabelIdentifier38ELi16EEES4_IS9_LS7_38ELi16EEE26__swap_out_circular_bufferERNS_14__split_bufferIS9_RSA_EE
s5d:_BigInteger_get_Rng_m3283260184
KCj:___cxa_is_pointer_type
QE:__ZN8Animator22ScriptingStringToCRC32ERK11ICallString
GCh:__ZL55EventHandler_t1348719766_CustomAttributesCacheGeneratorP21CustomAttributesCache
rC:__ZN7mecanim9animation16EvaluateAvatarDXEPKNS0_14AvatarConstantEPKNS0_11AvatarInputEPNS0_12AvatarMemoryEPNS0_15AvatarWorkspaceEPNS0_12AvatarOutputE
r2c:_RaycastResult_ToString_m2678663776_AdjustorThunk
s4h:_Array_InternalArray__get_Item_TisKeyValuePair_2_t2530217319_m2886833132_gshared
HYe:_ScrollRect_OnEndDrag_m3202230060
Xjc:__Z34Transform_CUSTOM_SetAsFirstSiblingP12Il2CppObject
t0i:__ZNK15dense_hashtableINSt3__24pairIK10KeyWrapperINS1_IPK14Il2CppAssemblyP11Il2CppClassEEEjEES9_17ReflectionMapHashIS8_EN14dense_hash_mapIS9_jSD_NS9_14EqualsComparerINS0_8equal_toIS8_EEEENS0_9allocatorISB_EEE9SelectKeyESI_SK_E10test_emptyEj
CEg:__Z63RuntimeInvoker_Void_t1185182177_RuntimeObject_SByte_t1669577662PFvvEPK10MethodInfoPvPS4_
FKh:__ZL57SetupCoroutine_t2062820429_CustomAttributesCacheGeneratorP21CustomAttributesCache
SQe:_InputField_Delete_m3471899192
_Ah:__ZL79Convert_t2465617642_CustomAttributesCacheGenerator_Convert_ToUInt64_m1627266664P21CustomAttributesCache
Hth:__ZL91UrlAttribute_t221584584_CustomAttributesCacheGenerator_UrlAttribute_IsContextOK_m1228378186P21CustomAttributesCache
nEe:_RemotingConfiguration_get_ProcessId_m2180277012
i3:__ZN17PersistentManager40GlobalToLocalSerializedFileIndexInternalERK26SerializedObjectIdentifier
dS:__ZN11UnityEngine15CloudWebService17SessionEventQueue14ParseEventDataERKN4core12basic_stringIcNS2_20StringStorageDefaultIcEEEE
Jua:__ZN13TranslateGLES4InitERK12GraphicsCaps16GfxDeviceLevelGL
CCb:__Z29Transfer_Blittable_ArrayFieldI18StreamedBinaryReadILb0EE10ColorRGBAfEvRT_R9ArrayInfoRK23StaticTransferFieldInfo
AZi:_NativeTypeAttribute_set_CodegenOptions_m3839252515
uWf:_EqualityComparer_1_get_Default_m180770000_gshared
zQd:_Int64_System_IConvertible_ToUInt16_m848637338_AdjustorThunk
kVh:__ZL74GraphicRaycaster_t2999697109_CustomAttributesCacheGenerator_m_BlockingMaskP21CustomAttributesCache
pMf:_Array_InternalArray__IndexOf_TisLink_t544317964_m455584088_gshared
lah:_Enumerator_get_Current_m2282646120_AdjustorThunk
S9h:_ReadOnlyCollection_1_IndexOf_m2539022912_gshared
p6e:_KeyGeneratedEventHandler__ctor_m1990062371
fXh:__ZL66Selectable_t3250028441_CustomAttributesCacheGenerator_m_TransitionP21CustomAttributesCache
rwj:__ZN6il2cpp2os6Memory12AlignedAllocEjj
s$e:_Text_set_alignByGeometry_m3828822280
bqj:__ZN6il2cpp8metadataL7CompareEPK10Il2CppTypeS3_
xsb:__Z18Transfer_BlittableI17RemapPPtrTransferLb0E11ColorRGBA32EvRK29SerializationCommandArgumentsR31RuntimeSerializationCommandInfo
H7e:_HybridDictionary__ctor_m1681134385
V1:__ZN21ScalableBufferManager11GetInstanceEv
UAb:__Z18Transfer_BlittableI18StreamedBinaryReadILb0EELb1E10ColorRGBAfEvRK29SerializationCommandArgumentsR31RuntimeSerializationCommandInfo
E1a:__ZN12CubemapArray23VirtualRedirectTransferER17RemapPPtrTransfer
qcg:_TimeSpan_op_LessThan_m1594498345
ndc:__ZL27GetComponentsImplementationILb0ELi0EEbR10GameObjectbRK17CompareParametersRK39GetComponentsImplementation_ReturnValue
oEb:__ZN9Scripting36IsSystemCollectionsGenericDictionaryE17ScriptingClassPtr
iji:_UnityEvent_1_FindMethod_Impl_m322741469_gshared
juh:__ZL92ConstructionCallDictionary_t686578562_CustomAttributesCacheGenerator_U3CU3Ef__switchU24map24P21CustomAttributesCache
BXh:__ZL64Slider_t3903728902_CustomAttributesCacheGenerator_m_WholeNumbersP21CustomAttributesCache
yyg:_Enumerator_get_Current_m2591725252
O0:__ZL16ReadTypeTreeImplILb0EEbR8TypeTreeRK16TypeTreeIteratorRPKhS6_i
Mhf:_Interval_Contains_m110351300_AdjustorThunk
WKd:_Convert_ToInt32_m3048308591
mZh:__ZL77LayoutUtility_t2745813735_CustomAttributesCacheGenerator_U3CU3Ef__amU24cache6P21CustomAttributesCache
UVe:_RectMask2D_OnCanvasHierarchyChanged_m3195492255
uwf:_DateTimeOffset_Equals_m3030958070
fYa:__ZNK22BuiltinResourceManager21GetResourceInstanceIDEPKN5Unity4TypeERKN4core12basic_stringIcNS4_20StringStorageDefaultIcEEEE
Mra:__ZN9GfxDevice15BeginFrameStatsEv
Zgc:__Z42Register_UnityEngine_RectOffset_set_bottomv
boc:__Z28GUIStyleState_CUSTOM_CleanupP12Il2CppObject
euf:_DateTimeFormatInfo_GetMonthName_m2034512315
POb:__ZN28LightProbeProxyVolumeContext8CopyFromERKS_
Gzb:__ZN18StreamedBinaryReadILb1EE8TransferI13dynamic_arrayI8BitFieldLj4EEEEvRT_PKc17TransferMetaFlags
Aai:_ReadOnlyCollection_1_System_Collections_Generic_IListU3CTU3E_Insert_m2489506856_gshared
y6:__ZN23TransformChangeDispatch32QueueTransformChangeIfHasChangedER18TransformHierarchy
T0e:_SimpleCollator_ToDashTypeValue_m6184468
BDa:__ZN7ApiGLES18DeleteRenderbufferERj
dCa:__ZL23ProgramUniformMatrix4fvPK7ApiGLESjiihPKv
KDa:__ZN7ApiGLES13CreateTextureEjj14GraphicsFormatiiiii
Xxd:_Array_new_gap_m262136975
ija:__ZN9ShaderLab20SerializedSubProgram15MatrixParameter8TransferI14SafeBinaryReadEEvRT_
pdc:__ZL27GetComponentsImplementationILb0ELi1EEbR10GameObjectbRK17CompareParametersRK39GetComponentsImplementation_ReturnValue
Pdf:_X509Store__ctor_m275383717
y1e:_SimpleCollator_LastIndexOfOrdinalIgnoreCase_m2984667899
RFc:_Round_Down_To_Grid
wEa:__ZN13RenderTexture7ReleaseEv
otc:__Z18Transfer_BlittableI8JSONReadLb1EN4math12int3_storageEEvRK29SerializationCommandArgumentsR31RuntimeSerializationCommandInfo
kbb:__ZN10MeshFilter23VirtualRedirectTransferER14SafeBinaryRead
NYh:__ZL64LayoutGroup_t2436138090_CustomAttributesCacheGenerator_m_PaddingP21CustomAttributesCache
$td:_X509CertificateEnumerator_MoveNext_m2269241175
ubb:__ZN12MeshRenderer17MainThreadCleanupEv
oPi:__ZN6il2cpp2vmL10InitLockedEP11Il2CppClassRKNS_2os12FastAutoLockE
pHa:__ZN22CreateGpuProgramOutput12CreateParamsEv
pJ:__ZN10ObjectPoolIN4FMOD7ChannelENS0_8ChannelIEE7GetFreeEi
d0g:__Z96RuntimeInvoker_RuntimeObject_CustomAttributeNamedArgument_t287865710_RuntimeObject_RuntimeObjectPFvvEPK10MethodInfoPvPS4_
h9c:_FontData_get_font_m2720086288
pme:_InternalEnumerator_1_System_Collections_IEnumerator_get_Current_m548105685_gshared
zua:__ZNK14GfxContextGLES13GetDefaultFBOEv
bZg:__Z99RuntimeInvoker_Void_t1185182177_UILineInfoU5BU5DU26_t2468919161_Int32_t2950945753_Int32_t2950945753PFvvEPK10MethodInfoPvPS4_
qAd:_Byte_System_IConvertible_ToType_m2251112646
chh:_Collection_1_Contains_m692247505_gshared
dTg:__Z81RuntimeInvoker_Char_t3634460470_RuntimeObject_Int32_t2950945753_Int16_t2552820387PFvvEPK10MethodInfoPvPS4_
Duf:_DateTime_get_Hour_m4153505178_AdjustorThunk
oFi:_AudioExtensionManager_WriteExtensionProperties_m3028464154
Wmf:_Evidence_Equals_m1478353107
lqi:_CostDelegate__ctor_m4027655829
bac:__Z13GetImagePixelI10ColorRGBAfET_PKhii13TextureFormat15TextureWrapModeS5_ii
E3g:_List_1_System_Collections_IList_set_Item_m1842844683_gshared
gli:_ObjectPool_1__ctor_m2535233435_gshared
Qji:_EventFunction_1__ctor_m4292798223_gshared
Vaj:__ZN6il2cpp2vm6Thread49CheckCurrentThreadForInterruptAndThrowIfNecessaryEv
NEf:_CultureInfo_construct_datetime_format_m1928121315
f5:__ZNSt3__23mapIN9ShaderLab16FastPropertyNameEN18UnityPropertySheet11UnityTexEnvENS_4lessIS2_EENS_9allocatorINS_4pairIKS2_S4_EEEEEixERS9_
ECa:__ZNK13TranslateGLES25GetTextureTargetDimensionEj
Idd:_RankException__ctor_m3453633632
$di:_Comparison_1__ctor_m533218197_gshared
hZg:__Z96RuntimeInvoker_Void_t1185182177_Vector3U5BU5DU26_t3038522815_Int32_t2950945753_Int32_t2950945753PFvvEPK10MethodInfoPvPS4_
Z7h:_ReadOnlyCollection_1_System_Collections_IList_Remove_m1842121503_gshared
nTd:_File_OpenRead_m2936789020
pjc:__Z47Texture2D_CUSTOM_INTERNAL_CALL_GetPixelBilinearP12Il2CppObjectffR10ColorRGBAf
JId:_Enumerator_get_Entry_m3561948123
PQg:__Z94RuntimeInvoker_Void_t1185182177_RuntimeObject_PlayableGraph_t3515989261_RuntimeObject_IntPtr_tPFvvEPK10MethodInfoPvPS4_
Ji:_emscripten_glVertexAttrib4f
use:_InternalEnumerator_1_System_Collections_IEnumerator_Reset_m4072625129_AdjustorThunk
fna:__ZNSt3__26vectorIN20GpuProgramParameters14ConstantBufferENS_9allocatorIS2_EEE8__appendEj
xef:_X509CertificateCollection_AddRange_m3683116910
qpe:_InternalEnumerator_1_Dispose_m1837758743_AdjustorThunk
wEe:_SinkProviderData__ctor_m1624738837
$Pb:__ZN11HaloManager21ReleaseGeometryJobMemEP25DynamicVBOGeometryJobData
bTd:_DirectoryNotFoundException__ctor_m1689636868
zSg:__Z88RuntimeInvoker_RuntimeObject_RuntimeObject_SByte_t1669577662_RuntimeObject_RuntimeObjectPFvvEPK10MethodInfoPvPS4_
r8h:_ReadOnlyCollection_1_System_Collections_Generic_IListU3CTU3E_get_Item_m978644313_gshared
Zhh:_Collection_1_get_Item_m2253972692_gshared
yld:_RefEmitPermissionSet_t484390987_marshal_pinvoke_cleanup
yfd:_CustomAttributeTypedArgument_Equals_m2261980307
Gx:__ZN7mecanim12statemachine24CreateStateMachineMemoryEPKNS0_20StateMachineConstantERNS_6memory9AllocatorE
Rra:__ZN9GfxDevice18SetGlobalDepthBiasEff
yXi:__ZN6il2cpp6icalls8mscorlib6System8MonoType12get_AssemblyEP20Il2CppReflectionType
RUd:_IsolatedStorageException__ctor_m3386787868
Sld:_TypeBuilder_MakeGenericType_m2799607032
so:FUNCTION_TABLE_vi
idi:_ReadOnlyCollection_1_IndexOf_m3669095250_gshared
Xi:_emscripten_glGetPointerv
l3h:_Dictionary_2_Do_CopyTo_TisKeyValuePair_2_t3842366416_TisRuntimeObject_m1564656153_gshared
eC:__ZN8Animator22ApplyBuiltinRootMotionEv
khj:__ZN15dense_hashtableI10KeyWrapperIP18Il2CppGenericClassES3_N6il2cpp8metadata22Il2CppGenericClassHashEN14dense_hash_setIS3_S6_NS3_14EqualsComparerINS5_25Il2CppGenericClassCompareEEENSt3__29allocatorIS3_EEE8IdentityESA_SD_E5clearEv
aHb:__Z26ApplyMaterialPassWithCacheRK18SharedMaterialDataR17ShaderPassContextP6ShaderPN9ShaderLab4PassEibPKNS6_10GrabPassesEPNS6_11SubProgramsEPK22DeviceRenderStateBlock
RKg:__Z55RuntimeInvoker_DateTime_t3738529785_TimeSpan_t881159249PFvvEPK10MethodInfoPvPS4_
S_d:_MulticastDelegate_KPM_m22863605
Xpe:_InternalEnumerator_1_get_Current_m1897120917_AdjustorThunk
q_d:_MonoType_ReorderParamArrayArguments_m2458683451
xMe:_FormatterConverter_ToInt16_m4282804414
zIg:__Z81RuntimeInvoker_Void_t1185182177_Int64_t3736567304_RuntimeObject_Int64_t3736567304PFvvEPK10MethodInfoPvPS4_
X2c:_StandaloneInputModule_ProcessTouchPress_m4019232747
iTd:_FileStream__ctor_m3151488352
Vxd:_Array_swap_m547389985
v3:__ZN8Renderer23VirtualRedirectTransferER14SafeBinaryRead
Qfg:_UInt32_ToString_m2420423038
C0g:_List_1_System_Collections_IList_Add_m634558835_gshared
bdi:_ReadOnlyCollection_1_System_Collections_IList_get_IsFixedSize_m1923250479_gshared
gRh:__ZL105CanvasRenderer_t2598313366_CustomAttributesCacheGenerator_CanvasRenderer_set_popMaterialCount_m1224846275P21CustomAttributesCache
MTd:_FileStream_get_Length_m426703983
dAe:_Enumerator__ctor_m1558933899_AdjustorThunk
SCh:__ZL88BigInteger_t2902905090_CustomAttributesCacheGenerator_BigInteger_op_Implicit_m3414367033P21CustomAttributesCache
yPi:__ZN6il2cpp2vmL15GetBitmapNoInitEP11Il2CppClassPjRjj
N7g:_List_1_Remove_m2092085040_gshared
h0b:__ZL13MotionHandleriPK27EmscriptenDeviceMotionEventPv
kKi:__ZL25UnresolvedVirtualCall_231P12Il2CppObjecti20UIVertex_t4057497605PK10MethodInfo
MH:__ZN12AudioManager5ResetEv
IBg:__Z67RuntimeInvoker_Boolean_t97287965_RuntimeObject_SByteU26_t3619038962PFvvEPK10MethodInfoPvPS4_
NCg:__Z143RuntimeInvoker_Boolean_t97287965_RuntimeObject_Int32_t2950945753_RuntimeObject_SByte_t1669577662_DoubleU26_t1739162597_ExceptionU26_t3600731591PFvvEPK10MethodInfoPvPS4_
o8b:__ZN15DirectorManager18ScheduleGraphStartERK14HPlayableGraph
j8h:_ReadOnlyCollection_1_get_Count_m1336304542_gshared
uZh:__ZL111LayoutUtility_t2745813735_CustomAttributesCacheGenerator_LayoutUtility_U3CGetPreferredHeightU3Em__6_m3049688934P21CustomAttributesCache
MB:__ZN7mecanim5human14RetargetToTDoFEPKNS0_5HumanEPNS0_9HumanPoseEPNS_8skeleton13SkeletonPoseTIN4math4trsXEEESB_
s5i:__ZNK15dense_hashtableINSt3__24pairIK10KeyWrapperIPK14Il2CppAssemblyEPK22Il2CppMonoAssemblyNameEES6_N6il2cpp5utils11PointerHashIS4_EEN14dense_hash_mapIS6_SA_SF_NS6_14EqualsComparerINS0_8equal_toIS5_EEEENS0_9allocatorISB_EEE9SelectKeyESK_SM_E10test_emptyEj
Imj:__ZN6il2cpp6icalls8mscorlib6System11Environment20GetWindowsFolderPathEi
zJd:_Convert_ToBoolean_m2833752130
uw:__ZN7mecanim5human18HumanPoseBlendNodeERNS0_9HumanPoseEPS1_f
_zc:_UNITY_FT_RoundFix
pR:__ZN23CloudWebServicesManager23VirtualRedirectTransferER17RemapPPtrTransfer
ptj:_GC_is_heap_ptr
K3e:_ASN1_DecodeTLV_m1200977460
lng:_UnityEventBase_PrepareInvoke_m1785382128
Eai:_ReadOnlyCollection_1_System_Collections_Generic_IListU3CTU3E_set_Item_m1584697503_gshared
wbb:__ZNK12MeshRenderer22GetTypeVirtualInternalEv
aCd:_Char_System_IConvertible_ToUInt32_m3901815580
MWe:_Scrollbar_set_onValueChanged_m346467699
ZKg:__Z157RuntimeInvoker_Int32_t2950945753_RuntimeObject_Int32_t2950945753_Int32_t2950945753_Int32_t2950945753_SByte_t1669577662_SByte_t1669577662_Int32U26_t1369213839PFvvEPK10MethodInfoPvPS4_
Lki:_ListPool_1_Release_m957266927_gshared
Xuh:__ZL105ConfigHandler_t4192437216_CustomAttributesCacheGenerator_ConfigHandler_ValidatePath_m3895556516____paths1P21CustomAttributesCache
sK:__ZN4FMOD6System17setSoftwareFormatEi17FMOD_SOUND_FORMATii18FMOD_DSP_RESAMPLER
Lha:__ZN14SafeBinaryRead19TransferSTLStyleMapINSt3__23mapIN4core12basic_stringIcNS3_20StringStorageDefaultIcEEEES7_NS1_4lessIS7_EE13stl_allocatorINS1_4pairIKS7_S7_EEL18MemLabelIdentifier1ELi16EEEEEEvRT_17TransferMetaFlags
YOc:__ZN2UI6Canvas27UpdateEventIndexesRecursiveERi
jS:__ZN11UnityEngine15CloudWebService16SessionContainer21PrepareDataErrorEventERN4core12basic_stringIcNS2_20StringStorageDefaultIcEEEE
j0c:_ExecuteEvents_get_pointerUpHandler_m3515704212
XCd:_ArrayList_set_Item_m2003485935
xnj:__ZNSt3__218uninitialized_copyIPNS_4pairIK10KeyWrapperIPK19Il2CppGenericMethodEP10MethodInfoEESB_EET0_T_SD_SC_
rrd:_SatelliteContractVersionAttribute__ctor_m3630863995
XAh:__ZL79Convert_t2465617642_CustomAttributesCacheGenerator_Convert_ToUInt64_m3102114524P21CustomAttributesCache
c2c:_MouseButtonEventData_PressedThisFrame_m1060658845
KZc:_AxisEventData_get_moveVector_m270528189
axb:__Z19TransferField_ArrayI19StreamedBinaryWriteILb0EE27Converter_SimpleNativeClassI8GUIStyleEEvRK23StaticTransferFieldInfoR31RuntimeSerializationCommandInfoRT0_
AMb:__Z27SetClippingPlaneShaderPropsR9GfxDevice
q8h:_ReadOnlyCollection_1_System_Collections_Generic_IListU3CTU3E_RemoveAt_m3969985996_gshared
Kzi:_SymmetricTransform_CFB_m1755507252
hKj:_emscripten_glCopyTexSubImage2D__wrapper
i6a:__ZNK13ScreenManager12GetIsFocusedEv
dbd:_GraphicRegistry_GetGraphicsForCanvas_m4219276355
OOd:_NumberFormatter_FastToDecHex_m699829267
nri:_PatternCompiler_MakeFlags_m1977119795
ctc:__Z35Transfer_Blittable_FixedBufferFieldI8JSONReadiEvRK29SerializationCommandArgumentsR31RuntimeSerializationCommandInfo
Rla:__ZN15SerializeTraitsIN9ShaderLab16FastPropertyNameEE8TransferI19StreamedBinaryWriteILb0EEEEvRS1_RT_
Evh:__ZL59StreamingContext_t3711869237_CustomAttributesCacheGeneratorP21CustomAttributesCache
BWi:__ZNSt3__213__vector_baseIN6il2cpp2os19SocketHandleWrapperENS_9allocatorIS3_EEED2Ev
nnh:__ZL48_Type_t3588564251_CustomAttributesCacheGeneratorP21CustomAttributesCache
YUh:__ZL81FontUpdateTracker_t1839077620_CustomAttributesCacheGenerator_U3CU3Ef__mgU24cache0P21CustomAttributesCache
dc:invoke_viiffi
Dph:__ZL103RegionInfo_t1090270226_CustomAttributesCacheGenerator_RegionInfo_t1090270226____NativeName_PropertyInfoP21CustomAttributesCache
AQd:_Int64_System_IConvertible_ToUInt32_m109903525
dC:__ZNSt3__227__insertion_sort_incompleteIRPFbPKN8Animator11AnimatorJobES4_EPS4_EEbT0_S9_T_
WR:__ZNSt3__26__treeINS_12__value_typeIN4core12basic_stringIcNS2_20StringStorageDefaultIcEEEEjEENS_19__map_value_compareIS6_S7_NS_4lessIS6_EELb1EEE13stl_allocatorIS7_L18MemLabelIdentifier88ELi16EEE4findIS6_EENS_15__tree_iteratorIS7_PNS_11__tree_nodeIS7_PvEEiEERKT_
Uoc:__ZN5Unity9rapidjson13GenericReaderINS0_4UTF8IcEES3_13JSONAllocatorE10ParseFalseILj0ENS0_19GenericStringStreamIS3_EENS0_15GenericDocumentIS3_S4_S4_EEEEvRT0_RT1_
Apg:_Mathf_CeilToInt_m432108984
B1a:__ZNK12CubemapArray20GetRuntimeMemorySizeEv
$bg:_TimeSpan_FromHours_m1109641064
gka:__Z14resize_trimmedINSt3__26vectorIN9ShaderLab18SerializedPropertyENS0_9allocatorIS3_EEEEEvRT_j
zIi:__ZL25UnresolvedVirtualCall_138P12Il2CppObject17Color_t2555686324faaPK10MethodInfo
Urb:__Z18Transfer_BlittableI17RemapPPtrTransferLb0EN4math12int3_storageEEvRK29SerializationCommandArgumentsR31RuntimeSerializationCommandInfo
cre:_InternalEnumerator_1__ctor_m4124630986_gshared
yUi:__ZN6il2cpp2vm13MetadataCache38GetMethodInfoFromMethodDefinitionIndexEi
W_c:_EventSystem_set_current_m38955169
HNe:_TypeMetadata__ctor_m646635308
oqi:_CostDelegate_EndInvoke_m2797921932
g7a:__ZN10VertexData8TransferI24GenerateTypeTreeTransferEEvRT_
fBf:_Double_IsInfinity_m820013146
lzd:__ZN21InterfaceFuncInvoker1I19Decimal_t2948259380P12Il2CppObjectE6InvokeEjP11Il2CppClassS2_S2_
cnj:__ZN13Il2CppHashMapIPK19Il2CppGenericMethodP10MethodInfoN6il2cpp8metadata23Il2CppGenericMethodHashENS6_26Il2CppGenericMethodCompareENSt3__29allocatorINS9_4pairIK10KeyWrapperIS2_ES4_EEEEEC2EjRKS7_RKS8_
Y4f:_List_1_TrimExcess_m440552561_gshared
ewg:_Screen_get_dpi_m495672463
C8f:_UTF8Encoding_InternalGetByteCount_m2120178851
MUb:__ZL10CullLightsRK22SceneCullingParametersR11CullResults
zMd:_Convert_ToUInt64_m3170916409
Bx:__ZN7mecanim12statemachine20GetBlendTreeConstantERKNS0_13StateConstantEi
nQd:_Int64_System_IConvertible_ToInt16_m4062196970_AdjustorThunk
M_d:_MonoType_GetGenericTypeDefinition_m3201894896
r1b:__Z40GetTemporaryCachePathApplicationSpecificv
Xpa:__ZN9GfxDevice16EndAsyncJobFrameEv
hUg:__Z99RuntimeInvoker_Int32_t2950945753_Ray_t3785851493_RuntimeObject_Single_t1397266774_Int32_t2950945753PFvvEPK10MethodInfoPvPS4_
P3i:__ZNK15dense_hashtableINSt3__24pairIK10KeyWrapperINS1_IPK12PropertyInfoP11Il2CppClassEEEjEES9_17ReflectionMapHashIS8_EN14dense_hash_mapIS9_jSD_NS9_14EqualsComparerINS0_8equal_toIS8_EEEENS0_9allocatorISB_EEE9SelectKeyESI_SK_E10test_emptyERK30dense_hashtable_const_iteratorISB_S9_SD_SM_SI_SK_E
QCc:_UNITY_tt_face_load_hhea
khd:_DerivedType_get_Assembly_m2979298667
Tk:___syscall3
Wk:___syscall6
sra:__ZN9GfxDevice15GetNextCPUFenceEv
Yk:___syscall4
iT:__ZN11UnityEngine15CloudWebService20WebRequestRestClient17GetResponseStatusEv
YJe:_ReturnMessage__ctor_m2352989078
aGg:__Z99RuntimeInvoker_Void_t1185182177_RuntimeObject_Int32_t2950945753_SByte_t1669577662_SByte_t1669577662PFvvEPK10MethodInfoPvPS4_
anb:__ZNSt3__26__treeINS_12__value_typeIN4core12basic_stringIcNS2_20StringStorageDefaultIcEEEEPN16MemoryFileSystem4NodeEEENS_19__map_value_compareIS6_SA_NS_4lessIS6_EELb1EEE13stl_allocatorISA_L18MemLabelIdentifier55ELi16EEE7destroyEPNS_11__tree_nodeISA_PvEE
VAi:_U3CCharFadeInU3Ec__Iterator0_Dispose_m2590404369
Mlh:__ZL70RuntimeArray_CustomAttributesCacheGenerator_Array_get_Length_m21610649P21CustomAttributesCache
Uij:__ZN6il2cpp2vm3RCW14QueryInterfaceILb1EEEP14Il2CppIUnknownP15Il2CppComObjectRK10Il2CppGuid
Ube:_TlsServerCertificateRequest__ctor_m1334974076
ZKd:_Convert_ToInt32_m1613163543
JZg:__Z52RuntimeInvoker_TimeSpan_t881159249_Int32_t2950945753PFvvEPK10MethodInfoPvPS4_
vUe:_MatEntry__ctor_m1949610076
S7h:_ReadOnlyCollection_1_System_Collections_ICollection_CopyTo_m3127175806_gshared
ml:_emscripten_glShaderBinary
sMh:__ZL80Logger_t274032455_CustomAttributesCacheGenerator_U3ClogEnabledU3Ek__BackingFieldP21CustomAttributesCache
wT:__ZN15DownloadHandler19OnFinishReceiveDataEv
Xeg:_UInt16_ToString_m760649087
Zlb:__ZNK20LocalFileSystemPosix6ExistsERK13FileEntryData
ALg:__Z21RuntimeInvoker_Guid_tPFvvEPK10MethodInfoPvPS4_
yMg:__Z46RuntimeInvoker_CipherAlgorithmType_t1174400495PFvvEPK10MethodInfoPvPS4_
Tjg:_Camera_GetAllCameras_m668492922
ySc:__Z58Register_UnityEngine_Canvas_GetETC1SupportedCanvasMaterialv
pcg:_TimeSpan_op_Inequality_m2467851530
zzb:__ZN17AnimationCurveTplIfE8TransferI18StreamedBinaryReadILb1EEEEvRT_
l2h:_Array_Sort_TisUIVertex_t4057497605_m3996333845_gshared
ilf:_ToBase64Transform_get_CanReuseTransform_m702204640
QUc:__ZN18UnityConnectClientD2Ev
jQg:__Z53RuntimeInvoker_PropertyName_t3749835189_RuntimeObjectPFvvEPK10MethodInfoPvPS4_
oyd:_Swapper_BeginInvoke_m1688449973
Rlg:_Display_get_renderingWidth_m1970428952
bQa:__ZN16LevelGameManager23VirtualRedirectTransferER19StreamedBinaryWriteILb0EE
CMg:__Z81RuntimeInvoker_Void_t1185182177_RuntimeObject_Int32_t2950945753_Int64_t3736567304PFvvEPK10MethodInfoPvPS4_
b7a:__Z32TransferEnumWithNameForceIntSizeI14SafeBinaryRead16GfxPrimitiveTypeEvRT_RT0_PKc17TransferMetaFlags
M0:__ZN13dynamic_arrayIcLj1EE6insertEPcPKcS3_
PKh:__ZL92Mesh_t3648964284_CustomAttributesCacheGenerator_Mesh_SetTriangles_m2205169959____baseVertex3P21CustomAttributesCache
pXg:__Z52RuntimeInvoker_Int32_t2950945753_HitInfo_t3229609740PFvvEPK10MethodInfoPvPS4_
bJg:__Z86RuntimeInvoker_Boolean_t97287965_Int16_t2552820387_Int16_t2552820387_Int32_t2950945753PFvvEPK10MethodInfoPvPS4_
uzh:__ZL80Convert_t2465617642_CustomAttributesCacheGenerator_Convert_ToBoolean_m2807110707P21CustomAttributesCache
ulh:__ZL72Enum_t4135868527_CustomAttributesCacheGenerator_Enum_GetName_m2151614395P21CustomAttributesCache
dki:_IndexedSet_1_IndexOf_m241693686_gshared
W5h:_Collection_1_System_Collections_IList_Add_m1802516464_gshared
VTc:__ZN11UnityEngine15PlatformWrapper30GetGraphicsDriverLibraryStringEv
o0d:_RuntimeMethodHandle_Equals_m3301340296_AdjustorThunk
mgg:_UInt64_System_IConvertible_ToSingle_m925613075_AdjustorThunk
JGi:__ZL24UnresolvedVirtualCall_40P12Il2CppObjectS0_PK10MethodInfo
eli:_ListPool_1__cctor_m704263611_gshared
VAb:__Z18Transfer_BlittableI18StreamedBinaryReadILb0EELb0E4AABBEvRK29SerializationCommandArgumentsR31RuntimeSerializationCommandInfo
ffb:__ZN24GenerateTypeTreeTransfer19TransferSTLStyleMapINSt3__28multimapIN4core12basic_stringIcNS3_20StringStorageDefaultIcEEEE4PPtrI6ObjectENS1_4lessIS7_EE13stl_allocatorINS1_4pairIKS7_SA_EEL18MemLabelIdentifier52ELi16EEEEEEvRT_17TransferMetaFlags
OD:__ZN16MecanimAnimation24DeleteAnimatedPropertiesERP26IAnimatedPropertyEvaluator
w$h:__ZL61RandomEvent_t78915677_CustomAttributesCacheGenerator_maleShadP21CustomAttributesCache
rMi:_CanvasRenderer_SetMaterial_m824577244
uLb:__Z14DrawGUITextureRK5RectTIfEP7Texture11ColorRGBA32P8Materiali
gHh:__ZL84RectOffset_t1369453676_CustomAttributesCacheGenerator_RectOffset_Cleanup_m2552807639P21CustomAttributesCache
m8h:_ReadOnlyCollection_1_System_Collections_Generic_ICollectionU3CTU3E_Add_m2686599243_gshared
RA:__ZN9BlobWrite8TransferI22OffsetPtrArrayTransferIKN4math7_float4EEEEvRT_PKc17TransferMetaFlags
hMb:__ZN22RenderingCommandBuffer20ExecuteCommandBufferER17ShaderPassContextR15RenderNodeQueuejP13dynamic_arrayINSt3__24pairIN9ShaderLab16FastPropertyNameEP13RenderTextureEELj4EE16ComputeQueueTypeSA_
uyg:_Transform_IsChildOf_m224006092
WZa:__ZN15TextureSettings8TransferI24GenerateTypeTreeTransferEEvRT_
Nsc:__ZN9JSONWrite8TransferI4AABBEEvRT_PKc17TransferMetaFlags
qOa:__ZN25MultiBlocksMemoryFileData9SetLengthEy
M2f:_List_1_Clear_m2154023298_gshared
FZc:_AbstractEventData_get_used_m2991176710
rUg:__Z94RuntimeInvoker_Void_t1185182177_ObjectU5BU5DU26_t712384779_Int32_t2950945753_Int32_t2950945753PFvvEPK10MethodInfoPvPS4_
g3h:_Dictionary_2_Do_ICollectionCopyTo_TisRuntimeObject_m1855083806_gshared
dAi:_Aes__ctor_m178909601
E2a:__ZNK9Texture2D20GetRuntimeMemorySizeEv
Gkc:__ZN11Marshalling39CreateNullExceptionForUnityEngineObjectE18ScriptingObjectPtr
Toc:__ZN5Unity9rapidjson13GenericReaderINS0_4UTF8IcEES3_13JSONAllocatorE9ParseTrueILj0ENS0_19GenericStringStreamIS3_EENS0_15GenericDocumentIS3_S4_S4_EEEEvRT0_RT1_
H5g:_List_1_Clear_m2003943277_gshared
um:_emscripten_glUniform2iv
e_f:_Enumerator_Dispose_m1204547613_AdjustorThunk
vxc:_UNITY_FT_Outline_Transform
Y9d:_CipherSuite_get_ExchangeAlgorithmType_m1633709183
RPi:__ZN6il2cpp2vm5Class10GetMethodsEP11Il2CppClassPPv
rYc:__ZNK25UnityWebRequestJavaScript17GetUploadProgressEv
KQb:__Z30AddDefaultStreamsToMeshBuffersR9GfxDeviceR11MeshBuffersRK16DrawBuffersRange17ShaderChannelMaskS6_
Z1g:_List_1_GetEnumerator_m1430071802_gshared
PCa:__ZN7ApiGLES17DeleteFramebufferERN2gl6HandleILNS0_10ObjectTypeE9EEES3_
rGa:__ZN15UniformTFMethod13MapBoneBufferEj
TNc:__ZN2UI14CanvasRendererD2Ev
L4h:_Array_InternalArray__get_Item_TisParameterModifier_t1461694466_m29553316_gshared
FQd:_Int64_CompareTo_m1928360444_AdjustorThunk
_Fb:__Z9SetupArgviPPKc
nLd:_Convert_ToInt64_m2075031821
Mhb:__ZN13dynamic_arrayIP10UnitySceneLj4EE9push_backERKS1_
Mne:_InternalEnumerator_1__ctor_m236665673_gshared
$Kj:_glTexParameteri__wrapper
e3:__ZN12ImmediatePtrI10GameObjectE8TransferI19StreamedBinaryWriteILb0EEEEvRT_
F1a:__ZN12CubemapArray23VirtualRedirectTransferER24GenerateTypeTreeTransfer
rGi:__ZL24UnresolvedVirtualCall_22P12Il2CppObjectS0_iS0_S0_S0_PK10MethodInfo
s1:__ZN12FileAccessor4OpenER15FileSystemEntry14FilePermission16FileAutoBehavior
nVa:__ZNSt3__26vectorI4PPtrI6ShaderE13stl_allocatorIS3_L18MemLabelIdentifier53ELi16EEE8__appendEj
Elj:__ZN6il2cpp2os9Directory6CreateERKNSt3__212basic_stringIcNS2_11char_traitsIcEENS2_9allocatorIcEEEEPi
Yka:__ZN4PPtrI6ShaderE8TransferI18StreamedBinaryReadILb0EEEEvRT_
x6:__ZN23TransformChangeDispatch32QueueTransformChangeIfHasChangedERK15TransformAccess
N0a:__ZNSt3__26vectorINS_4pairIN9ShaderLab16FastPropertyNameEN18UnityPropertySheet11UnityTexEnvEEENS_9allocatorIS6_EEE21__push_back_slow_pathIKS6_EEvRT_
$Na:__ZN15ArchiveReadFile5WriteEyPKvPy
Sdd:_Assembly_get_FullName_m293988418
B:tempValue
t$b:__Z29StdTemplateConversionFunctionIaiEbPvR14SafeBinaryRead
bxj:__ZN6il2cpp8metadata24Il2CppGenericContextHash4HashEPK20Il2CppGenericContext
doe:_InternalEnumerator_1_get_Current_m356936020_AdjustorThunk
cih:_Collection_1_CheckWritable_m1583234367_gshared
UPd:_Int32_ToString_m141394615_AdjustorThunk
$Dd:_ArrayListWrapper_CopyTo_m498486826
HSd:_Directory_GetCurrentDirectory_m219218555
Iud:_SmallXmlParser_UnexpectedEndError_m1914362401
_x:__ZN26AnimatorControllerPlayable18DeallocateBindingsEv
jvh:__ZL61FormatterTypeStyle_t3400733584_CustomAttributesCacheGeneratorP21CustomAttributesCache
Gva:__ZN14DelayedDeletorI15dense_hashtableINSt3__24pairIK9TextureIDiEES3_14GfxGenericHashIS3_EN14GfxDoubleCacheIS3_iS7_NS1_8equal_toIS3_EEN31GfxDoubleCacheConcurrencyPolicy11LocklessGetE42GfxDoubleCacheDefaultEmptyDeletedGeneratorIS3_EE9SelectKeyESA_13stl_allocatorIS5_L18MemLabelIdentifier24ELi16EEEEclEv
tN:__ZN11AudioSource19CreateOpenALRolloffEfff
KCc:_UNITY_FT_Stream_ReadAt
obg:_TimeSpan__ctor_m1896986612_AdjustorThunk
HTi:__ZN15dense_hashtableINSt3__24pairIK10KeyWrapperIN6il2cpp5utils13dynamic_arrayIPK10Il2CppTypeLj4EEEEPFvvEEESA_NS3_8metadata19Il2CppSignatureHashEN14dense_hash_mapISA_SD_SG_NSA_14EqualsComparerINSF_22Il2CppSignatureCompareEEENS0_9allocatorISE_EEE9SelectKeyESK_SM_E9set_valueEPSE_RKSE_
fCi:_MoodSlider_SadFace_m1190860847
etd:_ArgumentException__ctor_m1216717135
ptg:_Ray_ToString_m1732834890_AdjustorThunk
md:_glReadBuffer
u3g:_List_1_System_Collections_IList_Contains_m3860993176_gshared
hO:__ZN11AudioModule22CreateAudioClipFromWWWEP10IWWWStreamPKcbbi
p5b:__ZN9Texture2DC2E10MemLabelId18ObjectCreationMode
Si:_emscripten_glRotatef
$eg:_UInt32_System_IConvertible_ToBoolean_m1763673183_AdjustorThunk
fng:_UnityEvent_AddListener_m2276267359
_Pc:__Z13RegisterClassIN2UI11CanvasGroupEEvv
QOg:__Z35RuntimeInvoker_RangeInt_t2094684618PFvvEPK10MethodInfoPvPS4_
y1b:__ZN6prcoreL11inner_clearILj4EEEvPhjjj
of:_emscripten_glClear
ZIe:_MethodCall_get_Args_m148309537
AJe:_DictionaryEnumerator_get_Value_m2166220004
MEi:_PCMReaderCallback_BeginInvoke_m3391809637
FBh:__ZL72LoaderOptimization_t1484956347_CustomAttributesCacheGenerator_DomainMaskP21CustomAttributesCache
ADg:__Z74RuntimeInvoker_Void_t1185182177_RuntimeObject_StreamingContext_t3711869237PFvvEPK10MethodInfoPvPS4_
Jsj:_GC_initialize_offsets
lea:__ZNK8Playable6HandleEv
qPe:_SetPropertyUtility_SetColor_m2229203028
HCj:___cxa_guard_abort
Nwe:_Enumerator_MoveNext_m481679286_gshared
y$:__ZN14MessageHandler28MessageIDToMessageIdentifierEi
C7a:__ZNK11SpriteAtlas20GetRuntimeRenderDataEPK6Sprite
xSd:_FileSystemInfo__ctor_m3035148496
rig:_AssetBundleCreateRequest_t3119663542_marshal_pinvoke_cleanup
kPd:_Int32_System_IConvertible_ToDecimal_m2190376994_AdjustorThunk
K_f:_KeyValuePair_2_set_Key_m2121548577_AdjustorThunk
h_g:__Z46RuntimeInvoker_RefEmitPermissionSet_t484390987PFvvEPK10MethodInfoPvPS4_
nQg:__Z57RuntimeInvoker_PropertyName_t3749835189_Int32_t2950945753PFvvEPK10MethodInfoPvPS4_
lKc:__ZN20TextRenderingPrivate15DynamicFontData36GetFaceForCharacterIfAvailableInFontERKNS_7FontRefERK13dynamic_arrayI4PPtrIN13TextRendering4FontEELj4EEj
Yv:__ZN7mecanim14ValueArrayCopyILb0EEEvPKNS_10ValueArrayEPS1_
cF:__Z51Register_UnityEngine_Animator_get_hasBoundPlayablesv
Adh:_Collection_1_CopyTo_m3142835220_gshared
Ed:emscriptenWebGLGetUniform
to:FUNCTION_TABLE_iiiiiiiiiii
YZh:__ZL118U3CCharFadeInU3Ec__Iterator0_t3113744254_CustomAttributesCacheGenerator_U3CCharFadeInU3Ec__Iterator0__ctor_m1009561744P21CustomAttributesCache
cBe:_ValueCollection_System_Collections_IEnumerable_GetEnumerator_m2535969909_gshared
bBc:_cff_set_mm_blend
zJb:__ZN19GfxThreadableDevice15OnDeviceCreatedEb
tWb:__ZL10CleanUpJobP20CullingGroupsJobData
JQb:__Z20IsRunningNativeTestsv
sSd:_DirectoryInfo_get_Exists_m3142069876
Gcb:__ZN11TimeManager23VirtualRedirectTransferER17RemapPPtrTransfer
lLb:__ZN13RenderManager15BatchModeUpdateEv
Ofi:_Predicate_1__ctor_m327447107_gshared
Mdf:_X509Chain_get_CertificateAuthorities_m804805415
M6a:__ZN14SafeBinaryRead21TransferSTLStyleArrayI13dynamic_arrayI8Vector2fLj4EEEEvRT_17TransferMetaFlags
zqh:__ZL123GenericTypeParameterBuilder_t1988827940_CustomAttributesCacheGenerator_GenericTypeParameterBuilder_IsSubclassOf_m2266644074P21CustomAttributesCache
h3:__ZN17PersistentManager51InstanceIDToLocalSerializedObjectIdentifierInternalEiR31LocalSerializedObjectIdentifier
rvg:_Vector2_get_one_m738793577
dac:__ZNK4Mesh14GetIndexFormatEv
SZf:_GenericEqualityComparer_1__ctor_m4072188982_gshared
Ewi:_UriParser_set_DefaultPort_m4007715058
hd:_glVertexAttribIPointer
_6f:_StringBuilder_ToString_m3317489284
gCa:__ZN13dynamic_arrayI21ComputeShaderResourceLj4EE9push_backERKS0_
pac:__ZNK6Sprite10GetPaddingE20SpriteRenderDataMode
ZIf:_Array_InternalArray__ICollection_Remove_TisUInt32_t2560061978_m733727733_gshared
D1d:_CryptographicException__ctor_m503735289
dIe:_ConstructionCall_get_CallSiteActivationAttributes_m3498917408
fUd:_Stream_EndRead_m1896469262
TAg:__Z93RuntimeInvoker_Boolean_t97287965_Int32_t2950945753_SByte_t1669577662_ExceptionU26_t3600731591PFvvEPK10MethodInfoPvPS4_
EOb:__ZN14qsort_internal5QSortIP15RODataDepthPassi17ROSorterDepthPassEEvT_S4_T0_T1_
uDc:_UNITY_ft_glyphslot_alloc_bitmap
qfe:_RSASslSignatureDeformatter_SetHashAlgorithm_m895570787
Hpi:_X509CrlEntry__ctor_m4013514048
uSi:__ZN15dense_hashtableI10KeyWrapperIPK17Il2CppGenericInstES4_N6il2cpp8metadata21Il2CppGenericInstHashEN14dense_hash_setIS4_S7_NS4_14EqualsComparerINS6_24Il2CppGenericInstCompareEEENSt3__29allocatorIS4_EEE8IdentityESB_SE_E16reset_thresholdsEv
UPg:__Z87RuntimeInvoker_Color_t2555686324_Color_t2555686324_Color_t2555686324_Single_t1397266774PFvvEPK10MethodInfoPvPS4_
nIc:_ft_raster1_render
klc:__Z47Register_UnityEngine_Mesh_RecalculateBoundsImplv
iqa:__ZN9GfxDevice27UpdateComputeSkinPoseBufferEP9GfxBufferP12SkinMeshInfo
s1f:_Enumerator_get_Current_m3382684163_AdjustorThunk
Aje:_InternalEnumerator_1_System_Collections_IEnumerator_Reset_m3677481164_AdjustorThunk
rBj:__ZNKSt3__221__basic_string_commonILb1EE20__throw_length_errorEv
aXf:_EqualityComparer_1_System_Collections_IEqualityComparer_Equals_m245992594_gshared
KKg:__Z52RuntimeInvoker_UInt64_t4134040092_Single_t1397266774PFvvEPK10MethodInfoPvPS4_
x_h:__ZL177U3CCrossFadeInU3Ec__Iterator1_t1595254694_CustomAttributesCacheGenerator_U3CCrossFadeInU3Ec__Iterator1_System_Collections_Generic_IEnumeratorU3CobjectU3E_get_Current_m3379173695P21CustomAttributesCache
HMf:_Array_InternalArray__IndexOf_TisParameterModifier_t1461694466_m1227120810_gshared
QDa:__ZN18GfxFramebufferGLES13ReadbackImageER14ImageReferenceiiiiii
vpc:__ZN5Unity9rapidjson6WriterI16TempBufferWriterNS0_4UTF8IcEES4_13JSONAllocatorE11WriteStringEPKcj
pOe:_SerializationInfo_SetType_m3923964808
tza:__ZN6prcoreL12RemapGenericI17TexFormatARGB888815TexFormatRGB565EEvPKNS_9InnerInfoE
ZI:__ZN4FMOD7Channel19setReverbPropertiesEPK29FMOD_REVERB_CHANNELPROPERTIES
lWd:_StreamReader_Dispose_m156389394
h_:__ZN13MonoBehaviour22GetScriptFullClassNameEv
x8i:_il2cpp_object_get_class
blf:_SymmetricAlgorithm_get_Padding_m1011382560
q3b:__ZN13ProduceHelperI11MonoManagerLb0EE7ProduceE10MemLabelId18ObjectCreationMode
pif:_RIPEMD160Managed_JJ_m112143231
aOb:__ZN13BatchRendererC2ER15RenderLoopStatsRK15RenderNodeQueuebb
Uue:_Comparer_1__ctor_m191896560_gshared
U1e:_PreviousInfo_t2148130204_marshal_pinvoke_back
Tmb:__ZNK16MemoryFileSystem9EnumerateEPKcP19dynamic_block_arrayI13FileEntryInfoLj32EEbPPv19FileEnumerationFlag
YDb:__ZN13MonoBehaviour9CallAwakeEv
zYa:__ZN20SphericalHarmonicsL211AddWeightedERKS_f
VDg:__Z82RuntimeInvoker_RuntimeObject_Int64_t3736567304_Int64_t3736567304_Int64_t3736567304PFvvEPK10MethodInfoPvPS4_
ftb:__Z19TransferField_ArrayI17RemapPPtrTransfer27Converter_SimpleNativeClassI8GUIStyleEEvRK23StaticTransferFieldInfoR31RuntimeSerializationCommandInfoRT0_
Pga:__ZL22StaticInitializeShaderPv
fqc:__ZN9JSONWrite8TransferI10ColorRGBAfEEvRT_PKc17TransferMetaFlags
Hre:_InternalEnumerator_1__ctor_m3913006324_AdjustorThunk
s$:__Z25scripting_method_get_name18ScriptingMethodPtr
Bfe:_SslCipherSuite_ComputeKeys_m661027754
ise:_InternalEnumerator_1__ctor_m3322594868_gshared
vrg:_Object_set_name_m291480324
DJd:_Convert_ToBoolean_m481380807
Hyf:_Decimal_Equals_m2486655999
Lsj:_GC_exit_check
Fed:_AssemblyName_SetPublicKeyToken_m582470133
gQg:__Z52RuntimeInvoker_Boolean_t97287965_HitInfo_t3229609740PFvvEPK10MethodInfoPvPS4_
bM:__ZNK4PPtrI9AudioClipEcvPS0_Ev
SY:__Z20UnlockObjectCreationv
iod:_MonoField_ToString_m2518484388
G4e:_DSAManaged_get_Random_m923751780
Wye:_Transform_1_Invoke_m2385719192_gshared
tzg:_Vector3_set_Item_m1772472431_AdjustorThunk
Fgf:_Interpreter_PopulateGroup_m4042796257
$pb:__ZN15SerializeTraitsI13dynamic_arrayIyLj8EEE19ResizeSTLStyleArrayERS1_i
j_b:__ZNSt3__26vectorINS_4pairIN4core12basic_stringIcNS2_20StringStorageDefaultIcEEEES6_EE13stl_allocatorIS7_L18MemLabelIdentifier38ELi16EEE6insertENS_11__wrap_iterIPKS7_EERSD_
Gng:_RenderPipelineManager_DoRenderLoop_Internal_m3799666479
zIh:__ZL78Sprite_t280657092_CustomAttributesCacheGenerator_Sprite_get_packed_m1179604684P21CustomAttributesCache
IA:__ZN9BlobWrite8TransferI22OffsetPtrArrayTransferI9OffsetPtrIN7mecanim12statemachine18StateMachineMemoryEEEEEvRT_PKc17TransferMetaFlags
dZ:__ZN4core8hash_mapIiP6ObjectNS_4hashIiEENSt3__28equal_toIiEEE4growEi
cZ:__ZN4core8hash_mapIiP6ObjectNS_4hashIiEENSt3__28equal_toIiEEE4growEv
vfh:_Collection_1_System_Collections_IList_IndexOf_m3894953546_gshared
Tni:_PKCS12_get_Certificates_m26161562
t8e:_NameObjectCollectionBase_Init_m2525481323
Xnj:__ZN6il2cpp2vm6String8NewUtf16EPKDsi
A0d:_SByte_System_IConvertible_ToByte_m2268214252_AdjustorThunk
nlj:__ZN6il2cpp2os10ThreadImpl12QueueUserAPCEPFvPvES2_
PF:__Z32TransferEnumWithNameForceIntSizeI14SafeBinaryReadN10SampleClip17CompressionFormatEEvRT_RT0_PKc17TransferMetaFlags
Vui:_RegularExpression__ctor_m119502265
GUc:__ZN22BaseUnityConnectClient10QueueEventERN11UnityEngine15CloudWebService17CloudServiceEventEPKcjb
n8h:_ReadOnlyCollection_1_System_Collections_Generic_ICollectionU3CTU3E_Clear_m522482168_gshared
$gd:_DerivedType_IsByRefImpl_m2585680005
G$a:__ZN13dynamic_arrayI11ShaderTagIDLj4EE9push_backERKS0_
gIe:_ConstructionCall_InitMethodProperty_m2021094586
kGc:_UNITY_FT_Hypot
Sje:_InternalEnumerator_1__ctor_m2636293838_gshared
pNh:__ZL95TextGenerator_t3211863866_CustomAttributesCacheGenerator_TextGenerator_get_lineCount_m916872812P21CustomAttributesCache
lYh:__ZL74CanvasScaler_t2767979955_CustomAttributesCacheGenerator_m_DefaultSpriteDPIP21CustomAttributesCache
K7i:_il2cpp_class_is_abstract
yf:_emscripten_glGetError
i5i:__ZN15dense_hashtableINSt3__24pairIK10KeyWrapperIPK14Il2CppAssemblyEPK22Il2CppMonoAssemblyNameEES6_N6il2cpp5utils11PointerHashIS4_EEN14dense_hash_mapIS6_SA_SF_NS6_14EqualsComparerINS0_8equal_toIS5_EEEENS0_9allocatorISB_EEE9SelectKeyESK_SM_E14squash_deletedEv
KJ:__Z14FMOD_FILE_SeekPvjS_
QUe:_MaskableGraphic_OnDisable_m1757789159
iZa:__ZN7TextureC2E10MemLabelId18ObjectCreationMode
FSe:_LayoutGroup__ctor_m2162961217
ehg:_ValueType_t3640485471_marshal_pinvoke_cleanup
uXb:__ZNK13RenderTexture32CalculateNeedsInvertedProjectionEv
w0b:__ZN10systeminfo18GetOperatingSystemEv
Gf:emscriptenWebGLGet
Faa:__Z19CanReplaceComponentRN5Unity9ComponentEPKNS_4TypeEPN4core12basic_stringIcNS5_20StringStorageDefaultIcEEEE
lYd:_UnmanagedMemoryStream_Flush_m1540584491
meh:_Collection_1_GetEnumerator_m3986802482_gshared
KMd:_GuidParser_ParseGuid2_m1914838819
i5b:__ZN12CubemapArray11InitTextureEiii13TextureFormatb
ncc:__Z17GetSceneBuildInfoRKN4core12basic_stringIcNS_20StringStorageDefaultIcEEEEiR14SceneBuildInfo
M0g:_List_1_System_Collections_IList_get_Item_m1112579679_gshared
OLd:_Convert_ToSingle_m3983149863
Fie:_InternalEnumerator_1_System_Collections_IEnumerator_get_Current_m55999184_gshared
MAe:_ValueCollection_System_Collections_Generic_ICollectionU3CTValueU3E_Contains_m1842955046_gshared
Y1i:__ZN24dense_hashtable_iteratorINSt3__24pairIK10KeyWrapperIPK10Il2CppTypeEjEES6_N6il2cpp8metadata14Il2CppTypeHashEN14dense_hash_mapIS6_jSB_NS6_14EqualsComparerINSA_26Il2CppTypeEqualityComparerEEENS0_9allocatorIS8_EEE9SelectKeyESF_SH_E30advance_past_empty_and_deletedEv
fad:_Graphic_get_depth_m815589653
Uwi:_Event_set_displayIndex_m1342258734
l6c:_ContentSizeFitter_get_horizontalFit_m2773126143
qki:_U3CStartU3Ec__Iterator0__ctor_m2366347741_gshared
pB:__ZN7mecanim5human13HumanFixTwistEPKNS0_5HumanEPNS_8skeleton13SkeletonPoseTIN4math4trsXEEES9_iiRKf
sRb:__ZL24AssignProjectorQueuesJobP30AssignProjectorQueuesJobHeader
lSf:_KeyValuePair_2_get_Key_m1218836954_gshared
Vpd:_ParameterModifier_t1461694466_marshal_pinvoke
OTi:__ZN15dense_hashtableINSt3__24pairIK10KeyWrapperIN6il2cpp5utils13dynamic_arrayIPK10Il2CppTypeLj4EEEEPFvvEEESA_NS3_8metadata19Il2CppSignatureHashEN14dense_hash_mapISA_SD_SG_NSA_14EqualsComparerINSF_22Il2CppSignatureCompareEEENS0_9allocatorISE_EEE9SelectKeyESK_SM_E4swapERSP_
_Ce:_Dictionary_2_System_Collections_Generic_ICollectionU3CSystem_Collections_Generic_KeyValuePairU3CTKeyU2CTValueU3EU3E_Contains_m3724727653_gshared
nna:__ZN9ShaderLab20SerializedSubProgram14SetConstBufferEPKci
XZi:__ZN6il2cpp2os4File5CloseEPNS0_10FileHandleEPi
nTi:__ZNSt3__27__sort5IRN6il2cpp5utils11collections13ArrayValueMapIPK10Il2CppType17Il2CppInteropData26InteropDataToTypeConverterNS1_8metadata14Il2CppTypeLessENSA_26Il2CppTypeEqualityComparerEE12SortComparerEPS8_EEjT0_SH_SH_SH_SH_T_
txg:_Touch_get_fingerId_m859576425_AdjustorThunk
LVg:__Z48RuntimeInvoker_Boolean_t97287965_Link_t544317964PFvvEPK10MethodInfoPvPS4_
iVe:_Navigation_get_selectOnDown_m1912812616_AdjustorThunk
u2g:_List_1_System_Collections_ICollection_CopyTo_m2688165607_gshared
tVg:__Z53RuntimeInvoker_UIVertex_t4057497605_Int32_t2950945753PFvvEPK10MethodInfoPvPS4_
Feg:_UInt16_CompareTo_m2664746316_AdjustorThunk
VAe:_ValueCollection_GetEnumerator_m616748621_gshared
YW:__Z40DebugStringToFilePostprocessedStacktraceRK21DebugStringToFileData
Tuc:__Z29Transfer_Blittable_ArrayFieldI8JSONReadjEvRT_R9ArrayInfoRK23StaticTransferFieldInfo
eci:_ReadOnlyCollection_1_get_Item_m679165083_gshared
Rsj:_GC_check_finalizer_nested
mg:__setLetterbox
_0a:__ZNSt3__26__treeINS_12__value_typeIN9ShaderLab16FastPropertyNameEfEENS_19__map_value_compareIS3_S4_NS_4lessIS3_EELb1EEENS_9allocatorIS4_EEE12__find_equalIS3_EERPNS_16__tree_node_baseIPvEENS_21__tree_const_iteratorIS4_PNS_11__tree_nodeIS4_SE_EEiEESH_RKT_
CYe:_ScrollRect_OnScroll_m3861066534
JCe:_Dictionary_2_ToTKey_m224697230_gshared
QMh:__ZL72FormerlySerializedAsAttribute_t2859083114_CustomAttributesCacheGeneratorP21CustomAttributesCache
Moc:__ZN8JSONRead32GetValueForKeyWithNameConversionEPKN5Unity9rapidjson12GenericValueINS1_4UTF8IcEE13JSONAllocatorEEPKc
Jri:_PatternCompiler_EmitFastRepeat_m3012952683
gab:__ZNSt3__26vectorI17BlendShapeChannelNS_9allocatorIS1_EEE6assignINS_11__wrap_iterIPS1_EEEENS_9enable_ifIXaasr21__is_forward_iteratorIT_EE5valuesr16is_constructibleIS1_NS_15iterator_traitsISA_E9referenceEEE5valueEvE4typeESA_SA_
p0b:__ZN11TimeManager11GetRealtimeEv
pHh:__ZL91RectOffset_t1369453676_CustomAttributesCacheGenerator_RectOffset_get_horizontal_m2663785949P21CustomAttributesCache
xrg:_Object_GetHashCode_m1944636947
lSd:_BinaryReader_ReadUInt32_m2210658763
cK:__ZN29AudioEffectInternalDefinitionC2EP26UnityAudioEffectDefinitionb
Zci:_ReadOnlyCollection_1_System_Collections_IList_Remove_m2434650390_gshared
Yeg:_UInt16_ToString_m3056878594_AdjustorThunk
uD:__ZN4PPtrI6AvatarE8TransferI18StreamedBinaryReadILb0EEEEvRT_
eTf:_Dictionary_2_System_Collections_Generic_ICollectionU3CSystem_Collections_Generic_KeyValuePairU3CTKeyU2CTValueU3EU3E_Contains_m2803718146_gshared
dwj:__ZN6il2cpp2os9FastMutexD2Ev
Chf:_Interval_get_IsSingleton_m3386290029
d0i:__ZNSt3__2plIcNS_11char_traitsIcEENS_9allocatorIcEEEENS_12basic_stringIT_T0_T1_EERKS9_PKS6_
pxg:_Time_get_unscaledDeltaTime_m4270080131
Jbb:__ZN4Mesh14GetMeshBuffersER11MeshBuffers17ShaderChannelMaskPS_b
fkf:_SHA384Managed__ctor_m3220477113
sya:_stbir_resize
ULf:_Array_IndexOf_TisCustomAttributeTypedArgument_t2723150157_m3158556463_gshared
CWf:_EqualityComparer_1_System_Collections_IEqualityComparer_GetHashCode_m360549782_gshared
xCf:_Environment_GetOSVersionString_m407782784
lsf:_DecoderExceptionFallback_Equals_m1082173956
zYf:_EqualityComparer_1_System_Collections_IEqualityComparer_GetHashCode_m345188086_gshared
frh:__ZL69Assembly_t_CustomAttributesCacheGenerator_Assembly_GetName_m981771927P21CustomAttributesCache
pbb:__ZN4PPtrI4MeshE8TransferI14SafeBinaryReadEEvRT_
wOa:__Z37ReadDirectoryInfo_UnityWebAndUnityRawR12FileAccessorRKN20ArchiveStorageHeader6HeaderERNS1_13DirectoryInfoE
Q9:__ZNSt3__26__treeINS_12__value_typeIPKciEENS_19__map_value_compareIS3_S4_15compare_tstringIS3_ELb1EEENS_9allocatorIS4_EEE7destroyEPNS_11__tree_nodeIS4_PvEE
ZPf:_Array_InternalArray__Insert_TisIntPtr_t_m189626842_gshared
Rcf:_X509Certificate2_get_IssuerName_m1277209535
T$e:_Locale_GetText_m3374010885
Vih:_Collection_1_System_Collections_IEnumerable_GetEnumerator_m1598238343_gshared
Y4d:_RijndaelManaged_CreateEncryptor_m263736311
Xag:_WaitCallback__ctor_m1893321019
kVc:__ZN13dynamic_arrayIN4core12basic_stringIcNS0_20StringStorageDefaultIcEEEELj4EE6assignEPKS4_S7_
COb:__ZN20DynamicPropertySheet14SetValueQueuedEN9ShaderLab16FastPropertyNameEN19ShaderPropertySheet12PropertyTypeEjNS2_8SetFlagsE
HOc:__ZN2UI6Canvas26MarkAllNestedCanvasesDirtyEv
Mmg:_InvokableCallList_ClearPersistent_m1904264973
yFb:__ZN25PathNamePersistentManagerD2Ev
LY:__ZN17PersistentManager48IntegrateObjectAndUnlockIntegrationMutexInternalEi
Ega:__ZZ29InitializeSortingGroupManagerPvEN44PostLateUpdateSortingGroupsUpdateRegistrator7ForwardEv
ORh:__ZL55EventTrigger_t1076084509_CustomAttributesCacheGeneratorP21CustomAttributesCache
Nnf:_SecurityElement_SearchForChildByTag_m900466299
mp:__ZN6Object12SetHideFlagsENS_9HideFlagsE
v4e:_CryptoConvert_FromCapiPublicKeyBlob_m4073029974
YHj:_emscripten_glGetFramebufferAttachmentParameteriv__wrapper
NLb:__ZN13RendererScene15InitializeUmbraEv
ICi:_U3CCrossFadeU3Ec__Iterator0__ctor_m313156483
qXa:__Z28CalculateGlobalMatrixInverse23TransformAccessReadOnly
Mqg:_MonoBehaviour__ctor_m1579109191
hQh:__ZL59GUITargetAttribute_t25796337_CustomAttributesCacheGeneratorP21CustomAttributesCache
FZf:_GenericEqualityComparer_1_Equals_m3457564127_gshared
M5d:_BigInteger_ModInverse_m2426215562
wke:_InternalEnumerator_1_System_Collections_IEnumerator_Reset_m2386791007_AdjustorThunk
hsf:_DecoderExceptionFallback__ctor_m4044614564
ome:_InternalEnumerator_1_System_Collections_IEnumerator_Reset_m3011999097_AdjustorThunk
fbj:__ZN6il2cpp2vm6Thread17FullMemoryBarrierEv
qYd:_LocalDataStoreSlot__cctor_m644942532
$wj:__ZN6il2cpp6icalls8mscorlib6System6Object7GetTypeEP12Il2CppObject
Zod:_MonoProperty_CachePropertyInfo_m2968057423
qYc:__ZNK25UnityWebRequestJavaScript18GetDownloadedBytesEv
ntg:_Ray_GetPoint_m1852405345_AdjustorThunk
yph:__ZL53RegionInfo_t1090270226_CustomAttributesCacheGeneratorP21CustomAttributesCache
HQh:__ZL85Canvas_t3310196443_CustomAttributesCacheGenerator_Canvas_get_sortingOrder_m1860900812P21CustomAttributesCache
Kkh:__ZL74Single_t1397266774_CustomAttributesCacheGenerator_Single_IsNaN_m4024467661P21CustomAttributesCache
ZGf:_Array_get_swapper_TisColor32_t2600501292_m2310851009_gshared
iYc:__ZN12HeaderHelper14SetUnvalidatedERKN4core12basic_stringIcNS0_20StringStorageDefaultIcEEEES6_b
aG:__ZN4FMOD6SoundI7releaseEv
Pzc:_cff_parse_num
_Oa:__ZN10MemoryFile9SetLengthEy
kvb:__ZN5RectTIiE8TransferI24GenerateTypeTreeTransferEEvRT_
u4a:__ZN14SafeBinaryRead21TransferSTLStyleArrayI13dynamic_arrayI7Hash128Lj8EEEEvRT_17TransferMetaFlags
AEb:__Z28scripting_class_is_interface17ScriptingClassPtr
Dh:_glTexStorage2D
tpd:_MonoProperty_GetOptionalCustomModifiers_m62958967
Kma:__ZNK9ShaderLab10SubProgram14EnsureCompiledEv
okd:_MethodBuilder_GetGenericArguments_m1765425737
Xuf:_DateTime_CompareTo_m3687348273
Grj:_GC_push_marked
dwf:_DateTime_ToUniversalTime_m1945318289_AdjustorThunk
D2e:_Kernel_modInverse_m668448880
xBf:_Enum_t4135868527_marshal_pinvoke
i$:__Z18BuildScriptClassId17ScriptingClassPtr
WKi:_TextGenerator_Init_m1168488231
c6e:_RSAManaged_Finalize_m3915335854
qq:__ZNK16LevelGameManager7GetNameEv
zMa:__ZL31DeleteLastPathNameComponentImplRKN4core12basic_stringIcNS_20StringStorageDefaultIcEEEEPKc
o2b:__Z13RegisterClassI18DelayedCallManagerEvv
UUc:__ZN18UnityConnectClient15GetCloudServiceEv
ttb:__Z18Transfer_BlittableI24GenerateTypeTreeTransferLb0EiEvRK29SerializationCommandArgumentsR31RuntimeSerializationCommandInfo
cne:_InternalEnumerator_1_get_Current_m2698009637_gshared
vWi:__ZN6il2cpp2os19SocketHandleWrapperD2Ev
Xze:_Enumerator_System_Collections_IEnumerator_Reset_m278261807_gshared
tEb:__ZL28SerializationCommandGroupForRK31TransferFunctionScriptingTraits17ScriptingClassPtr17ScriptingFieldPtrRK20CoreScriptingClasses
FRa:__ZN10TagManager32RegisterDefaultTagsAndLayerMasksEv
ibg:_WaitHandle_Dispose_m738127030
t6g:_List_1_System_Collections_IList_get_IsReadOnly_m1729002068_gshared
ZJg:__Z50RuntimeInvoker_Double_t594665363_Int32_t2950945753PFvvEPK10MethodInfoPvPS4_
Rfi:_Predicate_1_EndInvoke_m1490920825_gshared
GBh:__ZL78LoaderOptimization_t1484956347_CustomAttributesCacheGenerator_DisallowBindingsP21CustomAttributesCache
fTf:_Dictionary_2_System_Collections_Generic_ICollectionU3CSystem_Collections_Generic_KeyValuePairU3CTKeyU2CTValueU3EU3E_CopyTo_m3122240003_gshared
ESg:__Z104RuntimeInvoker_Void_t1185182177_Color_t2555686324_Single_t1397266774_SByte_t1669577662_SByte_t1669577662PFvvEPK10MethodInfoPvPS4_
T5g:_List_1_Remove_m3853969205_gshared
K1f:_Enumerator_System_Collections_IEnumerator_get_Current_m1540440674_gshared
Iof:_Single_System_IConvertible_ToInt16_m809233024_AdjustorThunk
Ezj:_fmodf
OOe:_InputField_UpdateLabel_m1837760870
Iua:__ZN4gles8InitCapsEP7ApiGLESP12GraphicsCapsR16GfxDeviceLevelGL
Mya:__ZN6prcore14BlitImageFloatERK14ImageReferenceRS0_NS0_8BlitModeE
VUa:__Z24CalculateVertexLightDataRK15SharedLightDataR14GfxVertexLight
li:_glEnable
Lpe:_InternalEnumerator_1_MoveNext_m973048327_gshared
Hma:__ZNK9ShaderLab7Program28BeginReadUnsupportedVariantsEv
j6:__ZN12CachedWriter11Align4WriteEv
Ofb:__ZNSt3__26vectorIN30RuntimeInitializeOnLoadManager9ClassInfoE13stl_allocatorIS2_L18MemLabelIdentifier13ELi16EEE7reserveEj
sqc:__Z35Transfer_Blittable_FixedBufferFieldI9JSONWriteiEvRK29SerializationCommandArgumentsR31RuntimeSerializationCommandInfo
ONi:_HumanBone_t2465339518_marshal_pinvoke_cleanup
VZf:_Enumerator__ctor_m1590062855_AdjustorThunk
g6i:__ZN14dense_hash_mapI10KeyWrapperINSt3__24pairIPK10MethodInfoP11Il2CppClassEEEj17ReflectionMapHashIS8_ENS9_14EqualsComparerINS1_8equal_toIS8_EEEENS1_9allocatorINS2_IKS9_jEEEEEC2EjRKSB_RKSF_
Sx:__ZN26AnimatorControllerPlayable17ProcessRootMotionEP35AnimationPlayableEvaluationConstantP32AnimationPlayableEvaluationInputP33AnimationPlayableEvaluationOutput
avh:__ZL54SoapServices_t133988723_CustomAttributesCacheGeneratorP21CustomAttributesCache
RXd:_UnexceptionalStreamReader_Peek_m1842169584
vTc:__ZN11UnityEngine7Connect15DeviceInfoEvent16CollectExtraInfoEv
oAg:_TypeInferenceRuleAttribute__ctor_m2736695831
Yig:_Bounds_GetHashCode_m1844059663_AdjustorThunk
U1d:_CryptographicException__ctor_m1422015889
Szg:_Vector4_Equals_m1779210055_AdjustorThunk
AMd:_Convert_ChangeType_m739676612
PAj:_atoi
pPd:_Int32_System_IConvertible_ToInt32_m265310525_AdjustorThunk
QAj:_atol
Hpj:__ZThn8_N6il2cpp2vm13CachedCCWBaseINS0_13ManagedObjectEE6AddRefEv
B9d:_Alert_GetAlertMessage_m1942367141
mXh:__ZL88Selectable_t3250028441_CustomAttributesCacheGenerator_U3CisPointerDownU3Ek__BackingFieldP21CustomAttributesCache
VFe:_RemotingServices_GetRealProxy_m2081098851
m4e:_BlockProcessor_Core_m189015002
ORi:__ZN15dense_hashtableINSt3__24pairIK10KeyWrapperIPKcEP11Il2CppClassEES5_N6il2cpp5utils11StringUtils12StringHasherIS4_EEN14dense_hash_mapIS5_S8_SE_NS5_14EqualsComparerINSB_13VmStringUtils21CaseSensitiveComparerEEENS0_9allocatorIS9_EEE9SelectKeyESJ_SL_EC2EjRKSE_RKSJ_RKSN_
eIj:_emscripten_glScissor__wrapper
yo:FUNCTION_TABLE_viifi
zo:FUNCTION_TABLE_viiff
ltd:_X501__cctor_m1166912714
JSh:__ZL102PointerEventData_t3807901092_CustomAttributesCacheGenerator_PointerEventData_set_lastPress_m2928324031P21CustomAttributesCache
ZUe:_MaskUtilities_GetRectMasksForClip_m532898711
BGc:_UNITY_tt_face_free_hdmx
yjg:_Bounds_ToString_m4208690781
e9i:__ZN15dense_hashtableINSt3__24pairIK10KeyWrapperINS1_IP11Il2CppClassjEEES4_EES6_N6il2cpp8metadata14ArrayClassHashEN14dense_hash_mapIS6_S4_SB_NS6_14EqualsComparerINSA_17ArrayClassCompareEEENS0_9allocatorIS8_EEE9SelectKeyESF_SH_E5clearEv
lRi:__ZNSt3__218uninitialized_copyIPNS_4pairIK10KeyWrapperIPK11Il2CppClassEPKcEESB_EET0_T_SD_SC_
L_i:__ZN6il2cpp2vm14TypeNameParser5ParseEb
HYd:_Math_Sqrt_m1297338011
EWd:_StreamWriter_Initialize_m3490883444
Hdg:_Type_GetGenericArguments_m3500465462
lXc:__ZN23UnityPurchasingSettingsC2Ev
pCj:__ZNSt9bad_allocD0Ev
fnd:_Module_IsDefined_m2423524910
Ogd:_DerivedType_create_unmanaged_type_m747846525
APh:__ZL60EventType_t3528516131_CustomAttributesCacheGenerator_repaintP21CustomAttributesCache
KTa:__ZN17GPUFenceInternals7ReleaseEv
eXh:__ZL66Selectable_t3250028441_CustomAttributesCacheGenerator_m_NavigationP21CustomAttributesCache
nqd:_ResolveEventHandler__ctor_m1911137231
Qgh:_Collection_1_System_Collections_IList_Contains_m2393482847_gshared
vXb:__ZL10RenderFaceR9GfxDeviceR18MaterialStateCacheP13RenderTextureiif
TLf:_Array_IndexOf_TisCustomAttributeNamedArgument_t287865710_m2817957199_gshared
tja:__ZN15SerializeTraitsI13dynamic_arrayIN9ShaderLab21SerializedBindChannelELj4EEE19ResizeSTLStyleArrayERS3_i
Wfj:__ZNK24NamespaceAndNamePairHashclERKNSt3__24pairIPKcS3_EE
gni:_ExtendedKeyUsageExtension_ToString_m2116504780
Hib:__ZNK5Unity9Component38MarkGameObjectAndComponentDependenciesER27GarbageCollectorThreadState
XRd:_BinaryReader_Read_m3708759962
FYc:__ZN20UnityWebRequestProtoI24UnityWebRequestTransport16AtomicRefCounter14RedirectHelper14ResponseHelper15DownloadHandler13UploadHandler12HeaderHelper14AsyncOperationED0Ev
KN:__ZNK7Texture21GetShadowSamplingModeEv
w6a:__ZN13ScreenManager21OnWindowRegainedFocusEv
KBb:__Z18Transfer_BlittableI18StreamedBinaryReadILb0EELb1EdEvRK29SerializationCommandArgumentsR31RuntimeSerializationCommandInfo
nua:__ZN9GfxDevice26CreateDefaultVertexBuffersEv
xJj:_emscripten_glVertexAttrib2fv__wrapper
hZc:__ZN13RuntimeStaticINSt3__26vectorIPN5physx15PxVehicleWheelsENS0_9allocatorIS4_EEEELb0EE13StaticDestroyEPv
dXd:_SynchronizedReader_ReadToEnd_m2160105378
UAf:_Double_System_IConvertible_ToUInt16_m4132603953_AdjustorThunk
Gxa:__ZN4crnd12symbol_codec32decode_receive_static_data_modelERNS_25static_huffman_data_modelE
N0b:__ZN18ScriptingArguments8AddFloatEf
Cxg:_TouchScreenKeyboard_Open_m3325559252
kcd:_Image_set_fillOrigin_m469806249
lTc:__ZN11UnityEngine15PlatformWrapper16GetVRRenderScaleEv
src:__Z18Transfer_BlittableI9JSONWriteLb0EaEvRK29SerializationCommandArgumentsR31RuntimeSerializationCommandInfo
FR:__ZN11UnityEngine15CloudWebService14DataDispatcher34OnSessionContainerArchivedAndReadyERNS0_16SessionContainerE
_qg:_ConnectionChangeEvent__ctor_m764126802
_5d:_Kernel_Multiply_m193213393
DZd:_IntComparer__ctor_m2901422390
oqd:_ResolveEventHandler_Invoke_m1337322179
fwh:__ZL50HMACMD5_t2742219965_CustomAttributesCacheGeneratorP21CustomAttributesCache
kue:_Comparer_1__ctor_m1078828713_gshared
Pvb:__Z18Transfer_BlittableI19StreamedBinaryWriteILb0EELb0E8Vector3fEvRK29SerializationCommandArgumentsR31RuntimeSerializationCommandInfo
C0f:_Enumerator_VerifyState_m2621680056_gshared
Qvi:_UriParser_InternalRegister_m3643767086
lNh:__ZL106TextGenerator_t3211863866_CustomAttributesCacheGenerator_TextGenerator_INTERNAL_get_rectExtents_m183810018P21CustomAttributesCache
Rha:__ZN14SafeBinaryRead19TransferSTLStyleMapINSt3__23mapIN4core12basic_stringIcNS3_20StringStorageDefaultIcEEEEiNS1_4lessIS7_EENS1_9allocatorINS1_4pairIKS7_iEEEEEEEEvRT_17TransferMetaFlags
Rvf:_DateTimeFormatInfo_get_RawAbbreviatedDayNames_m1257850285
_2i:__ZN15dense_hashtableINSt3__24pairIK10KeyWrapperINS1_IPK11Il2CppImageP11Il2CppClassEEEjEES9_17ReflectionMapHashIS8_EN14dense_hash_mapIS9_jSD_NS9_14EqualsComparerINS0_8equal_toIS8_EEEENS0_9allocatorISB_EEE9SelectKeyESI_SK_ED2Ev
NEc:_gray_move_to
axf:_DBNull_System_IConvertible_ToSingle_m13713620
VYh:__ZL127U3CDelayedSetDirtyU3Ec__Iterator0_t3170500204_CustomAttributesCacheGenerator_U3CDelayedSetDirtyU3Ec__Iterator0_Reset_m160466733P21CustomAttributesCache
akg:_CameraCallback__ctor_m899467377
s7h:_ReadOnlyCollection_1_System_Collections_IList_Contains_m1327645028_gshared
xcd:_Image_GetDrawingDimensions_m3060965396
dNh:__ZL69FontTextureRebuildCallback_t2467502454_CustomAttributesCacheGeneratorP21CustomAttributesCache
_dg:_TypeLoadException__ctor_m1154572625
bec:__Z30RegisterValidateMethodCallbackiPF18ScriptingMethodPtrS_17ScriptingClassPtrP6ObjectEPKc
ulb:__ZN20LocalFileSystemPosixD0Ev
Tkh:__ZL75Decimal_t2948259380_CustomAttributesCacheGenerator_Decimal__ctor_m593929528P21CustomAttributesCache
Hce:_Context_get_WriteSequenceNumber_m1115956887
yvd:_Activator_CreateInstanceInternal_m1337209899
t3h:_Dictionary_2_Do_ICollectionCopyTo_TisKeyValuePair_2_t2401056908_m1169495264_gshared
_kd:_OpCodes__cctor_m3821715395
k6c:_ContentSizeFitter__ctor_m2349275633
GDh:__ZL56TypeConverter_t2249118273_CustomAttributesCacheGeneratorP21CustomAttributesCache
Agh:_Collection_1_RemoveAt_m3506636491_gshared
_Dc:_tt_cmap_init
Kvc:__ZN8JSONRead8TransferI9BoundsIntEEvRT_PKc17TransferMetaFlagsb
Ia:invoke_viidi
W1h:_Array_Sort_TisOrderBlock_t1585977831_m2922111197_gshared
Y9c:_Graphic_OnRectTransformDimensionsChange_m3695755375
C0d:_SByte_System_IConvertible_ToChar_m1489191771_AdjustorThunk
DI:__ZN9AudioClip7CleanupEv
IYg:__Z76RuntimeInvoker_Void_t1185182177_Int32_t2950945753_PlayableBinding_t354260709PFvvEPK10MethodInfoPvPS4_
whf:_Interval_t1802865632_marshal_pinvoke_cleanup
qaj:__ZNK15dense_hashtableINSt3__24pairIK10KeyWrapperIP11Il2CppClassES4_EES5_N6il2cpp8metadata16SZArrayClassHashEN14dense_hash_mapIS5_S4_SA_NS5_14EqualsComparerINS9_19SZArrayClassCompareEEENS0_9allocatorIS7_EEE9SelectKeyESE_SG_E12test_deletedEj
sad:_Graphic_GraphicUpdateComplete_m1502194795
luc:__Z18Transfer_BlittableI8JSONReadLb0EdEvRK29SerializationCommandArgumentsR31RuntimeSerializationCommandInfo
iHe:_SynchronizationAttribute_EnterContext_m1660729920
ELi:_Canvas_get_referencePixelsPerUnit_m3420541976
y7h:_ReadOnlyCollection_1_System_Collections_ICollection_get_SyncRoot_m2522539235_gshared
Ywi:_Event_get_current_m2393892120
dEi:_VertexHelper_Clear_m627349662
OWi:__ZN6il2cpp2vm21ThreadPoolCompartment13QueueWorkItemEP17Il2CppAsyncResult
kpa:__ZNK9GfxDevice13GetViewMatrixEv
mYd:_UnmanagedMemoryStream_Dispose_m2681886347
Hhb:__ZN17RemapPPtrTransferC2E24TransferInstructionFlagsb
tKd:_Convert_ToDecimal_m889385228
G0:__ZN8TypeTree8BlobReadERPKhS1_ib
CGh:__ZL87Display_t1387065949_CustomAttributesCacheGenerator_Display_GetSystemExtImpl_m2808197389P21CustomAttributesCache
Nxd:_Array_Reverse_m3714848183
s8c:_Dropdown_ClearOptions_m4085591601
x5c:_CanvasUpdateRegistry_InternalRegisterCanvasElementForGraphicRebuild_m3522560454
BSf:_KeyValuePair_2__ctor_m880186442_gshared
jgb:__ZN18LoadSceneOperation23GetAllowSceneActivationEv
dSa:__ZN6CameraD0Ev
qfa:__ZN31CanvasBatchIntermediateRenderer16StaticInitializeEPv
Zih:_Collection_1_System_Collections_IList_IndexOf_m837396833_gshared
ix:__ZN7mecanim12AndValueMaskILb0EEEvPKNS_14ValueArrayMaskEPS1_
Cfb:__ZN14SafeBinaryRead21TransferSTLStyleArrayINSt3__26vectorIi13stl_allocatorIiL18MemLabelIdentifier13ELi16EEEEEEvRT_17TransferMetaFlags
d5f:_EncoderFallback__cctor_m3806755293
bke:_InternalEnumerator_1__ctor_m962177456_AdjustorThunk
KKc:_raccess_guess_apple_double
LBa:__ZL18ProgramUniform1uivPK7ApiGLESjiihPKv
s5b:__ZN14Texture2DArray13RebuildMipMapEv
NQi:__ZN13Il2CppHashSetIPK17Il2CppGenericInstN6il2cpp8metadata21Il2CppGenericInstHashENS4_24Il2CppGenericInstCompareENSt3__29allocatorI10KeyWrapperIS2_EEEEC2EjRKS5_RKS6_
Qob:__Z18Transfer_BlittableI14SafeBinaryReadLb1EaEvRK29SerializationCommandArgumentsR31RuntimeSerializationCommandInfo
umj:__ZN6il2cpp2gc16GarbageCollector14RemoveWeakLinkEPPv
ona:__ZN9ShaderLab20SerializedSubProgram14AddVectorParamEPKcii15ShaderParamTypei
W2g:_List_1_GetEnumerator_m563931292_gshared
sQc:__ZN2UI14CanvasRenderer12CleanupClassEv
$Id:_Enumerator__ctor_m3362421874
$Qg:__Z117RuntimeInvoker_CSSSize_t3377836552_IntPtr_t_Single_t1397266774_Int32_t2950945753_Single_t1397266774_Int32_t2950945753PFvvEPK10MethodInfoPvPS4_
ANj:_emscripten_glIsFramebuffer__wrapper
ujj:__ZN6il2cpp2vm6Object3BoxEP11Il2CppClassPv
ebj:__ZN6il2cpp2vm6Thread7SetNameEP12Il2CppThreadP12Il2CppString
GGb:__ZN13ScreenManager18SetAllowCursorLockEb
ZS:__ZN11UnityEngine15CloudWebService10RestClientINS0_23WebRequestRestHeaderMapEE16SetRequestHeaderERKN4core12basic_stringIcNS4_20StringStorageDefaultIcEEEESA_
Hfb:__ZN30RuntimeInitializeOnLoadManager15ClassMethodInfo8TransferI14SafeBinaryReadEEvRT_
XHe:_ConstructionCall_InitDictionary_m2824447813
gqd:_TargetException__ctor_m3701535709
wWg:__Z86RuntimeInvoker_Int32_t2950945753_Vector3_t3722313464_Vector3_t3722313464_RuntimeObjectPFvvEPK10MethodInfoPvPS4_
zP:__ZL22InitializeModule_Audiov
Gmb:__ZN16MemoryFileSystem8IsLockedERK13FileEntryData
Ncj:__ZN6il2cpp6icalls8mscorlib6System2IO6MonoIO5WriteEiP11Il2CppArrayiiPi
Kpg:_Mathf_InverseLerp_m4155825980
kHg:__Z92RuntimeInvoker_RuntimeObject_RuntimeObject_RuntimeObject_SByte_t1669577662_SByte_t1669577662PFvvEPK10MethodInfoPvPS4_
Zk:_emscripten_glBindRenderbuffer
F0g:_List_1_System_Collections_IList_Insert_m1011775503_gshared
Gsj:_GC_dirty_init
Pgj:__ZN6il2cpp2vm5Image33GetCachedMemoryMappedResourceFileEP24Il2CppReflectionAssembly
gjj:__ZN6il2cpp2vm5Field14GetValueObjectEP9FieldInfoP12Il2CppObject
PPc:__ZNK2UI6Canvas16GetTargetDisplayEv
AVg:__Z69RuntimeInvoker_Void_t1185182177_Int32_t2950945753_Vector2_t2156229523PFvvEPK10MethodInfoPvPS4_
Sbg:_TimeSpan_CompareTo_m3633415627_AdjustorThunk
fda:__ZN6Object17FindObjectsOfTypeEPKN5Unity4TypeER13dynamic_arrayIPS_Lj4EEb
k9b:__ZNSt3__26vectorINS_4pairIiiEE13stl_allocatorIS2_L18MemLabelIdentifier1ELi16EEE21__push_back_slow_pathIKS2_EEvRT_
RUe:_MaskableGraphic_OnTransformParentChanged_m329502413
Gdh:_Collection_1_Remove_m3611142372_gshared
SDb:__ZN13MonoBehaviour17RemoveFromManagerEv
rzg:_Vector3_get_Item_m668685504_AdjustorThunk
KSa:__ZN12ImageFilters14AddImageFilterERK11ImageFilter
Hnd:_MonoEventInfo_GetEventInfo_m873645389
fGe:_Context_NotifyDynamicSinks_m1841702879
yxi:_GUIUtility_get_pixelsPerPoint_m2369948084
znf:_WindowsIdentity_System_Runtime_Serialization_IDeserializationCallback_OnDeserialization_m3428853631
mW:__ZN13MemoryManagerC2Ev
EFa:__ZN12SkinMeshInfo10DeallocateEPS_
BRi:__ZNK15dense_hashtableINSt3__24pairIK10KeyWrapperIPKcEP11Il2CppClassEES5_N6il2cpp5utils11StringUtils12StringHasherIS4_EEN14dense_hash_mapIS5_S8_SE_NS5_14EqualsComparerINSB_13VmStringUtils21CaseSensitiveComparerEEENS0_9allocatorIS9_EEE9SelectKeyESJ_SL_E8min_sizeEjj
dYe:_ScrollRect_SetDirty_m214267968
nPa:__ZN20ArchiveStorageReader28AcquireAndPrefillUnusedBlockEjPNS_11CacheResultE
wzd:_Boolean_System_IConvertible_ToDateTime_m603510836
m5b:__Z12NHxRoughnessIA4_tEvP9Texture2DPT_iiii
P3e:_ASN1_get_Value_m1857007406
UHi:__ZL25UnresolvedVirtualCall_105P12Il2CppObjecthPK10MethodInfo
zda:__ZN18AsyncUploadManagerD2Ev
ikb:__ZN9Transform5ResetEv
gzf:_Decimal_op_Explicit_m1842265407
Avb:__Z22TransferField_NonArrayI24GenerateTypeTreeTransfer16Converter_StringEvRK23StaticTransferFieldInfoR31RuntimeSerializationCommandInfoRT0_
wMi:_CanvasRenderer_SetAlphaTexture_m2009567627
tAc:_UNITY_FT_CMap_New
Rje:_InternalEnumerator_1_get_Current_m4241643334_AdjustorThunk
Uie:_InternalEnumerator_1_MoveNext_m154749640_AdjustorThunk
zGb:__Z17MainLoopKeepalivePv
xXh:__ZL62Slider_t3903728902_CustomAttributesCacheGenerator_m_HandleRectP21CustomAttributesCache
ySi:__ZN15dense_hashtableI10KeyWrapperIPK17Il2CppGenericInstES4_N6il2cpp8metadata21Il2CppGenericInstHashEN14dense_hash_setIS4_S7_NS4_14EqualsComparerINS6_24Il2CppGenericInstCompareEEENSt3__29allocatorIS4_EEE8IdentityESB_SE_E12expand_arrayEjN21dense_hash_map_traits17integral_constantIbLb0EEE
fqe:_InternalEnumerator_1_get_Current_m1588647567_AdjustorThunk
Jyj:_printf_core
Nsh:__ZL51GCHandle_t3351438187_CustomAttributesCacheGeneratorP21CustomAttributesCache
FVb:__Z14CalcHullBoundsPK8Vector3fPKhhRK5PlaneRK10Matrix4x4fR10MinMaxAABB
fPe:_InputField_get_caretBlinkRate_m3620074524
xOb:__Z19SetupLODFadeKeywordR17ShaderPassContexti
vjf:_RSAPKCS1SignatureFormatter_CreateSignature_m3191980616
f$a:__ZN10builtintex16GetDefaultTexEnvE16TextureDimensionb
gFa:__ZL25CheckCopyTextureArgumentsRK7ApiGLESP11GLESTextureS3_
hqe:_InternalEnumerator_1__ctor_m362401472_AdjustorThunk
V0g:_List_1_AsReadOnly_m2400800347_gshared
nMj:_glDeleteShader__wrapper
Zub:__Z29Transfer_Blittable_ArrayFieldI24GenerateTypeTreeTransferyEvRT_R9ArrayInfoRK23StaticTransferFieldInfo
ihg:_ValueType_Equals_m1524437845
pKh:__ZL71RuntimePlatform_t4159857903_CustomAttributesCacheGenerator_OSXWebPlayerP21CustomAttributesCache
oJ:__ZN4FMOD7SystemI9playSoundE17FMOD_CHANNELINDEXPNS_5SoundEbPPNS_7ChannelE
iUg:__Z123RuntimeInvoker_RuntimeObject_Ray_t3785851493_RuntimeObject_Single_t1397266774_Int32_t2950945753_RuntimeObject_RuntimeObjectPFvvEPK10MethodInfoPvPS4_
IQd:_Int64_GetHashCode_m703091690
OEf:_CultureInfo_set_DateTimeFormat_m1843682751
Upi:_X509CrlEntry_get_RevocationDate_m606796547
Rwi:_Event_get_commandName_m4275147343
hx:__ZN27AnimationLayerMixerPlayable17LayerMixerProcessEP35AnimationPlayableEvaluationConstantP32AnimationPlayableEvaluationInputP33AnimationPlayableEvaluationOutputM17AnimationPlayableFvS1_S3_S5_EMS_FvS1_S3_S5_ESA_MS_FvS5_S1_S3_S5_ifE
nzf:_Decimal_op_Implicit_m4256234411
PH:__ZN12AudioManager23VirtualRedirectTransferER18StreamedBinaryReadILb0EE
NDg:__Z60RuntimeInvoker_RuntimeObject_RuntimeObject_Int16_t2552820387PFvvEPK10MethodInfoPvPS4_
hWd:_StreamReader__ctor_m3941437302
ckc:__Z57Register_UnityEngine_Transform_INTERNAL_get_localRotationv
iaf:_IPv6Address_get_Address_m1389170741
ufb:__ZN30RuntimeInitializeOnLoadManager23VirtualRedirectTransferER17RemapPPtrTransfer
VEj:dynCall_viif
wed:_AssemblyName_get_Flags_m1616840602
ls:__ZN7mecanim4hand8HandPoseC2Ev
sIh:__ZL86Material_t340375123_CustomAttributesCacheGenerator_Material_DisableKeyword_m1245091008P21CustomAttributesCache
_Wd:_StringReader_ReadLine_m2337102945
Fsb:__ZL26Transfer_SimpleNativeClassI17RemapPPtrTransfer8GradientLb0EEvRK29SerializationCommandArgumentsR31RuntimeSerializationCommandInfo
WHd:_SyncHashtable_Add_m3016107307
Uy:__ZN17AnimationPlayable26DisconnectNoTopologyChangeEPS_i
dAd:_Boolean_Equals_m2410333903_AdjustorThunk
i7g:_List_1_System_Collections_IList_Contains_m2131605266_gshared
svh:__ZL61ISurrogateSelector_t3040401154_CustomAttributesCacheGeneratorP21CustomAttributesCache
Q8g:_List_1_ToArray_m1990123684_gshared
UT:__ZN13UploadHandlerD2Ev
rDj:dynCall_viiiiiffi
zc:_emscripten_glBlendFuncSeparate
Ffh:_Collection_1_Add_m809543251_gshared
A_:__Z20scripting_string_newPKc
Dic:__Z43Material_CUSTOM_Internal_CreateWithMaterialP12Il2CppObjectS0_
_ui:_Parser_IsSingleline_m326238187
_Fd:_CollectionBase_get_Count_m1708965601
p3d:_HMAC__ctor_m97939284
j9h:_ReadOnlyCollection_1_System_Collections_IList_get_Item_m1005238747_gshared
iBh:__ZL49DBNull_t3725197148_CustomAttributesCacheGeneratorP21CustomAttributesCache
hhg:_ValueType_DefaultEquals_m2927252100
Qpc:__ZN9JSONWrite12AppendToNodeEPN5Unity9rapidjson12GenericValueINS1_4UTF8IcEE13JSONAllocatorEEPKcRS6_
W3e:_ASN1_ToString_m1340204511
Sdf:_X509Store_get_Certificates_m2149701265
TTf:_DefaultComparer_GetHashCode_m2865442331_gshared
DTh:__ZL144StandaloneInputModule_t2760469101_CustomAttributesCacheGenerator_StandaloneInputModule_t2760469101____allowActivationOnMobileDevice_PropertyInfoP21CustomAttributesCache
Z6f:_StringBuilder_set_Chars_m3548656617
PZi:__ZN6il2cpp2os4File17GetFileAttributesERKNSt3__212basic_stringIcNS2_11char_traitsIcEENS2_9allocatorIcEEEEPi
fXg:__Z59RuntimeInvoker_Int32_t2950945753_X509ChainStatus_t133602714PFvvEPK10MethodInfoPvPS4_
ZB:__ZNSt3__26__sortIRPFbPKN8Animator11AnimatorJobES4_EPS4_EEvT0_S9_T_
UG:__ZN17AudioCustomFilterD2Ev
tnc:__ZN11IMGUIModule26SetDeveloperConsoleVisibleEb
MXg:__Z56RuntimeInvoker_Void_t1185182177_MonoResource_t4103430009PFvvEPK10MethodInfoPvPS4_
pkb:__ZN9Transform16ResetReplacementEv
zqj:_GC_unpromote_black_lists
dph:__ZL64DebuggerBrowsableState_t747501856_CustomAttributesCacheGeneratorP21CustomAttributesCache
xDa:__ZN18GfxFramebufferGLES18ReleaseFramebufferEP17RenderSurfaceBaseP14GfxContextGLES
btc:__Z18Transfer_BlittableI8JSONReadLb1EiEvRK29SerializationCommandArgumentsR31RuntimeSerializationCommandInfo
rXd:_TextReader_Dispose_m4253712522
lV:__ZN19CloudServiceHandler34HandleSaveFileWebRequestPlayerLoopEv
NCh:__ZL82BigInteger_t2902905090_CustomAttributesCacheGenerator_BigInteger__ctor_m2474659844P21CustomAttributesCache
Gy:__ZN7mecanim21ValueArrayReverseCopyEPKNS_18ValueArrayConstantEPKNS_10ValueArrayES2_PS3_PKi
CG:__Z31GetParentSampleClipFromInstancePN11SoundHandle8InstanceE
tli:_InternalAsyncResult_get_BytesRead_m3975435112
M3b:__ZNK28RectTransformPropertyBinding13GetFloatValueERKN11UnityEngine9Animation10BoundCurveE
SXb:__ZN6Camera22StandaloneCustomRenderENS_10RenderFlagEP6ShaderRKN4core12basic_stringIcNS3_20StringStorageDefaultIcEEEEPNS_21PerformRenderFunctionE
nMf:_Array_InternalArray__IndexOf_TisKeyValuePair_2_t2401056908_m4118889689_gshared
Zeb:__ZNSt3__26vectorI4PPtrI6ObjectE13stl_allocatorIS3_L18MemLabelIdentifier52ELi16EEE6assignINS_11__wrap_iterIPS3_EEEENS_9enable_ifIXaasr21__is_forward_iteratorIT_EE5valuesr16is_constructibleIS3_NS_15iterator_traitsISD_E9referenceEEE5valueEvE4typeESD_SD_
a6h:_Collection_1_System_Collections_ICollection_get_IsSynchronized_m500240145_gshared
cEh:__ZL68X509CertificateCollection_t3399372417_CustomAttributesCacheGeneratorP21CustomAttributesCache
wxj:__ZN6il2cpp2os16ThreadLocalValue8GetValueEPPv
Vcf:_X509Certificate2_get_PublicKey_m370665820
Gxc:_cff_slot_init
eVi:__ZN6il2cpp2vm13MetadataCache14GetGenericInstEPKPK10Il2CppTypej
CP:__ZN13AudioListener17ReadExtensionNameEi
Lb:invoke_iiidii
hdh:_Collection_1_System_Collections_Generic_ICollectionU3CTU3E_get_IsReadOnly_m1419845799_gshared
hP:__ZN9AudioClip15InitializeClassEv
cp:setThrew
uKe:_SoapMethodAttribute_get_XmlNamespace_m4029617514
d5b:__ZL21BuildEmptyCubeTexturePKci11ColorRGBA3217TextureColorSpace
uFh:__ZL106AsyncOperation_t1445031843_CustomAttributesCacheGenerator_AsyncOperation_InvokeCompletionEvent_m1410305036P21CustomAttributesCache
kwg:_SelectionBaseAttribute__ctor_m2749097321
Uha:__ZN14SafeBinaryRead21TransferSTLStyleArrayINSt3__26vectorIN9ShaderLab20SerializedSubProgramENS1_9allocatorIS4_EEEEEEvRT_17TransferMetaFlags
MMf:_Array_InternalArray__IndexOf_TisX509ChainStatus_t133602714_m48896230_gshared
SNa:__ZN19dynamic_block_arrayI13FileEntryInfoLj32EE4growEj
ktc:__Z15Transfer_StringI8JSONReadLb1EEvRK29SerializationCommandArgumentsR31RuntimeSerializationCommandInfo
vei:_Comparison_1_BeginInvoke_m816899747_gshared
gAa:__ZN6prcoreL17RemapGenericFloatI17TexFormatRGBFloat15TexFormatRGHalfEEvPKNS_9InnerInfoE
Yth:__ZL63IContributeEnvoySink_t2817847987_CustomAttributesCacheGeneratorP21CustomAttributesCache
NCc:_sfnt_load_face
hKc:_UNITY_FT_Render_Glyph_Internal
Fdj:__ZNSt3__212basic_stringIDsNS_11char_traitsIDsEENS_9allocatorIDsEEE21__grow_by_and_replaceEjjjjjjPKDs
NAc:_UNITY_ft_service_list_lookup
ysb:__Z18Transfer_BlittableI17RemapPPtrTransferLb1E11ColorRGBA32EvRK29SerializationCommandArgumentsR31RuntimeSerializationCommandInfo
Smc:__ZN5IMGUI21SelectReceivingWindowER8GUIStateb
F3d:_HMAC_Initialize_m3157696427
XXa:__ZN4PPtrI5LightE8TransferI14SafeBinaryReadEEvRT_
Lzj:___strchrnul
l5g:_List_1_System_Collections_ICollection_CopyTo_m3643417403_gshared
NV:__ZN13BaseAllocator13TryDeallocateEPv
Dxb:__Z29Transfer_Blittable_ArrayFieldI19StreamedBinaryWriteILb0EEfEvRT_R9ArrayInfoRK23StaticTransferFieldInfo
dli:_ListPool_1_Release_m1363449253_gshared
Obf:_X509SubjectKeyIdentifierExtension__ctor_m2055934916
S0f:_Enumerator_Dispose_m2531396701_AdjustorThunk
omb:__ZN16MemoryFileSystem5WriteER13FileEntryDatayPvPy
FAi:_ChoiceScript_ChoiceOption03_m214234515
UTa:__ZNSt3__26vectorIN12FlareManager10FlareEntryENS_9allocatorIS2_EEE21__push_back_slow_pathIKS2_EEvRT_
Fyj:_sprintf
WLh:__ZL67NativeContainerAttribute_t2600515814_CustomAttributesCacheGeneratorP21CustomAttributesCache
Idc:__ZN9Scripting25CreateNullExceptionObjectE18ScriptingObjectPtr
Z5e:_PrivateKeyInfo_DecodeRSA_m2889346634
wH:__ZN13AudioListener17RemoveFromManagerEv
td:_glAttachShader
v6c:_ContentSizeFitter_SetLayoutHorizontal_m2833273874
eY:__ZNK6Camera19GetProjectionMatrixEv
PVh:__ZL70InputField_t3762917431_CustomAttributesCacheGenerator_m_SelectionColorP21CustomAttributesCache
HPe:_InputField_SetToCustomIfContentTypeIsNot_m2813459946
EAg:__Z49RuntimeInvoker_DateTime_t3738529785_RuntimeObjectPFvvEPK10MethodInfoPvPS4_
vKh:__ZL70RuntimePlatform_t4159857903_CustomAttributesCacheGenerator_FlashPlayerP21CustomAttributesCache
GGf:_Guid_GetHashCode_m3042133858_AdjustorThunk
$Z:__Z38PreallocateObjectFromPersistentManagerib
Hwi:_Event_t2956885303_marshal_pinvoke_cleanup
Unf:_SecurityException_get_FirstPermissionThatFailed_m3934559164
Ngf:_Interpreter_Backtrack_m2828876822
L2a:__ZNK9Texture2D20GetUnscaledTextureIDEv
Xqh:__ZL103TypeBuilder_t1073948154_CustomAttributesCacheGenerator_TypeBuilder_DefineDefaultConstructor_m2168449784P21CustomAttributesCache
S0d:_SByte_System_IConvertible_ToType_m4075253447
EKj:_glFenceSync__wrapper
FOi:__ZNK15dense_hashtableINSt3__24pairIK10KeyWrapperIPK22Il2CppGenericParameterEP11Il2CppClassEES6_N6il2cpp5utils11PointerHashIS4_EEN14dense_hash_mapIS6_S9_SE_NS6_14EqualsComparerINS0_8equal_toIS5_EEEENS0_9allocatorISA_EEE9SelectKeyESJ_SL_E8min_sizeEjj
pyg:_Transform_INTERNAL_get_worldToLocalMatrix_m2730237241
XQe:_InputField_IsValidChar_m1928072643
ZXg:__Z51RuntimeInvoker_Void_t1185182177_HitInfo_t3229609740PFvvEPK10MethodInfoPvPS4_
Q2a:__ZNK9Texture2D26CanReuploadDataToGfxDeviceEv
BCb:__ZN18StreamedBinaryReadILb0EE21TransferSTLStyleArrayI13dynamic_arrayI4AABBLj4EEEEvRT_17TransferMetaFlags
oxh:__ZL63CodeAccessPermission_t2681295399_CustomAttributesCacheGeneratorP21CustomAttributesCache
Vgb:__Z29ClearRepeatingLogMessageStatev
soe:_InternalEnumerator_1_get_Current_m3191242573_gshared
fBd:_Byte_Equals_m1161982810_AdjustorThunk
qXg:__Z53RuntimeInvoker_Int32_t2950945753_UICharInfo_t75501106PFvvEPK10MethodInfoPvPS4_
X3b:__ZN15QualitySettings12CleanupClassEv
zfe:_SslCipherSuite_ComputeMasterSecret_m3963626850
r8g:_List_1_GrowIfNeeded_m278824317_gshared
AJa:__ZN7ApiGLESD2Ev
$Qa:__ZN9Transform47ClearTransformHierarchyAndApplyToSerializedDataEv
zuc:__ZN8JSONRead21TransferSTLStyleArrayINSt3__26vectorI8MonoPPtr13stl_allocatorIS3_L18MemLabelIdentifier1ELi16EEEEEEvRT_17TransferMetaFlags
BRd:_IntPtr_op_Explicit_m536245531
jSa:__ZN6Camera23VirtualRedirectTransferER19StreamedBinaryWriteILb0EE
kFj:dynCall_fidi
V0i:__ZN15dense_hashtableINSt3__24pairIK10KeyWrapperINS1_IPK9FieldInfoP11Il2CppClassEEEjEES9_17ReflectionMapHashIS8_EN14dense_hash_mapIS9_jSD_NS9_14EqualsComparerINS0_8equal_toIS8_EEEENS0_9allocatorISB_EEE9SelectKeyESI_SK_E12resize_deltaEjj
n1g:_List_1_TrimExcess_m3433550210_gshared
dlh:__ZL63IntPtr_t_CustomAttributesCacheGenerator_IntPtr__ctor_m987082960P21CustomAttributesCache
$Ri:__ZNK15dense_hashtableINSt3__24pairIK10KeyWrapperIPK19Il2CppGenericMethodEPK26Il2CppGenericMethodIndicesEES6_N6il2cpp8metadata23Il2CppGenericMethodHashEN14dense_hash_mapIS6_SA_SE_NS6_14EqualsComparerINSD_26Il2CppGenericMethodCompareEEENS0_9allocatorISB_EEE9SelectKeyESI_SK_E8min_sizeEjj
Vth:__ZL58IContextProperty_t840037424_CustomAttributesCacheGeneratorP21CustomAttributesCache
Jxi:_GUILayoutEntry__ctor_m2229197035
rU:__ZN11UnityEngine15CloudWebService14RestDownloaderD2Ev
vhd:_EnumBuilder_get_Assembly_m1175292766
P_b:__Z29StdTemplateConversionFunctionIjhEbPvR14SafeBinaryRead
j4:__ZN15dense_hashtableINSt3__24pairIKN9ShaderLab7Program23ShaderKeywordSetAndHashEPKNS2_10SubProgramEEES4_NS3_24ShaderKeywordHashFunctorEN14dense_hash_mapIS4_S8_SA_NS0_8equal_toIS4_EE13stl_allocatorIS9_L18MemLabelIdentifier67ELi16EEE9SelectKeyESD_SG_E15insert_noresizeERKS9_
A2h:_Array_swap_TisCustomAttributeNamedArgument_t287865710_TisCustomAttributeNamedArgument_t287865710_m881919420_gshared
gZa:__ZN13RenderTexture12SetDimensionE16TextureDimension
z4e:_DSAManaged_add_KeyGenerated_m2286864968
je:_SDL_FreeRW
gSh:__ZL109ExecuteEvents_t3484638744_CustomAttributesCacheGenerator_ExecuteEvents_U3Cs_HandlerListPoolU3Em__0_m391641698P21CustomAttributesCache
xYg:__Z79RuntimeInvoker_Void_t1185182177_Int32_t2950945753_ParameterModifier_t1461694466PFvvEPK10MethodInfoPvPS4_
gRc:__Z34CanvasRenderer_Get_Custom_PropCullP12Il2CppObject
iN:__ZN20SoundChannelInstance8getDelayE14FMOD_DELAYTYPEPjS1_
Yuj:__ZNSt3__26__treeINS_12__value_typeIPvxEENS_19__map_value_compareIS2_S3_NS_4lessIS2_EELb1EEENS_9allocatorIS3_EEE12__find_equalIS2_EERPNS_16__tree_node_baseIS2_EESF_RKT_
A4:__ZNSt3__26vectorIN20GpuProgramParameters15StructParameterENS_9allocatorIS2_EEEC2ERKS5_
Whe:_ArrayReadOnlyList_1_Contains_m232667507_gshared
CJg:__Z77RuntimeInvoker_Boolean_t97287965_IntPtr_t_Int32_t2950945753_SByte_t1669577662PFvvEPK10MethodInfoPvPS4_
nsg:_PlayableHandle_GetPlayableType_m432385838_AdjustorThunk
YIc:__ZNSt3__26vectorIN20TextRenderingPrivate8FontImpl13CharacterInfoE13stl_allocatorIS3_L18MemLabelIdentifier1ELi16EEE8__appendEj
v:tempBigInt
wQf:_Array_InternalArray__Insert_TisKeyframe_t4206410242_m1558638568_gshared
zzh:__ZL77Convert_t2465617642_CustomAttributesCacheGenerator_Convert_ToByte_m3567528984P21CustomAttributesCache
re:_emscripten_glVertexAttrib1fv
Bia:__ZNSt3__26vectorIN9ShaderLab20SerializedSubProgram12UAVParameterENS_9allocatorIS3_EEE7reserveEj
mCj:__ZSt11__terminatePFvvE
OJ:__ZN12AudioManager14systemCallbackEP11FMOD_SYSTEM24FMOD_SYSTEM_CALLBACKTYPEPvS3_
Dfi:_Nullable_1_Equals_m4046255732_gshared
bbi:_ReadOnlyCollection_1_System_Collections_Generic_ICollectionU3CTU3E_Clear_m3451551308_gshared
g4c:_BaseMeshEffect_OnEnable_m3291426649
dkg:_ClassLibraryInitializer_Init_m988673678
vF:__ZN10SampleClip23VirtualRedirectTransferER24GenerateTypeTreeTransfer
sYa:__ZN16ReflectionProbes16UpdateSampleDataEv
IMh:__ZL90PlayerEditorConnectionEvents_t3411787513_CustomAttributesCacheGenerator_disconnectionEventP21CustomAttributesCache
WEf:_CultureInfo_GetCultureInfo_m56098747
a8a:__ZN14Texture2DArray5ResetEv
VUb:__Z20AddActiveLocalLightsR11CullResultsR27LocalLightCullingParametersPPK15SharedLightDataPK8Vector4fRK9IndexListPfRSA_R12ActiveLightsSG_P5RectTIfEP13TargetEyeMask
Goh:__ZL80Hashtable_t1853889766_CustomAttributesCacheGenerator_Hashtable__ctor_m1763145853P21CustomAttributesCache
oKd:_Convert_ToDecimal_m1284148187
vhh:_Collection_1__ctor_m3489157029_gshared
gIj:_emscripten_glRenderbufferStorage__wrapper
f$i:__ZNK6il2cpp2vm14TypeNameParser10NextWillBeEcb
hyc:_cf2_getNormalizedVector
Oe:_JS_Sound_Play
rUc:__Z26GetUnityConnectSettingsPtrv
_bi:_ReadOnlyCollection_1_System_Collections_IList_set_Item_m1538987737_gshared
gha:__ZN9ShaderLab16SerializedShader8TransferI14SafeBinaryReadEEvRT_
vLa:__ZN5Mutex7TryLockEv
vbd:_GridLayoutGroup_set_constraint_m3308895167
lOh:__ZL103AudioSource_t3935305588_CustomAttributesCacheGenerator_AudioSource_ReadExtensionPropertyValue_m72717540P21CustomAttributesCache
rIe:_ConstructionCallDictionary_SetMethodProperty_m3145285304
APd:_Int32_System_IConvertible_ToUInt32_m3557270157
xMg:__Z243RuntimeInvoker_Void_t1185182177_Int16_t2552820387_RuntimeObject_Int32_t2950945753_Int32_t2950945753_Int32_t2950945753_SByte_t1669577662_SByte_t1669577662_SByte_t1669577662_SByte_t1669577662_Int16_t2552820387_SByte_t1669577662_SByte_t1669577662PFvvEPK10MethodInfoPvPS4_
Pie:_InternalEnumerator_1_System_Collections_IEnumerator_get_Current_m1503522504_gshared
rB:__ZN7mecanim8skeleton13SkeletonAlignEPKNS0_8SkeletonERKN4math7_float4ES7_i
X5b:__ZN19ShaderPropertySheet16SetVectorIndexedEN9ShaderLab16FastPropertyNameEifRK8Vector4fNS_8SetFlagsE
Kcg:_Type_get_IsAbstract_m1120089130
xzg:_Vector3_get_normalized_m2454957984_AdjustorThunk
jq:__ZN14SafeBinaryRead21TransferSTLStyleArrayIN4core12basic_stringIcNS1_20StringStorageDefaultIcEEEEEEvRT_17TransferMetaFlags
xwi:_UriFormatException__ctor_m1115096473
sme:_InternalEnumerator_1_Dispose_m2818366163_AdjustorThunk
lKf:_Array_InternalArray__IEnumerable_GetEnumerator_TisSlot_t384495010_m460993382_gshared
gIh:__ZL114MonoBehaviour_t3962482529_CustomAttributesCacheGenerator_MonoBehaviour_StopCoroutineViaEnumerator_Auto_m3883784228P21CustomAttributesCache
d9i:__ZN15dense_hashtableINSt3__24pairIK10KeyWrapperINS1_IP11Il2CppClassjEEES4_EES6_N6il2cpp8metadata14ArrayClassHashEN14dense_hash_mapIS6_S4_SB_NS6_14EqualsComparerINSA_17ArrayClassCompareEEENS0_9allocatorIS8_EEE9SelectKeyESF_SH_E9copy_fromERKSK_j
LJi:__ZL25UnresolvedVirtualCall_204P12Il2CppObjectPK10MethodInfo
r$b:__Z29StdTemplateConversionFunctionIayEbPvR14SafeBinaryRead
TCi:_School_After_AfterDialogue_m2142005354
l9f:_WaitHandle__ctor_m1707080176
c0g:__Z55RuntimeInvoker_Boolean_t97287965_Nullable_1_t2603721331PFvvEPK10MethodInfoPvPS4_
szi:_GUIUtility_IsExitGUIException_m3644066650
UU:__ZN11UnityEngine15CloudWebService14DataDispatcher4StopEv
i6c:_ColorBlock_GetHashCode_m4264192507
pNd:_Int16_System_IConvertible_ToUInt64_m134975563
Dia:__ZNSt3__26vectorIN9ShaderLab20SerializedSubProgram12UAVParameterENS_9allocatorIS3_EEE8__appendEj
jsh:__ZL68TargetInvocationException_t4266643902_CustomAttributesCacheGeneratorP21CustomAttributesCache
A4i:__ZNK15dense_hashtableINSt3__24pairIK10KeyWrapperINS1_IPK9EventInfoP11Il2CppClassEEEjEES9_17ReflectionMapHashIS8_EN14dense_hash_mapIS9_jSD_NS9_14EqualsComparerINS0_8equal_toIS8_EEEENS0_9allocatorISB_EEE9SelectKeyESI_SK_E12test_deletedERK24dense_hashtable_iteratorISB_S9_SD_SM_SI_SK_E
Kmc:__ZN5IMGUI9GUIWindow5OnGUIER8GUIState
SFi:_AudioConfigurationChangeHandler_EndInvoke_m4175380841
Eof:_Single_System_IConvertible_ToDecimal_m325860800_AdjustorThunk
hPf:_Array_InternalArray__ICollection_CopyTo_TisSingle_t1397266774_m455540885_gshared
OMa:__ZN17ScriptingGCHandle7AcquireE18ScriptingObjectPtr25ScriptingGCHandleWeakness
QLg:__Z74RuntimeInvoker_RuntimeObject_RuntimeObject_Int64_t3736567304_RuntimeObjectPFvvEPK10MethodInfoPvPS4_
ZOc:__ZN2UI14CanvasRenderer14AttachToCanvasER8JobFencePNS_6CanvasENS0_15InstructionTypeE
nAe:_Enumerator__ctor_m1734342590_gshared
gEj:dynCall_iifiii
YNg:__Z85RuntimeInvoker_Int32_t2950945753_RuntimeObject_Int32U26_t1369213839_Int32_t2950945753PFvvEPK10MethodInfoPvPS4_
gya:__Z21HasAlphaTextureFormat13TextureFormat
TO:__ZN12AudioManager6UpdateEv
$xa:__ZN14ImageReference9BlitImageERKS_NS_8BlitModeE
Vs:__ZN8Animator12AddToManagerEv
QYd:_MissingFieldException__ctor_m3742452630
Jef:_X509Chain__ctor_m2674663382
cbi:_ReadOnlyCollection_1_System_Collections_Generic_IListU3CTU3E_Insert_m1121807192_gshared
MEb:__ZN23CachedSerializationDataD2Ev
SWb:__ZNK25CameraStackRenderingState31CalculateStereoCameraTargetTypeEv
UXa:__ZN14RenderSettings23VirtualRedirectTransferER14SafeBinaryRead
qre:_InternalEnumerator_1_get_Current_m114240259_gshared
U_h:__ZL69U3CCrossFadeU3Ec__Iterator0_t410743727_CustomAttributesCacheGeneratorP21CustomAttributesCache
vlj:__ZN6il2cpp2os10ThreadImpl15CurrentThreadIdEv
GQf:_Array_InternalArray__Insert_TisVector2_t2156229523_m2148694950_gshared
vVa:__ZN17GlobalGameManager8TransferI17RemapPPtrTransferEEvRT_
Wkf:_SymmetricAlgorithm_get_Key_m3241860519
$Re:_U3CMouseDragOutsideRectU3Ec__Iterator1_Reset_m2233410497
rPe:_InputField_set_customCaretColor_m720445789
AXa:__ZN16LevelGameManager8TransferI18StreamedBinaryReadILb0EEEEvRT_
HGc:_UNITY_tt_face_load_fpgm
VQa:__Z17IsObjectAvailablei
ccb:__ZN12InputManagerD0Ev
Fah:_Queue_1_Peek_m1713833142_gshared
dwh:__ZL64DSASignatureFormatter_t2007981259_CustomAttributesCacheGeneratorP21CustomAttributesCache
v9f:_ExecutionContext_Capture_m681135907
YSf:_Dictionary_2_System_Collections_IDictionary_Add_m4011968134_gshared
eBb:__Z18Transfer_BlittableI18StreamedBinaryReadILb0EELb1EtEvRK29SerializationCommandArgumentsR31RuntimeSerializationCommandInfo
fke:_InternalEnumerator_1_System_Collections_IEnumerator_get_Current_m2889979481_AdjustorThunk
gBj:_posix_memalign
Atg:_Rect_get_position_m2115952571
lJh:__ZL90SceneManager_t2787271929_CustomAttributesCacheGenerator_SceneManager_LoadScene_m1758133949P21CustomAttributesCache
q9h:_ReadOnlyCollection_1_get_Item_m4005849861_gshared
d_e:_Slider_get_direction_m3871593184
T3e:_ASN1_GetBytes_m3305539297
K8g:_List_1_Remove_m2092116835_gshared
cAh:__ZL77Convert_t2465617642_CustomAttributesCacheGenerator_Convert_ToSByte_m717245755P21CustomAttributesCache
Fte:_DefaultComparer__ctor_m2039558311_gshared
d_:__ZNK15MonoScriptCache7ReleaseEv
BPi:__ZN6il2cpp2vm5Class13HasReferencesEP11Il2CppClass
QCd:_CLSCompliantAttribute__ctor_m581760440
eBi:_EndingController__ctor_m1599631976
bg:_glBindTexture
wzj:_snprintf
GRd:_InvalidCastException__ctor_m2551002860
ySg:__Z50RuntimeInvoker_RuntimeObject_Resources_t1597885468PFvvEPK10MethodInfoPvPS4_
wJj:_emscripten_glVertexAttrib1fv__wrapper
hYg:__Z76RuntimeInvoker_Void_t1185182177_Int32_t2950945753_KeyValuePair_2_t2401056908PFvvEPK10MethodInfoPvPS4_
tib:__Z36scripting_liveness_calculation_begin17ScriptingClassPtriPFvPP12Il2CppObjectiPvES3_PFvvES7_
DFi:_AudioExtensionManager_RemoveExtensionFromManager_m442924172
WHj:_emscripten_glGetProgramInfoLog__wrapper
SD:__ZN25AnimatedPropertyEvaluator29BindCurveToScriptingObjectPtrERKN13AnimationClip10FloatCurveEj18ScriptingObjectPtrb
nxh:__ZL80AllowPartiallyTrustedCallersAttribute_t1828959166_CustomAttributesCacheGeneratorP21CustomAttributesCache
ETh:__ZL52InputMode_t3382566315_CustomAttributesCacheGeneratorP21CustomAttributesCache
a0:__ZN17PersistentManager23DestroyFromFileInternalEi
Plg:_Display__ctor_m501911701
M7h:_ReadOnlyCollection_1_System_Collections_Generic_IListU3CTU3E_Insert_m1020890112_gshared
f8c:_Dropdown_get_onValueChanged_m2462066659
t7c:_DefaultControls_SetDefaultTextValues_m1943359795
bQb:__Z19SetupMotionMatricesR6CameraR18RPDataMotionVector
gOi:__ZL7log2_64y
NC:__ZN26AnimatorControllerPlayable18PrepareForPlaybackERN7mecanim6memory9AllocatorE
jD:__ZN8Animator11AnimatorJob11AddPlayableEP17AnimationPlayablef
qbd:_GridLayoutGroup_get_cellSize_m2967185053
htf:_CurrentSystemTimeZone_GetUtcOffset_m340358963
Ini:_PKCS12_Decrypt_m1280162536
oke:_InternalEnumerator_1_get_Current_m3081223448_gshared
$wi:_Event_get_isMouse_m1058251071
CWa:__ZN10VertexDataC2ERKS_17ShaderChannelMask10MemLabelId
GFd:_CaseInsensitiveHashCodeProvider_AreEqual_m1790260777
xbh:_Collection_1_IndexOf_m3762683187_gshared
oBc:_otv_JSTF_validate
D4:__ZN22CreateGpuProgramOutputC2Ev
v6d:_BigInteger_op_LessThanOrEqual_m3925173639
_mg:_PersistentCallGroup_Initialize_m4253175514
vzd:_Boolean_System_IConvertible_ToChar_m4279513009_AdjustorThunk
FGd:_Hashtable__ctor_m1763145853
CIe:_LogicalCallContext__ctor_m1263247987
EOd:_NumberFormatter_ScaleOrder_m3813786990
S2f:_List_1_GetEnumerator_m239622569_gshared
DSg:__Z43RuntimeInvoker_VerticalWrapMode_t2936607737PFvvEPK10MethodInfoPvPS4_
_5e:_PrivateKeyInfo_DecodeDSA_m771724585
m2i:__ZNK15dense_hashtableINSt3__24pairIK10KeyWrapperINS1_IPK10MethodInfoP11Il2CppClassEEEjEES9_17ReflectionMapHashIS8_EN14dense_hash_mapIS9_jSD_NS9_14EqualsComparerINS0_8equal_toIS8_EEEENS0_9allocatorISB_EEE9SelectKeyESI_SK_E23find_position_with_hashERSA_j
HRh:__ZL53EventHandle_t600343995_CustomAttributesCacheGeneratorP21CustomAttributesCache
R6b:__ZN8GUILayer12CleanupClassEv
MEd:_SynchronizedArrayListWrapper_get_SyncRoot_m3862302789
B0g:_List_1_System_Collections_IEnumerable_GetEnumerator_m839737540_gshared
qfg:_UInt32_System_IConvertible_ToSByte_m1061556466
mFe:_WellKnownClientTypeEntry__ctor_m2471908952
APi:__ZN6il2cpp2vm5Class4InitEP11Il2CppClass
ga:invoke_vidi
u$a:__ZN8Material17MainThreadCleanupEv
NLe:_RemotingServices_CreateClientProxyForContextBound_m783705199
ETg:__Z30RuntimeInvoker_Axis_t809944411PFvvEPK10MethodInfoPvPS4_
dbc:__ZNK15GUIEventManager15GetEventAtIndexEi
oli:_InternalAsyncResult_get_ProceedAfterHandshake_m2508379800
oPc:__ZN2UI14CanvasRenderer17SyncDirtyElementsER8JobFence
aBb:__Z18Transfer_BlittableI18StreamedBinaryReadILb0EELb0ExEvRK29SerializationCommandArgumentsR31RuntimeSerializationCommandInfo
_Bd:_Convert_ToUInt16_m2952781888
ywe:_Enumerator_System_Collections_IEnumerator_get_Current_m3816090481_gshared
yoj:__ZN6il2cpp5utils11StringUtils15StringDuplicateEPKc
IVf:_DefaultComparer_Equals_m2480133610_gshared
U3:__ZNK9ShaderLab21ShaderRasterStateDesc16ToGfxRasterStateEPK19ShaderPropertySheetS3_R14GfxRasterState
r2h:_Array_Sort_TisVector3_t3722313464_m1915176437_gshared
Dxj:__ZN6il2cpp2os9EventImplC2Ebb
x3f:_List_1_System_Collections_IList_get_IsFixedSize_m3566150119_gshared
$q:__ZN4PPtrI13MonoBehaviourE8TransferI19StreamedBinaryWriteILb0EEEEvRT_
i4g:_List_1_get_Item_m2113769949_gshared
$Ta:__ZN12FlareManager12RemoveCameraER6Camera
fwg:_ScriptableObject_t2528358522_marshal_pinvoke
T4:__Z20IsMatrixBuiltinParamPKcPi
_4i:__ZN6il2cpp2gc19AppendOnlyGCHashMapINSt3__24pairIPK10MethodInfoP11Il2CppClassEEP11Il2CppArray17ReflectionMapHashIS9_ENS2_8equal_toIS9_EEEC2Ev
nmf:_String_memcpy4_m979367827
aof:_SecurityFrame_t1422462475_marshal_pinvoke
t2i:__ZN15dense_hashtableINSt3__24pairIK10KeyWrapperINS1_IPK10MethodInfoP11Il2CppClassEEEjEES9_17ReflectionMapHashIS8_EN14dense_hash_mapIS9_jSD_NS9_14EqualsComparerINS0_8equal_toIS8_EEEENS0_9allocatorISB_EEE9SelectKeyESI_SK_E16reset_thresholdsEv
z7f:_UnicodeEncoding_GetBytesInternal_m1902824297
E5b:__ZN8Renderer19PostInitializeClassEv
KLf:_Array_FindIndex_TisRuntimeObject_m2504082708_gshared
zpi:_X509Chain_FindCertificateRoot_m1937726457
Vle:_InternalEnumerator_1__ctor_m217498388_AdjustorThunk
Stj:__ZN6il2cpp6icalls8mscorlib6System8Delegate23CreateDelegate_internalEP20Il2CppReflectionTypeP12Il2CppObjectP22Il2CppReflectionMethodb
zxe:_Enumerator_System_Collections_IEnumerator_get_Current_m921113401_AdjustorThunk
XVb:__ZNK13RendererScene22GetStaticBoundingBoxesEv
eEb:__ZN18DelayedCallManager18CancelCallDelayed2E4PPtrI6ObjectEPF15CallObjectStatePS1_PvES7_
Npg:_Matrix4x4_GetHashCode_m4034747639
CKa:__ZN25ThreadsafeLinearAllocator10ReallocateEPvji
fob:__Z18Transfer_BlittableI14SafeBinaryReadLb1E11QuaternionfEvRK29SerializationCommandArgumentsR31RuntimeSerializationCommandInfo
Aga:__ZN18SpriteAtlasManagerD0Ev
GZf:_GenericEqualityComparer_1__ctor_m1058369027_gshared
HVg:__Z57RuntimeInvoker_Boolean_t97287965_KeyValuePair_2_t71524366PFvvEPK10MethodInfoPvPS4_
_9a:__ZN10Matrix4x4f8TransferI14SafeBinaryReadEEvRT_
z3i:__ZNK10KeyWrapperINSt3__24pairIPK12PropertyInfoP11Il2CppClassEEE14EqualsComparerINS0_8equal_toIS7_EEEclERKS8_SE_
R1d:_CryptographicUnexpectedOperationException__ctor_m2381988196
D5i:__ZN14dense_hash_mapI10KeyWrapperIPK22Il2CppGenericParameterEPK24MonoGenericParameterInfoN6il2cpp5utils11PointerHashIS2_EENS4_14EqualsComparerINSt3__28equal_toIS3_EEEENSD_9allocatorINSD_4pairIKS4_S7_EEEEE15set_deleted_keyERSJ_
HC:__ZN14AvatarPlayback8StopTimeEv
Tme:_InternalEnumerator_1_System_Collections_IEnumerator_get_Current_m4213507601_gshared
dba:__Z6AppendRKN4core12basic_stringIcNS_20StringStorageDefaultIcEEEEPKc
T_g:__Z74RuntimeInvoker_DictionaryEntry_t3123975638_RuntimeObject_SByte_t1669577662PFvvEPK10MethodInfoPvPS4_
sib:__ZL14OnWorldStoppedv
uKf:_Array_InternalArray__IEnumerable_GetEnumerator_TisCustomAttributeNamedArgument_t287865710_m523021714_gshared
G_h:__ZL110U3CDoFadeU3Ec__Iterator0_t82372153_CustomAttributesCacheGenerator_U3CDoFadeU3Ec__Iterator0_Dispose_m2107605998P21CustomAttributesCache
f6h:__ZN21InterfaceFuncInvoker1I19Vector4_t3319028937iE6InvokeEjP11Il2CppClassP12Il2CppObjecti
Rxb:__Z18Transfer_BlittableI18StreamedBinaryReadILb1EELb0E8Vector3fEvRK29SerializationCommandArgumentsR31RuntimeSerializationCommandInfo
zHd:_HashKeys_get_SyncRoot_m3757723936
lzi:_GUIUtility_RemoveCapture_m1294193818
aua:__ZN7ApiGLES18ClearBufferSubDataEjN2gl12BufferTargetEll
ifc:__Z37Camera_Get_Custom_PropAllCamerasCountv
v8a:__ZN14Texture2DArray8TransferI18StreamedBinaryReadILb0EEEEvRT_
D7g:_List_1_CopyTo_m2746988508_gshared
cUb:__Z18ApplyOcclusionMaskR19ProbeOcclusionCacheRK17LightProbeContextRK10RenderNodeb
iIc:_Split_Cubic
cb:invoke_fiiii
yRe:_InputField_OnSubmit_m3583210804
mDh:__ZL64CipherSuiteCollection_t1129639304_CustomAttributesCacheGeneratorP21CustomAttributesCache
YPh:__ZL72GUISkin_t1244372282_CustomAttributesCacheGenerator_m_horizontalScrollbarP21CustomAttributesCache
Kvi:_Uri_CheckHostName_m2213216182
tJj:_emscripten_glBindRenderbuffer__wrapper
W3h:_Mesh_SetUvsImpl_TisVector2_t2156229523_m3009194955_gshared
ghg:_ValueType_InternalEquals_m1384040357
t2h:_Array_Sort_TisVector4_t3319028937_TisVector4_t3319028937_m4254533673_gshared
ere:_InternalEnumerator_1_System_Collections_IEnumerator_Reset_m729791527_AdjustorThunk
RDd:_ArrayListWrapper_Contains_m2641184447
WHc:_ft_black_render
ZIg:__Z177RuntimeInvoker_Int32_t2950945753_RuntimeObject_Int32_t2950945753_Int32_t2950945753_RuntimeObject_Int32_t2950945753_EncoderFallbackBufferU26_t2343550713_CharU5BU5DU26_t3299466565PFvvEPK10MethodInfoPvPS4_
qFj:dynCall_viiifi
KCa:__ZN18GfxFramebufferGLES20ActiveContextChangedEPP17RenderSurfaceBaseS2_
$Cd:_ArrayList_get_IsFixedSize_m24366329
BCa:__Z19PluginsRenderMarkeri
fte:_InternalEnumerator_1__ctor_m2307827786_AdjustorThunk
zE:__ZN10HumanTrait18InitializeBoneNameEv
Kia:__ZNSt3__26vectorIN9ShaderLab20SerializedSubProgram15StructParameterENS_9allocatorIS3_EEE6assignINS_11__wrap_iterIPS3_EEEENS_9enable_ifIXaasr21__is_forward_iteratorIT_EE5valuesr16is_constructibleIS3_NS_15iterator_traitsISC_E9referenceEEE5valueEvE4typeESC_SC_
$7a:__ZN14Texture2DArray21AwakeFromLoadThreadedEv
aCb:__Z29Transfer_Blittable_ArrayFieldI18StreamedBinaryReadILb0EEyEvRT_R9ArrayInfoRK23StaticTransferFieldInfo
vxg:_Touch_get_position_m3109777936_AdjustorThunk
Ugj:__ZNSt3__214__split_bufferIN6il2cpp2vm5Image20EmbeddedResourceDataERNS_9allocatorIS4_EEEC2EjjS7_
K4c:_CanvasScaler_set_screenMatchMode_m2975492035
aH:__ZN12AudioManager17RemoveAudioSourceEP11AudioSource
PBi:_U3CCrossFadeOutU3Ec__Iterator0_System_Collections_IEnumerator_get_Current_m1364442494
Tdf:_X509Certificate2Collection_Add_m3151757943
Smh:__ZL83RuntimeArray_CustomAttributesCacheGenerator_RuntimeArray____LongLength_PropertyInfoP21CustomAttributesCache
bve:_Comparer_1__cctor_m951016718_gshared
KFd:_CaseInsensitiveHashCodeProvider_get_DefaultInvariant_m4264275163
BBh:__ZL67IndexOutOfRangeException_t1578797820_CustomAttributesCacheGeneratorP21CustomAttributesCache
pJg:__Z195RuntimeInvoker_Int32_t2950945753_RuntimeObject_Int32_t2950945753_Int32_t2950945753_Int32_t2950945753_RuntimeObject_DecoderFallbackBufferU26_t3866396827_ByteU5BU5DU26_t4057885439_SByte_t1669577662PFvvEPK10MethodInfoPvPS4_
EQ:__ZN5physx14PxLightCpuTask12addReferenceEv
kWa:__ZNK15InstancingProps35FillInstanceBufferDispatchConstantsIN10Instancing14RenderLoopArgsEEEvPPvjjRK19ShaderPropertySheetRKT_
qWg:__Z86RuntimeInvoker_Int32_t2950945753_Color32_t2600501292_Color32_t2600501292_RuntimeObjectPFvvEPK10MethodInfoPvPS4_
Z4a:__ZN21EnlightenSceneMapping8TransferI19StreamedBinaryWriteILb0EEEEvRT_
Hij:__ZN6il2cpp2gc16GarbageCollector19InitializeFinalizerEv
Iy:__ZN7mecanim8skeleton18CreateSkeletonMaskEjPKNS0_19SkeletonMaskElementERNS_6memory9AllocatorE
Rci:_ReadOnlyCollection_1_System_Collections_Generic_ICollectionU3CTU3E_get_IsReadOnly_m2508509261_gshared
pmc:__ZN10GUIManager10DoGUIEventER10InputEventb
Ztb:__Z35Transfer_Blittable_FixedBufferFieldI24GenerateTypeTreeTransferxEvRK29SerializationCommandArgumentsR31RuntimeSerializationCommandInfo
cCc:_otv_LangSys_validate
Dug:_RectOffset_get_right_m2294081512
VQf:_Array_InternalArray__set_Item_TisLink_t544317964_m1234244240_gshared
NGc:_UNITY_TT_Init_Glyph_Loading
cPb:__Z20CalculateSqrDistanceRK8Vector3fRK4AABB
l8c:_OptionData_get_text_m2997376818
rOe:_SerializationInfo_GetBoolean_m1756153320
zL:__Z32AudioMixerDuckingProcessCallbackP21UnityAudioEffectStatePfS1_jii
wXe:_U3CClickRepeatU3Ec__Iterator0_System_Collections_IEnumerator_get_Current_m543328413
qqg:_Mesh_get_uv2_m3615020997
D7h:_ReadOnlyCollection_1_Contains_m2979956790_gshared
I4b:__ZN26CustomRenderTextureManagerD2Ev
IWf:_EqualityComparer_1_System_Collections_IEqualityComparer_Equals_m4172006498_gshared
UH:__ZN12AudioManager8TransferI24GenerateTypeTreeTransferEEvRT_
M0h:_Array_qsort_TisOrderBlock_t1585977831_m3322202512_gshared
zpg:_Mathf_Round_m4098141538
exa:__Z25GetBytesFromTextureFormat13TextureFormat
R8a:__ZN9Texture3D19UnloadFromGfxDeviceEb
icj:__ZN6il2cpp6icalls8mscorlib6System9Threading6Thread20Thread_free_internalEP12Il2CppThreadi
tDj:dynCall_iiffi
gsb:__Z18Transfer_BlittableI17RemapPPtrTransferLb0EsEvRK29SerializationCommandArgumentsR31RuntimeSerializationCommandInfo
och:_Collection_1_get_Item_m4103760396_gshared
M8e:__KeysEnumerator_get_Current_m2996478063
Kdd:_AmbiguousMatchException__ctor_m2012725345
LD:__ZN16MecanimAnimation25RegisterIAnimationBindingEPKN5Unity4TypeEiP17IAnimationBinding
S$:__Z32scripting_class_get_assemblyname17ScriptingClassPtr
nTc:__ZN11UnityEngine15PlatformWrapper15GetVRDeviceNameEv
rZh:__ZL109LayoutUtility_t2745813735_CustomAttributesCacheGenerator_LayoutUtility_U3CGetFlexibleWidthU3Em__3_m1091238571P21CustomAttributesCache
kSg:__Z99RuntimeInvoker_Boolean_t97287965_Int32_t2950945753_PointerEventDataU26_t867828220_SByte_t1669577662PFvvEPK10MethodInfoPvPS4_
zle:_InternalEnumerator_1_get_Current_m2128158355_AdjustorThunk
EIa:__ZN9GfxDevice21RegisterNativeTextureE9TextureIDi16TextureDimension
bad:_GraphicRegistry__ctor_m1851575309
VXg:__Z52RuntimeInvoker_Void_t1185182177_Keyframe_t4206410242PFvvEPK10MethodInfoPvPS4_
yCh:__ZL53TypeFilter_t2356120900_CustomAttributesCacheGeneratorP21CustomAttributesCache
gvj:__ZN6il2cpp6icalls8mscorlib6System10Reflection4Emit11TypeBuilder20create_generic_classEP27Il2CppReflectionTypeBuilder
Jjf:_SHA1Internal_FillBuff_m3615718415
xJf:_PlayableHandle_IsPlayableOfType_TisAnimationLayerMixerPlayable_t3631223897_m201603007_gshared
Ayh:__ZL50Monitor_t2197244473_CustomAttributesCacheGeneratorP21CustomAttributesCache
qYi:__ZNSt3__26vectorIPK10MethodInfoNS_9allocatorIS3_EEE26__swap_out_circular_bufferERNS_14__split_bufferIS3_RS5_EE
I6d:_PrimalityTest_EndInvoke_m1035389364
jQ:__Z60Register_UnityEngine_AudioListener_GetNumExtensionPropertiesv
Wi:_emscripten_glUniformMatrix4fv
s9i:__ZN15dense_hashtableINSt3__24pairIK10KeyWrapperINS1_IP11Il2CppClassjEEES4_EES6_N6il2cpp8metadata14ArrayClassHashEN14dense_hash_mapIS6_S4_SB_NS6_14EqualsComparerINSA_17ArrayClassCompareEEENS0_9allocatorIS8_EEE9SelectKeyESF_SH_E13set_empty_keyERKS8_
_ib:__ZN12ScriptMapperD2Ev
tAe:_Enumerator_Dispose_m3040896940_AdjustorThunk
gNj:b100
tqg:_Mesh_get_colors32_m1253190811
hrj:_GC_stopped_mark
Yhg:_AnimationCurve_Finalize_m2397002729
C$e:_Text_OnEnable_m616205807
t0g:__Z50RuntimeInvoker_RuntimeObject_ColorTween_t809614380PFvvEPK10MethodInfoPvPS4_
Nse:_InternalEnumerator_1__ctor_m945079686_AdjustorThunk
aOe:_SerializationCallbacks__cctor_m1674315180
TBg:__Z194RuntimeInvoker_Void_t1185182177_ByteU2AU26_t57153304_ByteU2AU26_t57153304_DoubleU2AU26_t3650786047_UInt16U2AU26_t531067350_UInt16U2AU26_t531067350_UInt16U2AU26_t531067350_UInt16U2AU26_t531067350PFvvEPK10MethodInfoPvPS4_
Oja:__Z32TransferEnumWithNameForceIntSizeI14SafeBinaryRead7FogModeEvRT_RT0_PKc17TransferMetaFlags
yjc:__Z52Register_UnityEngine_RenderTexture_Internal_GetWidthv
bsj:_GC_check_leaked
Kla:__ZN9ShaderLab20SerializedSubProgram16TextureParameter8TransferI19StreamedBinaryWriteILb0EEEEvRT_
fKa:__ZNK7Hash12812PackToUInt32Ev
SEd:_SynchronizedArrayListWrapper_IndexOf_m3642674350
F1:__ZNSt3__227__insertion_sort_incompleteIRNS_6__lessI14ObjectLoadDataS2_EEPS2_EEbT0_S6_T_
aV:__ZN11UnityEngine15CloudWebService16SessionContainer8AddEventEPNS0_14CloudEventInfoE
tHa:__Z4TrimRKN4core12basic_stringIcNS_20StringStorageDefaultIcEEEES5_
sai:_ReadOnlyCollection_1_CopyTo_m209634623_gshared
n3h:_Dictionary_2_Do_ICollectionCopyTo_TisKeyValuePair_2_t3842366416_m1399105608_gshared
TRh:__ZL77ExecuteEvents_t3484638744_CustomAttributesCacheGenerator_U3CU3Ef__mgU24cache2P21CustomAttributesCache
ddf:_X509Certificate2_Import_m4026562329
CKj:_glGetStringi__wrapper
V6a:__ZN10VertexData8TransferI14SafeBinaryReadEEvRT_
iJ:__ZN4FMOD8ChannelI8setDelayE14FMOD_DELAYTYPEjj
Xsj:_GC_malloc_atomic
Hsd:_ActivatedClientTypeEntry_ToString_m2494181680
F_f:_HashSet_1_GetEnumerator_m3346268098_gshared
Fvj:__ZN6il2cpp5utils6Memory13AlignedMallocEjj
Isg:_PropertyName_GetHashCode_m3570549176_AdjustorThunk
ZKh:__ZL55PropertyName_t3749835189_CustomAttributesCacheGeneratorP21CustomAttributesCache
ERe:_Selectable_get_animator_m2899312855
VY:__ZL20SortItemByInstanceIDRKN18AwakeFromLoadQueue4ItemES2_
dzg:_Vector2_op_Multiply_m2347887432
r9c:_FontData_get_maxSize_m195374730
c9e:_TypeConverterAttribute__ctor_m1774069684
Ty:__ZNK34AnimationStateMachineMixerPlayable26GetInterruptedPosePlayableEv
eWc:__ZN20UnityConnectSettings8TransferI24GenerateTypeTreeTransferEEvRT_
UA:__ZN34BlobWriteTransferSTLStyleArrayImplI22OffsetPtrArrayTransferIbEEclERS1_17TransferMetaFlagsR9BlobWrite
fud:_Byte_ToString_m4063101981
RZh:__ZL64ChoiceScript_t1024362160_CustomAttributesCacheGenerator_choice01P21CustomAttributesCache
ZZd:_MonoType_GetConstructors_m2574682189
_vg:_SceneManager_LoadSceneAsyncNameIndexInternal_m4031498323
vnj:__ZNK15dense_hashtableINSt3__24pairIK10KeyWrapperIPK19Il2CppGenericMethodEP10MethodInfoEES6_N6il2cpp8metadata23Il2CppGenericMethodHashEN14dense_hash_mapIS6_S9_SD_NS6_14EqualsComparerINSC_26Il2CppGenericMethodCompareEEENS0_9allocatorISA_EEE9SelectKeyESH_SJ_E10test_emptyERK30dense_hashtable_const_iteratorISA_S6_SD_SL_SH_SJ_E
Rth:__ZL59SinkProviderData_t4151372974_CustomAttributesCacheGeneratorP21CustomAttributesCache
O9e:_ServicePointManager_FindServicePoint_m4119451290
Nte:__ZN21InterfaceFuncInvoker1Ii22OrderBlock_t1585977831E6InvokeEjP11Il2CppClassP12Il2CppObjectS0_
Jca:__ZL31InitializeRendererUpdateManagerPv
mgd:_ParameterInfo__ctor_m2779026345
yPe:_InputField_set_onValueChange_m1251390545
B9c:_FontData_get_verticalOverflow_m4132840071
aQc:__ZN2UI13CanvasManager14GetRenderOrderEPKNS_6CanvasE
r$d:_NumberFormatter_get_IsZeroInteger_m2263284741
rP:__ZN13AudioListener12CleanupClassEv
cda:__Z13GetIEnlightenv
twg:_HitInfo_t3229609740_marshal_pinvoke
Vli:_X509Certificate_PEM_m2020851166
s3e:_BigInteger_op_GreaterThanOrEqual_m700865613
TPf:_Array_InternalArray__Insert_TisDateTime_t3738529785_m2308632330_gshared
Gif:_RNGCryptoServiceProvider_RngGetBytes_m1695806698
Xde:_TlsServerCertificateRequest_ProcessAsTls1_m3214041063
yCc:_compare_uni_maps
AQg:__Z72RuntimeInvoker_Boolean_t97287965_Vector2_t2156229523_Vector2_t2156229523PFvvEPK10MethodInfoPvPS4_
_Tc:__ZN11UnityEngine15PlatformWrapper27GetGraphicsCapsSupportFlagsEv
tNc:__ZNSt3__218__insertion_sort_3IRPFbPN2UI6CanvasES3_EPS3_EEvT0_S8_T_
Axb:__ZN12NativeBufferI16Converter_StringE15SetupForWritingER9ArrayInfo
Tfa:__ZN13RuntimeStaticI18AssetBundleManagerLb1EE16StaticInitializeEPv
ZGj:___cxa_end_catch__wrapper
ZNg:__Z121RuntimeInvoker_Int32_t2950945753_RuntimeObject_Int32U26_t1369213839_Int32_t2950945753_Int32_t2950945753_Int32_t2950945753PFvvEPK10MethodInfoPvPS4_
GCd:_Char_ToString_m278452217
S9d:_CipherSuite_get_DecryptionCipher_m2839827488
fBg:__Z32RuntimeInvoker_Boolean_t97287965PFvvEPK10MethodInfoPvPS4_
PQb:__ZNK4PPtrI5LightEcvPS0_Ev
q6d:_BigInteger_op_RightShift_m460065452
PEb:__ZN13MonoBehaviour22DoScriptRebuildWarningEv
kfc:__Z38Camera_CUSTOM_INTERNAL_CALL_RaycastTryP12Il2CppObjectRK3Rayfi
Nki:_ListPool_1_U3Cs_ListPoolU3Em__0_m2790550420_gshared
vMc:__Z38TextGenerator_Get_Custom_PropLineCountP12Il2CppObject
Bli:_InternalAsyncResult_SetComplete_m963842420
U5f:_Encoding_GetEncoding_m2801244948
rnc:__ZN11IMGUIModule25GetGUIStyleScriptingClassEv
aFc:_tt_get_interface
Nge:_SslStreamBase_EndRead_m495357226
Vbj:__ZN6il2cpp5utils9PathUtils7CombineIcEENSt3__212basic_stringIT_NS3_11char_traitsIS5_EENS3_9allocatorIS5_EEEERKSA_SC_
$sc:__ZN9JSONWrite8TransferI13dynamic_arrayIiLj4EEEEvRT_PKc17TransferMetaFlags
lgh:_Collection_1_System_Collections_IList_get_IsFixedSize_m214626114_gshared
ILg:__Z64RuntimeInvoker_RuntimeObject_SByte_t1669577662_SByte_t1669577662PFvvEPK10MethodInfoPvPS4_
YG:__ZL16FMOD_ErrorString11FMOD_RESULT_363
R8b:__ZN13PlayableGraph21InvalidateMultithreadEv
t0f:_Enumerator_System_Collections_IEnumerator_get_Current_m713684915_AdjustorThunk
eZf:_GenericComparer_1_Compare_m459680062_gshared
Rhd:_EnumBuilder_GetConstructorImpl_m3068576149
D_:__Z18ConvertUTF16toUTF8PPKtS0_PPhS2_15ConversionFlags
Qmj:__ZN6il2cpp2os20PathErrnoToErrorCodeERKNSt3__212basic_stringIcNS1_11char_traitsIcEENS1_9allocatorIcEEEEi
FVh:__ZL68InputField_t3762917431_CustomAttributesCacheGenerator_m_KeyboardTypeP21CustomAttributesCache
Nkf:_SymmetricAlgorithm_System_IDisposable_Dispose_m3402297829
VNi:__ZL16my_g_bit_nth_msfj
TBh:__ZL65NonSerializedAttribute_t2945079482_CustomAttributesCacheGeneratorP21CustomAttributesCache
H9i:__ZN15dense_hashtableINSt3__24pairIK10KeyWrapperIP11Il2CppClassES4_EES5_N6il2cpp8metadata16SZArrayClassHashEN14dense_hash_mapIS5_S4_SA_NS5_14EqualsComparerINS9_19SZArrayClassCompareEEENS0_9allocatorIS7_EEE9SelectKeyESE_SG_E12expand_arrayEjN21dense_hash_map_traits17integral_constantIbLb0EEE
NUf:_DefaultComparer_GetHashCode_m3369508712_gshared
aah:_Enumerator_MoveNext_m3662315381_AdjustorThunk
Fde:_TlsClientFinished_ProcessAsTls1_m2429863130
Esd:_ActivatedClientTypeEntry_get_ApplicationUrl_m2894992111
oNb:__Z23SetupStereoFlareElementP11FlareVertexRK8Vector2fS3_S3_RK11ColorRGBA32RK10Matrix4x4fRK8Vector3fb
OPi:__ZN6il2cpp2vm5Class15GetInstanceSizeEPK11Il2CppClass
fhg:_ValueType__ctor_m2036258423
sa:invoke_iiiifiiii
EPe:_InputField_EnforceContentType_m2436948794
ygh:__ZN23InterfaceActionInvoker2Ii20UICharInfo_t75501106E6InvokeEjP11Il2CppClassP12Il2CppObjectiS0_
o9i:__ZNK15dense_hashtableINSt3__24pairIK10KeyWrapperINS1_IP11Il2CppClassjEEES4_EES6_N6il2cpp8metadata14ArrayClassHashEN14dense_hash_mapIS6_S4_SB_NS6_14EqualsComparerINSA_17ArrayClassCompareEEENS0_9allocatorIS8_EEE9SelectKeyESF_SH_E12test_deletedERK30dense_hashtable_const_iteratorIS8_S6_SB_SJ_SF_SH_E
lrf:_String_Join_m2050845953
vye:_ShimEnumerator_MoveNext_m2406150314_gshared
DDa:__ZL19BlitFramebufferImplRN4gles23BlitFramebufferDrawQuadER9GfxDevice9TextureIDRK8Vector4f
Krb:__Z18Transfer_BlittableI17RemapPPtrTransferLb0EhEvRK29SerializationCommandArgumentsR31RuntimeSerializationCommandInfo
w1i:__ZN15dense_hashtableINSt3__24pairIK10KeyWrapperIPK10Il2CppTypeEjEES6_N6il2cpp8metadata14Il2CppTypeHashEN14dense_hash_mapIS6_jSB_NS6_14EqualsComparerINSA_26Il2CppTypeEqualityComparerEEENS0_9allocatorIS8_EEE9SelectKeyESF_SH_E4findERS7_
dEj:dynCall_viiiiiiiiiiiiii
rGc:_UNITY_FT_List_Add
g5b:__ZN14Texture2DArray11InitTextureEiii13TextureFormatb
Umi:_X509Extension__ctor_m1474351312
Uxh:__ZL104Encoding_t1523322056_CustomAttributesCacheGenerator_Encoding_t1523322056____DecoderFallback_PropertyInfoP21CustomAttributesCache
Ghi:_InvokableCall_1_Invoke_m1524307439_gshared
y1a:__ZN12CubemapArray21AwakeFromLoadThreadedEv
pSd:_Directory_CreateDirectoriesInternal_m3735342319
RTh:__ZL108U3CStartU3Ec__Iterator0_t1249263001_CustomAttributesCacheGenerator_U3CStartU3Ec__Iterator0__ctor_m1316384627P21CustomAttributesCache
Z2f:_List_1_RemoveAll_m517055598_gshared
OTe:_LayoutUtility_GetLayoutProperty_m3731360667
s6i:__ZN15dense_hashtableINSt3__24pairIK10KeyWrapperINS1_IPK11Il2CppImageP11Il2CppClassEEEjEES9_17ReflectionMapHashIS8_EN14dense_hash_mapIS9_jSD_NS9_14EqualsComparerINS0_8equal_toIS8_EEEENS0_9allocatorISB_EEE9SelectKeyESI_SK_E14squash_deletedEv
Lkf:_SHAConstants__cctor_m1699027474
Rnd:_MonoEventInfo_t346866618_marshal_pinvoke_back
XX:__ZNK6Camera26GetStereoSingleCullEnabledEv
d3f:_List_1_TrimExcess_m4121641494_gshared
Tzh:__ZL78Convert_t2465617642_CustomAttributesCacheGenerator_Convert_ToInt16_m1733792763P21CustomAttributesCache
Sfb:__Z14resize_trimmedINSt3__26vectorIN4core12basic_stringIcNS2_20StringStorageDefaultIcEEEE13stl_allocatorIS6_L18MemLabelIdentifier13ELi16EEEEEvRT_j
Pob:__Z18Transfer_BlittableI14SafeBinaryReadLb0EaEvRK29SerializationCommandArgumentsR31RuntimeSerializationCommandInfo
KCd:_CharEnumerator_System_Collections_IEnumerator_get_Current_m1328529384
jGj:_emscripten_glFrustum__wrapper
eNi:_AnimationLayerMixerPlayable__ctor_m860721801
oBg:__Z98RuntimeInvoker_Boolean_t97287965_RuntimeObject_Int32_t2950945753_RuntimeObject_Int64U26_t200113976PFvvEPK10MethodInfoPvPS4_
XGc:_UNITY_FT_List_Iterate
qVa:__ZN17GlobalGameManager8TransferI24GenerateTypeTreeTransferEEvRT_
dCd:_Char_System_IConvertible_ToUInt64_m3536560782
ZVf:_EqualityComparer_1__cctor_m3452395357_gshared
aIc:_Render_Single_Pass
VLb:__Z20SyncFenceCullResultsR11CullResults
fGa:__ZN15TextureTFMethod20IsBoneCountSupportedEi
sBf:_Double_ToString_m3828879243_AdjustorThunk
itb:__Z22TransferField_NonArrayI17RemapPPtrTransfer27Converter_SimpleNativeClassI8GUIStyleEEvRK23StaticTransferFieldInfoR31RuntimeSerializationCommandInfoRT0_
xXd:_TextReader_Synchronized_m3004980758
R0b:__ZNK17AnimationCurveTplIfE20EvaluateWithoutCacheEfRf
tQg:__Z67RuntimeInvoker_Boolean_t97287965_Rect_t2360479859_SByte_t1669577662PFvvEPK10MethodInfoPvPS4_
kYa:__ZN19ShaderPropertySheet10SetTextureERK23FastTexturePropertyNameP7Texture
kfd:_CustomAttributeData__ctor_m2966233049
k5c:_CanvasUpdateRegistry_PerformUpdate_m1793997159
Vce:_Context_set_ClientWriteIV_m3405909624
Gac:__ZN4Mesh10SetNormalsEPK8Vector3fj
hAi:_AesManaged_CreateDecryptor_m692040246
poj:__ZNSt3__212basic_stringIDsNS_11char_traitsIDsEENS_9allocatorIDsEEE9__grow_byEjjjjjj
JKi:_TextGenerationSettings_t1351628751_marshal_pinvoke_back
ns:__ZN17AnimationCurveTplIfE8TransferI14SafeBinaryReadEEvRT_
fDe:_Dictionary_2_get_Count_m2449135560_gshared
$Qf:_Array_InternalArray__set_Item_TisInt16_t2552820387_m2544074754_gshared
twd:_ArithmeticException__ctor_m3551809662
QSd:_MonoIO_ExistsDirectory_m2182482658
s9g:__ZN21InterfaceFuncInvoker0I19Vector4_t3319028937E6InvokeEjP11Il2CppClassP12Il2CppObject
wZg:__Z72RuntimeInvoker_CustomAttributeNamedArgument_t287865710_Int32_t2950945753PFvvEPK10MethodInfoPvPS4_
z_b:__Z29StdTemplateConversionFunctionIybEbPvR14SafeBinaryRead
u5a:__ZNSt3__26vectorIN15QualitySettings14QualitySettingENS_9allocatorIS2_EEE6assignIPS2_EENS_9enable_ifIXaasr21__is_forward_iteratorIT_EE5valuesr16is_constructibleIS2_NS_15iterator_traitsIS9_E9referenceEEE5valueEvE4typeES9_S9_
w2:__ZNK5Unity9Component10GetEnabledEv
OIi:__ZL25UnresolvedVirtualCall_153P12Il2CppObject40CustomAttributeTypedArgument_t2723150157S1_PK10MethodInfo
PXe:_ScrollRect_get_scrollSensitivity_m2832710591
f:HEAPU32
X2f:_List_1_CheckCollection_m1671972112_gshared
R7i:_il2cpp_class_get_image
ebe:_CipherSuiteFactory_GetSsl3SupportedCiphers_m3757358569
L7f:_UnicodeEncoding_GetPreamble_m3002287178
i1:__Z16AsyncReadRequestP16AsyncReadCommand
aPi:__ZNK15dense_hashtableINSt3__24pairIK10KeyWrapperIPK22Il2CppGenericParameterEP11Il2CppClassEES6_N6il2cpp5utils11PointerHashIS4_EEN14dense_hash_mapIS6_S9_SE_NS6_14EqualsComparerINS0_8equal_toIS5_EEEENS0_9allocatorISA_EEE9SelectKeyESJ_SL_E12test_deletedEj
gFi:_AudioSource_get_spatialize_m3609701298
YPg:__Z52RuntimeInvoker_Color_t2555686324_Color32_t2600501292PFvvEPK10MethodInfoPvPS4_
hna:__ZN20GpuProgramParameters14AddVectorParamEPKcii15ShaderParamTypeiiiP16PropertyNamesSet
VXc:__ZNK12HeaderHelper3GetERKN4core12basic_stringIcNS0_20StringStorageDefaultIcEEEE
scb:__ZN9InputAxis8TransferI14SafeBinaryReadEEvRT_
oZ:__ZNK21ExecutionOrderManager30GetCustomAwakeFromLoadQueueForEPKN5Unity4TypeE
oXc:__Z27RegisterModule_UnityConnectv
gVd:_MemoryStream_Expand_m3554752073
P4i:__ZN6il2cpp2vm10Reflection27GetCustomAttributesCacheForEP25Il2CppReflectionParameter
iwg:_ScriptableObject_CreateInstance_m2611081756
iMe:_ObjectRecord_get_IsInstanceReady_m2304516395
pre:_InternalEnumerator_1_System_Collections_IEnumerator_get_Current_m1635397542_gshared
NVd:_Path__cctor_m3273994011
sCj:__ZNSt11logic_errorD2Ev
$tf:_DateTimeUtils_CountRepeat_m3396693018
Mhg:_WeakReference_get_Target_m168713953
CK:__ZN10ObjectPoolIN4FMOD12ChannelGroupENS0_13ChannelGroupIEE7SetSizeEi
fZh:__ZL103LayoutRebuilder_t541313304_CustomAttributesCacheGenerator_LayoutRebuilder_U3CRebuildU3Em__5_m1288787547P21CustomAttributesCache
Uzi:_SymmetricTransform_FinalDecrypt_m764004682
Blj:__ZN6il2cpp2os10ThreadImpl33UnregisterCurrentThreadForCleanupEv
o8g:_List_1_System_Collections_IList_get_Item_m1315368445_gshared
OSh:__ZL114PointerEventData_t3807901092_CustomAttributesCacheGenerator_PointerEventData_get_pointerCurrentRaycast_m2627585223P21CustomAttributesCache
Esi:_Parser_ParseGroupingConstruct_m263270497
r_c:_UIBehaviour_OnDisable_m1784507360
DMh:__ZL112PlayerConnection_t3081694049_CustomAttributesCacheGenerator_PlayerConnection_MessageCallbackInternal_m1914517467P21CustomAttributesCache
EW:__Z22ValidateTlsfAllocationPvjiS_
Rle:_InternalEnumerator_1_MoveNext_m3525157932_gshared
fkg:_Color__ctor_m2943235014_AdjustorThunk
y6i:__ZN14dense_hash_mapI10KeyWrapperINSt3__24pairIPK9EventInfoP11Il2CppClassEEEj17ReflectionMapHashIS8_ENS9_14EqualsComparerINS1_8equal_toIS8_EEEENS1_9allocatorINS2_IKS9_jEEEEE15set_deleted_keyERSH_
Zw:__ZN27AnimationLayerMixerPlayable22PrepareAnimationEventsEfR13dynamic_arrayI22AnimationClipEventInfoLj4EE
zqb:__Z14resize_trimmedINSt3__26vectorI17AnimationCurveTplIfE13stl_allocatorIS3_L18MemLabelIdentifier1ELi16EEEEEvRT_j
QWb:__ZN25CameraStackRenderingState19SetupLastEyeCamerasERK11CameraStack
EPa:__Z12GUIDToStringRK9UnityGUID
rfe:_RSASslSignatureDeformatter_SetKey_m2204705853
zG:__ZN11SoundHandleC2ERKS_
it:__ZN17AnimationPlayableC2E18DirectorPlayerType
GOe:_InputField_set_shouldHideMobileInput_m1650743574
LUi:__ZNK6il2cpp5utils11collections13ArrayValueMapIPK10Il2CppType17Il2CppInteropData26InteropDataToTypeConverterNS_8metadata14Il2CppTypeLessENS8_26Il2CppTypeEqualityComparerEE10find_firstERKS5_
K9g:_List_1_Reverse_m1445355384_gshared
LTd:_FileStream_get_CanSeek_m331583577
T_b:__Z29StdTemplateConversionFunctionItxEbPvR14SafeBinaryRead
CLe:_WellKnownServiceTypeEntry_get_ObjectType_m3211195371
NEi:_PCMReaderCallback_EndInvoke_m3916876196
Zld:_TypeBuilder_get_ContainsGenericParameters_m1769080325
U2d:_DSAParameters_t1885824122_marshal_pinvoke_back
xz:__ZN8Animator22OnGraphTopologyChangedEP8Playablei
n3e:_Kernel_MultiplyByDword_m1266935086
mLd:_Convert_ToInt64_m3916071102
yYb:__ZN6Camera25StandaloneRenderToCubemapEP7TextureiPFvPK9SceneNodePK4AABBR9IndexListPvESA_j
iqf:_String_Trim_m3384720403
YXa:__ZN14RenderSettings18TransferDeprecatedI14SafeBinaryReadEEvRT_
wJg:__Z93RuntimeInvoker_Single_t1397266774_SingleU26_t1922108698_Single_t1397266774_Single_t1397266774PFvvEPK10MethodInfoPvPS4_
Kwi:_Event__ctor_m526447123
cCh:__ZL56RankException_t3812021567_CustomAttributesCacheGeneratorP21CustomAttributesCache
OVg:__Z72RuntimeInvoker_Boolean_t97287965_CustomAttributeNamedArgument_t287865710PFvvEPK10MethodInfoPvPS4_
FMg:__Z88RuntimeInvoker_RuntimeObject_RuntimeObject_RuntimeObject_RuntimeObject_Int32_t2950945753PFvvEPK10MethodInfoPvPS4_
Gdg:_Type_ToString_m3975981286
gZ:__ZN12TLSAllocatorI14StackAllocatorE8AllocateEji
h$:__ZN16ScriptingManager18GetMonoScriptCacheEi
Ssi:_ExpressionAssertion__ctor_m2554412824
oui:_CapturingGroup_IsComplex_m4061114763
Wob:__Z18Transfer_BlittableI14SafeBinaryReadLb1EyEvRK29SerializationCommandArgumentsR31RuntimeSerializationCommandInfo
JGh:__ZL99GameObject_t1113636619_CustomAttributesCacheGenerator_GameObject_GetComponentInChildren_m2670866854P21CustomAttributesCache
c$d:_NullReferenceException__ctor_m3076065613
Xpc:__ZN8JSONRead8TransferIfEEvRT_PKc17TransferMetaFlagsb
Blh:__ZL73Enum_t4135868527_CustomAttributesCacheGenerator_Enum_ToObject_m3092348831P21CustomAttributesCache
kei:_Comparison_1_EndInvoke_m3981968715_gshared
ozd:__ZN21InterfaceFuncInvoker2IP12Il2CppObjectP6Type_tS1_E6InvokeEjP11Il2CppClassS1_S3_S1_
Rbf:_X509SubjectKeyIdentifierExtension_Decode_m1505409124
Sma:__ZL23AddGpuProgramParametersR20GpuProgramParametersRKNSt3__26vectorIN9ShaderLab20SerializedSubProgram15MatrixParameterENS1_9allocatorIS5_EEEERKNS2_INS4_15VectorParameterENS6_ISB_EEEEiiP16PropertyNamesSet
vAa:__ZN6prcoreL17RemapGenericFloatI18TexFormatARGBFloat17TexFormatRGBAHalfEEvPKNS_9InnerInfoE
Npf:_String_System_IConvertible_ToUInt16_m2888090399
jM:__ZN11AudioSource21ApplyCachedParametersE12SoundChannel
aed:_Assembly_InternalGetType_m3065345470
aR:__ZN13Simd4iFactoryIN6detail9FourTupleEEC2Eiiii
Eke:_InternalEnumerator_1__ctor_m3390957028_gshared
$qd:_ResourceSet__ctor_m3356376607
z6d:_PrimeGeneratorBase_get_PrimalityTest_m2487240563
F0c:_PhysicsRaycaster_get_maxRayIntersections_m3887348715
yth:__ZL56_ParameterInfo_t489405856_CustomAttributesCacheGeneratorP21CustomAttributesCache
z4a:__ZN15SerializeTraitsI33EnlightenTerrainChunksInformationE8TransferI14SafeBinaryReadEEvRS0_RT_
U5b:__ZNK32RendererMaterialAnimationBinding9BindValueER6ObjectRKN11UnityEngine9Animation14GenericBindingERNS3_10BoundCurveE
pWh:__ZL109MaskableGraphic_t3839221559_CustomAttributesCacheGenerator_MaskableGraphic_ParentMaskStateChanged_m1092090553P21CustomAttributesCache
Aze:_Transform_1_Invoke_m1731820209_gshared
TYa:__Z13GetIAnimationv
Eya:__ZL18stbir__support_onef
epf:_Single_CompareTo_m189772128
Irc:__Z26Transfer_UnityEngineObjectI9JSONWriteLb0EEvRK29SerializationCommandArgumentsR31RuntimeSerializationCommandInfo
Bte:_DefaultComparer_Compare_m4042058291_gshared
Zbd:_Image_set_overrideSprite_m3213596394
f0a:__ZNSt3__26vectorIN4core12basic_stringIcNS1_20StringStorageDefaultIcEEEE13stl_allocatorIS5_L18MemLabelIdentifier1ELi16EEE6assignINS_11__wrap_iterIPS5_EEEENS_9enable_ifIXaasr21__is_forward_iteratorIT_EE5valuesr16is_constructibleIS5_NS_15iterator_traitsISF_E9referenceEEE5valueEvE4typeESF_SF_
wOc:__ZNSt3__27__sort5IRNS_6__lessIN2UI14DepthSortEntryES3_EEPS3_EEjT0_S7_S7_S7_S7_T_
wTd:_FileLoadException_ToString_m2989457882
Tmi:_AuthorityKeyIdentifierExtension__ctor_m2197389230
yFi:_AudioListener_ClearExtensionProperties_m3849891634
Qxc:_UNITY_FT_DivFix
x4h:_Array_InternalArray__get_Item_TisDecimal_t2948259380_m3511003792_gshared
i3i:__ZNSt3__218uninitialized_copyIPNS_4pairIK10KeyWrapperINS1_IPK11Il2CppImageP11Il2CppClassEEEjEESC_EET0_T_SE_SD_
zmf:_SecurityElement_IsValidAttributeValue_m948345692
Jwc:__ZN19ControllerHitReport15onControllerHitERKN5physx16PxControllersHitE
Ba:invoke_vdd
yn:FUNCTION_TABLE_fiii
Urh:__ZL102MethodInfo_t_CustomAttributesCacheGenerator_MethodInfo_MakeGenericMethod_m1996785325____typeArguments0P21CustomAttributesCache
IXd:_TextWriter_Write_m2252948084
g8b:__Z19RegisterModule_Corev
OHe:_AsyncResult_get_CallMessage_m1679778649
SKf:_Array_InternalArray__IEnumerable_GetEnumerator_TisPlayableBinding_t354260709_m1924544205_gshared
$Lc:__ZZ29InitializeTextRenderingModulevEN27cleanupAfterLoadRegistrator7ForwardEv
akb:__ZNSt3__26__sortIRPFbRK23TransformAccessReadOnlyS3_EPS1_EEvT0_S8_T_
iDf:_CCFixed_FromDateTime_m3894190577
DWb:__Z29PluginsIssueRenderingExtEvent26UnityRenderingExtEventTypePv
vEg:__Z116RuntimeInvoker_RuntimeObject_RuntimeObject_Int32_t2950945753_RuntimeObject_RuntimeObject_RuntimeObject_RuntimeObjectPFvvEPK10MethodInfoPvPS4_
i0d:_RuntimeMethodHandle__ctor_m2229201676_AdjustorThunk
OMe:_MessageFormatter_ReadMethodCall_m2327590823
V4b:__Z14RandomRotationP9Texture2DPhiiii
fOf:_Array_InternalArray__ICollection_Add_TisUInt16_t2177724958_m3981262878_gshared
gyf:_Decimal_GetBits_m453754410
C_f:_HashSet_1_Contains_m3173358704_gshared
xDi:_ToggleEvent__ctor_m834619998
Ise:_InternalEnumerator_1_Dispose_m436383441_AdjustorThunk
w8d:_PKCS1_Encode_v15_m2077073129
MSf:_Dictionary_2_get_Values_m2682483593_gshared
Lih:_Collection_1_set_Item_m4084225937_gshared
B$g:__Z51RuntimeInvoker_OrderBlock_t1585977831_RuntimeObjectPFvvEPK10MethodInfoPvPS4_
Bug:_RectOffset_get_left_m1232181034
FBa:__ZN4gles14UseGLSLProgramER15DeviceStateGLESjbij
GRg:__Z59RuntimeInvoker_Boolean_t97287965_Int32_t2950945753_IntPtr_tPFvvEPK10MethodInfoPvPS4_
mMj:_glDeleteProgram__wrapper
rfc:__Z50Register_UnityEngine_Camera_INTERNAL_get_pixelRectv
Nza:__ZN6prcoreL18BlitFloatToIntegerERK14ImageReferenceRS0_
dxf:_DBNull_System_IConvertible_ToUInt32_m3784627971
Ybe:_ClientSessionCache_Add_m964342678
Qyi:_SkinChangedDelegate__ctor_m1270439727
PFa:__ZN13dynamic_arrayI15ComputeShaderCBLj4EE6assignEPKS0_S3_
tNb:__Z13GetIPhysics2Dv
vU:__ZN11UnityEngine15CloudWebService14RestDownloader17OnCompleteContentEv
n0i:__ZN15dense_hashtableINSt3__24pairIK10KeyWrapperINS1_IPK14Il2CppAssemblyP11Il2CppClassEEEjEES9_17ReflectionMapHashIS8_EN14dense_hash_mapIS9_jSD_NS9_14EqualsComparerINS0_8equal_toIS8_EEEENS0_9allocatorISB_EEE9SelectKeyESI_SK_E15insert_noresizeERKSB_
gyg:_Transform_get_localScale_m129152068
Ayf:_DivideByZeroException__ctor_m3496959969
TCa:__ZN26SinglePassStereoSupportExt19AfterDrawCallStereoEv
eZe:_ScrollRect_get_layoutPriority_m1584702890
Qa:invoke_viffi
dz:__ZN17AnimationPlayable28UpdateInternalStateRecursiveILi1ELb0EEEvPK35AnimationPlayableEvaluationConstant
Vij:__ZN6il2cpp2gcL10CleanupCCWEPvS1_
Ta:invoke_vifff
_Kj:_glGetVertexAttribiv__wrapper
Ne:_emscripten_request_fullscreen
$fi:_Predicate_1_Invoke_m851618236_gshared
Kph:__ZL67IsolatedStorageException_t3468072396_CustomAttributesCacheGeneratorP21CustomAttributesCache
JFb:__ZN20LocalFileSystemWebGL6DeleteER13FileEntryDatab
Pe:_emscripten_glDisableVertexAttribArray
VIf:_Array_InternalArray__ICollection_Remove_TisSingle_t1397266774_m3361324455_gshared
Um:FUNCTION_TABLE_iiiifiiii
Bga:__ZN4core8hash_mapINS_12basic_stringIcNS_20StringStorageDefaultIcEEEE13dynamic_arrayI4PPtrI6SpriteELj4EENS_4hashIS4_EENSt3__28equal_toIS4_EEE12delete_nodesEv
gle:_InternalEnumerator_1__ctor_m3456047704_gshared
jc:invoke_fifffi
zhh:_Collection_1_System_Collections_IList_Add_m2969482770_gshared
sJ:__ZN4FMOD5Sound15getNumSubSoundsEPi
$va:__ZN4gles23ClearCurrentFramebufferEP7ApiGLESbbbRK10ColorRGBAffi
Gwe:_Enumerator_System_Collections_IDictionaryEnumerator_get_Entry_m3249874482_AdjustorThunk
eji:_UnityEvent_1_Invoke_m3604335408_gshared
WAh:__ZL79Convert_t2465617642_CustomAttributesCacheGenerator_Convert_ToUInt64_m2652538228P21CustomAttributesCache
_e:_emscripten_glDeleteObjectARB
g$c:_EventSystem_RaycastComparer_m3685368675
Vf:_IMG_Load
pIg:__Z131RuntimeInvoker_Void_t1185182177_RuntimeObject_RuntimeObject_Int64_t3736567304_ObjectU26_t2146539884_SerializationInfoU26_t419328957PFvvEPK10MethodInfoPvPS4_
bBa:__ZN6prcoreL27StretchGenericFloatBilinearI18TexFormatARGBFloatEEvPKNS_9InnerInfoE
zjc:__Z53Register_UnityEngine_RenderTexture_Internal_GetHeightv
GUh:__ZL87U3CDelayedDestroyDropdownListU3Ec__Iterator0_t3853912249_CustomAttributesCacheGeneratorP21CustomAttributesCache
h$h:__ZL71OpeningController_t406972154_CustomAttributesCacheGenerator_startButtonP21CustomAttributesCache
y7e:_PKCS12_RemoveCertificate_m1421555398
I_e:_Slider_FindSelectableOnLeft_m1667068522
OAa:__ZN6prcoreL17RemapGenericFloatI17TexFormatRGBAHalf18TexFormatARGBFloatEEvPKNS_9InnerInfoE
nAb:__ZN18StreamedBinaryReadILb1EE21TransferSTLStyleArrayI13dynamic_arrayIN4math12int3_storageELj4EEEEvRT_17TransferMetaFlags
hnc:__Z14GetBuiltinSkini
lJe:_MethodDictionary_get_Item_m1201458851
GBg:__Z60RuntimeInvoker_SByte_t1669577662_RuntimeObject_RuntimeObjectPFvvEPK10MethodInfoPvPS4_
q4e:_CryptoConvert_ToInt32LE_m3340980429
C7:___cxx_global_var_init_18
il:_JS_SystemInfo_GetBrowserVersionString
Cjb:__ZN2UI13RectTransform23VirtualRedirectTransferER14SafeBinaryRead
Yfb:__ZN24GenerateTypeTreeTransfer8TransferINSt3__26vectorIN4core12basic_stringIcNS3_20StringStorageDefaultIcEEEE13stl_allocatorIS7_L18MemLabelIdentifier13ELi16EEEEEEvRT_PKc17TransferMetaFlags
uAe:_Enumerator_MoveNext_m3045873697_gshared
uOg:__Z31RuntimeInvoker_Rect_t2360479859PFvvEPK10MethodInfoPvPS4_
$ja:__ZNSt3__26vectorIN9ShaderLab20SerializedSubProgramENS_9allocatorIS2_EEE6assignIPS2_EENS_9enable_ifIXaasr21__is_forward_iteratorIT_EE5valuesr16is_constructibleIS2_NS_15iterator_traitsIS9_E9referenceEEE5valueEvE4typeES9_S9_
Utc:__Z18Transfer_BlittableI8JSONReadLb0E8BitFieldEvRK29SerializationCommandArgumentsR31RuntimeSerializationCommandInfo
amf:_SecurityPermission_set_Flags_m1503445204
w_f:_HashSet_1_CopyTo_m2849056227_gshared
Uyb:__ZL17Transfer_GUIStyleI18StreamedBinaryReadILb1EELb0EEvRK29SerializationCommandArgumentsR31RuntimeSerializationCommandInfo
X2e:_ModulusRing_Multiply_m343333088
Qha:__ZN9ShaderLab14SerializedPass8TransferI14SafeBinaryReadEEvRT_
$nc:__Z71Register_UnityEngine_GUILayoutUtility_INTERNAL_CALL_Internal_MoveWindowv
XO:__ZN12AudioManager16SetListenerPauseEb
Pfb:__ZNSt3__26vectorIN30RuntimeInitializeOnLoadManager9ClassInfoE13stl_allocatorIS2_L18MemLabelIdentifier13ELi16EEE6assignINS_11__wrap_iterIPS2_EEEENS_9enable_ifIXaasr21__is_forward_iteratorIT_EE5valuesr16is_constructibleIS2_NS_15iterator_traitsISC_E9referenceEEE5valueEvE4typeESC_SC_
HJf:_SetPropertyUtility_SetStruct_TisSingle_t1397266774_m2805350785_gshared
V6f:_StringBuilder_get_Length_m3238060835
qdj:__ZN6il2cpp2vm9Exception25RaiseOutOfMemoryExceptionERKNS_5utils10StringViewIDsEE
X_f:_KeyValuePair_2_set_Value_m2953914627_AdjustorThunk
da:invoke_viiiiiiiiiii
iyj:___syscall_ret
Lni:_DeriveBytes_set_Salt_m1400945044
p1c:_PointerEventData_set_worldNormal_m1888481930
E4c:_CanvasScaler_set_referencePixelsPerUnit_m1768965301
Ati:_AnchorInfo__ctor_m46784903
Eae:_CipherSuiteCollection_get_Item_m4188309062
mge:_SslHandshakeHash_HashFinal_m2573455475
aHe:_SynchronizationAttribute_ReleaseLock_m1030353464
B2h:_Array_swap_TisCustomAttributeNamedArgument_t287865710_m2628186452_gshared
x7a:__ZN11ChannelInfo8TransferI19StreamedBinaryWriteILb0EEEEvRT_
soj:__ZN4utf88internal13validate_nextIPKcEENS0_9utf_errorERT_S5_Rj
OXh:__ZL53ToggleGroup_t123837990_CustomAttributesCacheGeneratorP21CustomAttributesCache
Njf:_SHA1Internal_AddLength_m2737455899
cOb:__ZN14qsort_internal13Partition3WayIP17RODataReplacementi19ROSorterReplacementEENSt3__24pairIT_S6_EES6_S6_T0_T1_
pRe:_InputField_CreateCursorVerts_m3585916868
mSf:_KeyValuePair_2_get_Value_m755756747_gshared
zgc:__Z34Register_UnityEngine_Gradient_Initv
$Se:_LayoutGroup_OnDidApplyAnimationProperties_m1333813659
k3i:__ZN24dense_hashtable_iteratorINSt3__24pairIK10KeyWrapperINS1_IPK11Il2CppImageP11Il2CppClassEEEjEES9_17ReflectionMapHashIS8_EN14dense_hash_mapIS9_jSD_NS9_14EqualsComparerINS0_8equal_toIS8_EEEENS0_9allocatorISB_EEE9SelectKeyESI_SK_E30advance_past_empty_and_deletedEv
bjd:_GenericTypeParameterBuilder_IsArrayImpl_m67259334
oGe:_Context_ToString_m1073616138
Qfd:_DefaultMemberAttribute_get_MemberName_m3384235354
v6a:__ZN13ScreenManager23SetIsOrientationEnabledE18EnabledOrientationb
_Gi:__ZL24UnresolvedVirtualCall_57P12Il2CppObjectiPK10MethodInfo
AOe:_InputField_EnforceTextHOverflow_m3400115777
v2g:_List_1_System_Collections_IEnumerable_GetEnumerator_m1225415523_gshared
DPg:__Z41RuntimeInvoker_TextureWrapMode_t584250749PFvvEPK10MethodInfoPvPS4_
wcb:__ZN9InputAxis8TransferI19StreamedBinaryWriteILb0EEEEvRT_
ONd:__Z33il2cpp_codegen_check_sub_overflowxx
cEj:dynCall_viififiii
nPe:_InputField_get_caretColor_m2973283772
Xki:_ListPool_1_Release_m591299672_gshared
tAh:__ZL79Convert_t2465617642_CustomAttributesCacheGenerator_Convert_ToUInt16_m3116648921P21CustomAttributesCache
kre:_InternalEnumerator_1_MoveNext_m1096095130_AdjustorThunk
Whh:_Collection_1_RemoveAt_m226266097_gshared
uji:_UnityEvent_1_AddListener_m1590149461_gshared
eQh:__ZL63GUISkin_t1244372282_CustomAttributesCacheGenerator_m_ScrollViewP21CustomAttributesCache
KAf:_Double_System_IConvertible_ToInt16_m3591921965_AdjustorThunk
mei:_Comparison_1_Invoke_m2925518770_gshared
CQa:__ZN10GameObject23VirtualRedirectTransferER18StreamedBinaryReadILb0EE
Dzi:_SymmetricTransform__ctor_m2693628991
jdd:_ObjectDisposedException__ctor_m1034312941
qg:_glFrontFace
OUd:_FileSystemInfo_InternalRefresh_m1700260373
C8c:_Dropdown_OnSubmit_m1624226516
xug:_RectOffset__ctor_m3236153262
vUi:__ZNK15dense_hashtableINSt3__24pairIK10KeyWrapperIPK19Il2CppGenericMethodEPK26Il2CppGenericMethodIndicesEES6_N6il2cpp8metadata23Il2CppGenericMethodHashEN14dense_hash_mapIS6_SA_SE_NS6_14EqualsComparerINSD_26Il2CppGenericMethodCompareEEENS0_9allocatorISB_EEE9SelectKeyESI_SK_E12test_deletedEj
PUe:_MaskUtilities_IsDescendantOrSelf_m2247511982
wKg:__Z51RuntimeInvoker_UInt16_t2177724958_SByte_t1669577662PFvvEPK10MethodInfoPvPS4_
_Sb:__ZNSt3__26vectorI16ShadowCasterData13stl_allocatorIS1_L18MemLabelIdentifier2ELi16EEE21__push_back_slow_pathIKS1_EEvRT_
GAg:__Z46RuntimeInvoker_Double_t594665363_RuntimeObjectPFvvEPK10MethodInfoPvPS4_
JMc:__Z51Register_UnityEngine_TextGenerator_GetLinesInternalv
Sze:_Enumerator_get_Current_m2250080680_AdjustorThunk
oAi:_AesManaged_set_Key_m767972181
QMd:_Int16_System_IConvertible_ToBoolean_m1656400658_AdjustorThunk
MAd:_Byte_System_IConvertible_ToInt64_m285584218
sta:__ZN13GfxDeviceGLES22SetScissorRectPlatformERK5RectTIiE
dAa:__ZN6prcoreL17RemapGenericFloatI17TexFormatRGBFloat18TexFormatRGBAFloatEEvPKNS_9InnerInfoE
rGd:_DictionaryEntry_t3123975638_marshal_pinvoke_cleanup
zNf:_Array_InternalArray__ICollection_Add_TisDictionaryEntry_t3123975638_m665385049_gshared
VYd:_MissingMemberException__ctor_m2707802176
gXc:__ZN20UnityConnectSettings10InitializeEv
zLi:_Canvas_get_renderMode_m841659411
F4a:__ZN15SerializeTraitsI13dynamic_arrayI28EnlightenRendererInformationLj8EEE19ResizeSTLStyleArrayERS2_i
nOe:_SerializationInfo_GetValue_m42271953
qG:__ZN9AudioClip11CreateSoundEv
M6i:__ZN14dense_hash_mapI10KeyWrapperINSt3__24pairIPK9FieldInfoP11Il2CppClassEEEj17ReflectionMapHashIS8_ENS9_14EqualsComparerINS1_8equal_toIS8_EEEENS1_9allocatorINS2_IKS9_jEEEEEC2EjRKSB_RKSF_
i2i:__ZNK15dense_hashtableINSt3__24pairIK10KeyWrapperINS1_IPK10MethodInfoP11Il2CppClassEEEjEES9_17ReflectionMapHashIS8_EN14dense_hash_mapIS9_jSD_NS9_14EqualsComparerINS0_8equal_toIS8_EEEENS0_9allocatorISB_EEE9SelectKeyESI_SK_E13find_positionERSA_
zsa:__ZN13GfxDeviceGLES20CreateComputeProgramEPKhj
BWc:__ZN11UnityEngine7Connect16PersistentValues13RestoreValuesER8JSONRead
Bmh:__ZL65RuntimeArray_CustomAttributesCacheGenerator_Array_Sort_m182264525P21CustomAttributesCache
MGf:_Guid_BaseToString_m3600006650
hOa:__ZN20ArchiveStorageReader31TryToReadDirectoryFromBlockDataEyPKvj
A_c:_PointerEventData_set_pointerEnter_m3256217464
wfj:__ZN6il2cpp2vmL11GetIdentityEP14Il2CppIUnknown
Mrj:_GC_push_gc_structures
Pde:_TlsServerCertificate_ProcessAsTls1_m819212276
X9h:_ReadOnlyCollection_1_System_Collections_Generic_ICollectionU3CTU3E_Clear_m2102011098_gshared
A3h:_Dictionary_2_Do_ICollectionCopyTo_TisRuntimeObject_m3942192587_gshared
NYi:__ZN6il2cpp6icalls8mscorlib6SystemL8IsPublicEPK9EventInfo
tRh:__ZL139RectTransformUtility_t1743242446_CustomAttributesCacheGenerator_RectTransformUtility_INTERNAL_CALL_RectangleContainsScreenPoint_m1214874141P21CustomAttributesCache
K6d:_PrimalityTests_RabinMillerTest_m2544317101
aDa:__Z22GetShaderCachePathGLESv
V5d:_Kernel_DwordDivMod_m1540317819
Xgi:_CachedInvokableCall_1_Invoke_m931536002_gshared
X9g:_Enumerator_System_Collections_IEnumerator_get_Current_m1399273671_gshared
HQd:_Int64_Equals_m858582563_AdjustorThunk
R7a:__ZNSt3__213__stable_sortIRNS_4lessI4PPtrI11SpriteAtlasEEENS_11__wrap_iterIPS4_EEEEvT0_SA_T_NS_15iterator_traitsISA_E15difference_typeEPNSD_10value_typeEi
cRd:_Int64_ToString_m2085073918_AdjustorThunk
qmd:_FieldInfo_GetFieldOffset_m1356898082
C$g:__Z36RuntimeInvoker_Enumerator_t652329154PFvvEPK10MethodInfoPvPS4_
KMf:_Array_InternalArray__IndexOf_TisTypeTag_t3541821701_m2988972362_gshared
U8:__ZN8keywords6CreateEPKc
hOi:__ZL7log2_32j
S:Math_imul
u0f:_Enumerator_Dispose_m786980821_AdjustorThunk
YVg:__Z49RuntimeInvoker_Boolean_t97287965_Byte_t1134296376PFvvEPK10MethodInfoPvPS4_
iee:_TlsServerKeyExchange_Update_m453798279
I5a:__ZN11PlayerPrefs6GetIntERKN4core12basic_stringIcNS0_20StringStorageDefaultIcEEEEi
Lae:_CipherSuiteCollection_System_Collections_IList_IndexOf_m1361500977
B$e:_Text_set_fontStyle_m648756124
rMc:__Z45TextGenerator_CUSTOM_INTERNAL_get_rectExtentsP12Il2CppObjectP5RectTIfE
XOg:__Z50RuntimeInvoker_Touch_t1921856868_Int32_t2950945753PFvvEPK10MethodInfoPvPS4_
ttf:_DateTime__ctor_m2135476686_AdjustorThunk
rKe:_SoapFieldAttribute_IsInteropXmlElement_m2819415462
lvg:_RectTransform_GetLocalCorners_m823861473
_Ed:_SynchronizedArrayListWrapper_GetEnumerator_m1579424644
KWf:_EqualityComparer_1__ctor_m3717935020_gshared
Eei:_Comparison_1_EndInvoke_m2734814639_gshared
p_:__ZN18ScriptingArguments9AddObjectE18ScriptingObjectPtr
GQc:__Z39CanvasGroup_Get_Custom_PropInteractableP12Il2CppObject
zR:__ZN11UnityEngine15CloudWebService16SessionContainerD2Ev
LWc:__ZL38InitializeUnityConnectScriptingClassesv
lXb:__ZN13ProbeRenderer8ConvolveEbijjb
hzi:_GUIUtility_set_systemCopyBuffer_m608712289
twa:__ZN17GenericDynamicVBOC2ER9GfxDevice13GfxBufferModejj
imc:__ZZN10GUIManager14InitGUIManagerEvEN41PreUpdateIMGUISendQueuedEventsRegistrator7ForwardEv
Uaf:_ServicePointManager_get_SecurityProtocol_m966397919
ZCa:__ZN13dynamic_arrayIN18GlslGpuProgramGLES9GLProgramELj4EE6insertEPS1_jRKS1_
oWf:_EqualityComparer_1_System_Collections_IEqualityComparer_Equals_m2639327655_gshared
tDf:_CCGregorianCalendar_day_from_fixed_m1674702403
SS:__ZN11UnityEngine15CloudWebService17SessionEventQueue10PurgeItemsEj
RXb:__ZN6Camera16StandaloneRenderENS_10RenderFlagEP6ShaderRKN4core12basic_stringIcNS3_20StringStorageDefaultIcEEEE
vdf:_X509Chain_PrepareForNextCertificate_m3691934993
SAi:_U3CCharFadeInU3Ec__Iterator0_MoveNext_m4215710248
N1a:__ZNK12CubemapArray13GetIsReadableEv
myb:__Z18Transfer_BlittableI18StreamedBinaryReadILb1EELb1EtEvRK29SerializationCommandArgumentsR31RuntimeSerializationCommandInfo
yPh:__ZL58EventType_t3528516131_CustomAttributesCacheGenerator_keyUpP21CustomAttributesCache
Gvh:__ZL57X509Certificate_t713131622_CustomAttributesCacheGeneratorP21CustomAttributesCache
Jab:__ZN12BoneWeights48TransferI19StreamedBinaryWriteILb0EEEEvRT_
xBi:_Fade__ctor_m1474077663
Eqa:__ZN9GfxDevice20DeallocRenderSurfaceEP17RenderSurfaceBase
FBe:_ValueCollection_System_Collections_Generic_ICollectionU3CTValueU3E_get_IsReadOnly_m1110422367_gshared
Xma:__ZN20GpuProgramParameters36UpdatePrepareValuesMaximumBufferSizeEv
VFi:_AudioSourceExtension_Stop_m387892536
C8h:_ReadOnlyCollection_1_System_Collections_IList_RemoveAt_m2129436005_gshared
O0e:_SimpleCollator_GetContraction_m2205549079
_Yf:_EqualityComparer_1_get_Default_m168544645_gshared
G8h:_ReadOnlyCollection_1_System_Collections_IList_get_IsReadOnly_m3888539454_gshared
wda:__ZN13RuntimeStaticI10WatermarksLb0EE13StaticDestroyEPv
s7d:_ARC4Managed_GenerateKey_m1607343060
POf:_Array_InternalArray__ICollection_CopyTo_TisDecimal_t2948259380_m2749946216_gshared
ffe:_ReceiveRecordAsyncResult_get_ResultingBuffer_m1839161335
aSa:__ZN12BaseRenderer23RendererBecameInvisibleEv
sid:_EnumBuilder_IsPointerImpl_m2644353933
jHe:_EnvoyInfo__ctor_m276600651
eJc:__ZN20TextRenderingPrivate8FontImpl13CharacterInfo8TransferI18StreamedBinaryReadILb0EEEEvRT_
Bvb:__Z29Transfer_Blittable_ArrayFieldI24GenerateTypeTreeTransferfEvRT_R9ArrayInfoRK23StaticTransferFieldInfo
wba:__ZNSt3__26__treeINS_12__value_typeIN4core12basic_stringIcNS2_20StringStorageDefaultIcEEEES6_EENS_19__map_value_compareIS6_S7_NS_4lessIS6_EELb1EEE13stl_allocatorIS7_L18MemLabelIdentifier13ELi16EEE7destroyEPNS_11__tree_nodeIS7_PvEE
ing:_UnityEvent_FindMethod_Impl_m2312362624
fZb:__ZN19CustomRenderTexture9AddParentE4PPtrIS_E
T6:__ZN8Gradient8TransferI14SafeBinaryReadEEvRT_
Wig:_Vector3_GetHashCode_m2879461828
Csi:_Parser_ParseSpecial_m1961501104
Yof:_Single_System_IConvertible_ToUInt64_m3299129161_AdjustorThunk
e0a:__ZNSt3__26vectorIN4core12basic_stringIcNS1_20StringStorageDefaultIcEEEE13stl_allocatorIS5_L18MemLabelIdentifier1ELi16EEE7reserveEj
qRh:__ZL93CanvasRenderer_t2598313366_CustomAttributesCacheGenerator_CanvasRenderer_set_cull_m4222419074P21CustomAttributesCache
mBe:_ValueCollection_System_Collections_Generic_ICollectionU3CTValueU3E_Contains_m3110959791_gshared
zaf:_IPv6Address_AsIPv4Int_m844941024
Jhb:__ZN18IDCollectorFunctorD0Ev
Fee:_RecordProtocol__cctor_m1280873827
M6f:_StringBuilder__ctor_m3504405255
jsd:_Marshal__cctor_m4007734770
Gqj:_GC_new_free_list_inner
G6e:_SymmetricTransform_Random_m2004892672
WMg:__Z79RuntimeInvoker_Void_t1185182177_RuntimeObject_Byte_t1134296376_Byte_t1134296376PFvvEPK10MethodInfoPvPS4_
F8d:_EncryptedPrivateKeyInfo_get_IterationCount_m2912222740
lqj:_GC_err_printf
gqh:__ZL63PathTooLongException_t2919094560_CustomAttributesCacheGeneratorP21CustomAttributesCache
Y8d:_RSAManaged_DecryptValue_m1804388365
xie:_InternalEnumerator_1_System_Collections_IEnumerator_get_Current_m2980550840_AdjustorThunk
Iuc:__ZN8JSONRead8TransferI10RectOffsetEEvRT_PKc17TransferMetaFlagsb
ugj:__ZNK15dense_hashtableINSt3__24pairIK10KeyWrapperINS1_IPKcS4_EEEiEES6_24NamespaceAndNamePairHashN14dense_hash_mapIS6_iS9_NS6_14EqualsComparerI26NamespaceAndNamePairEqualsEENS0_9allocatorIS8_EEE9SelectKeyESD_SF_E12test_deletedERK24dense_hashtable_iteratorIS8_S6_S9_SH_SD_SF_E
AS:__ZN9JSONWrite8TransferIN11UnityEngine15CloudWebService14DataErrorEvent15FileErrorDetailEEEvRT_PKc17TransferMetaFlags
Weh:_Collection_1_ClearItems_m2728738230_gshared
PPd:_Int32_Parse_m2087562008
MUa:__Z21ClearFenceWithoutSyncR8JobFence
GLf:_Array_compare_TisVector4_t3319028937_m1974066282_gshared
gpd:_MonoProperty_GetAccessors_m412928203
Cki:_TweenRunner_1_Start_m3757154622_gshared
wJ:__ZN12SoundManager20RegisterModifiedClipEP10SampleClip
fLe:_RemotingServices_GetClientChannelSinkChain_m1499550585
bed:_Assembly_FillName_m1660001542
nth:__ZL56_EventBuilder_t2558055199_CustomAttributesCacheGeneratorP21CustomAttributesCache
NXe:_ScrollRect_get_decelerationRate_m74583805
lkf:_SHA384Managed_processBlock_m1272529332
aM:__ZN11AudioSource4PlayEd
HCd:_Char_ToString_m278452217_AdjustorThunk
oSi:__ZN15dense_hashtableI10KeyWrapperIPK17Il2CppGenericInstES4_N6il2cpp8metadata21Il2CppGenericInstHashEN14dense_hash_setIS4_S7_NS4_14EqualsComparerINS6_24Il2CppGenericInstCompareEEENSt3__29allocatorIS4_EEE8IdentityESB_SE_E13set_empty_keyERKS4_
YBg:__Z63RuntimeInvoker_Char_t3634460470_Int16_t2552820387_RuntimeObjectPFvvEPK10MethodInfoPvPS4_
AKd:_Convert_ToDouble_m2924063577
Jlb:__ZNK20LocalFileSystemPosix8IsHiddenERK13FileEntryData
kse:_InternalEnumerator_1_System_Collections_IEnumerator_Reset_m1601477281_AdjustorThunk
Gfd:_CustomAttributeNamedArgument_ToString_m1488801416_AdjustorThunk
$Ae:_ValueCollection_System_Collections_Generic_ICollectionU3CTValueU3E_Remove_m3673494156_gshared
mRh:__ZL113CanvasRenderer_t2598313366_CustomAttributesCacheGenerator_CanvasRenderer_SplitUIVertexStreamsInternal_m3280623346P21CustomAttributesCache
G2a:__ZN7Cubemap23VirtualRedirectTransferER18StreamedBinaryReadILb0EE
Qre:_InternalEnumerator_1__ctor_m1739091604_gshared
Nhc:__ZNSt3__27__sort4IRNS_6__lessI11KeyframeTplIfES3_EEPS3_EEjT0_S7_S7_S7_T_
HFc:_Read_CVT
QL:__ZN11AudioSource23VirtualRedirectTransferER19StreamedBinaryWriteILb0EE
Q0e:_SimpleCollator_GetTailContraction_m2107754083
pub:__ZL26Transfer_SimpleNativeClassI24GenerateTypeTreeTransfer17AnimationCurveTplIfELb0EEvRK29SerializationCommandArgumentsR31RuntimeSerializationCommandInfo
Ivc:__ZN8JSONRead21TransferSTLStyleArrayI13dynamic_arrayI9BoundsIntLj4EEEEvRT_17TransferMetaFlags
N4a:__ZN24GenerateTypeTreeTransfer8TransferI13dynamic_arrayI33EnlightenTerrainChunksInformationLj4EEEEvRT_PKc17TransferMetaFlags
juf:_DateTimeFormatInfo__ctor_m3106345035
Bbe:_TlsServerKeyExchange_verifySignature_m3412856769
jDi:_ShoppingController__ctor_m3018344089
QVf:_EqualityComparer_1_System_Collections_IEqualityComparer_GetHashCode_m4137147946_gshared
Tca:__ZN16LightmapSettings20DidChangeActiveSceneEP10UnitySceneS1_
Rvb:__Z18Transfer_BlittableI19StreamedBinaryWriteILb0EELb0EN4math12int3_storageEEvRK29SerializationCommandArgumentsR31RuntimeSerializationCommandInfo
PZh:__ZL59g_AssemblyU2DCSharp_Assembly_CustomAttributesCacheGeneratorP21CustomAttributesCache
$Yi:__ZN6il2cpp5utils9PathUtils8BasenameIcEENSt3__212basic_stringIT_NS3_11char_traitsIS5_EENS3_9allocatorIS5_EEEERKSA_
vLe:_RemotingProxy__cctor_m4096951805
Nnc:__Z35Register_UnityEngine_Event_get_typev
Bdj:__ZN6il2cpp2vm9Exception23GetInvalidCastExceptionERKNS_5utils10StringViewIDsEE
CWh:__ZL64Scrollbar_t1494447233_CustomAttributesCacheGenerator_m_DirectionP21CustomAttributesCache
ez:__ZN8Animator28BuildControllerPlayableCacheEv
kuh:__ZL48Header_t549724581_CustomAttributesCacheGeneratorP21CustomAttributesCache
TQh:__ZL88CanvasGroup_t4083511760_CustomAttributesCacheGenerator_CanvasGroup_get_alpha_m2918269489P21CustomAttributesCache
yRg:__Z36RuntimeInvoker_EventType_t3528516131PFvvEPK10MethodInfoPvPS4_
YY:__Z63ThreadAndSerializationSafeCheckGetMonoBehaviourBeingTransferredv
iAf:_StackTrace__ctor_m206492268
s1g:_List_1_set_Item_m4224739467_gshared
$Dg:__Z74RuntimeInvoker_Int32_t2950945753_RuntimeObject_RuntimeObject_RuntimeObjectPFvvEPK10MethodInfoPvPS4_
B6c:_ColorTween_set_startColor_m2562993758_AdjustorThunk
wgd:_ConstructorBuilder_get_Name_m2426555260
uhc:__Z37Register_UnityEngine_Input_GetAxisRawv
WCh:__ZL80ModulusRing_t596511505_CustomAttributesCacheGenerator_ModulusRing_Pow_m729002192P21CustomAttributesCache
Dsi:_Parser_ParseCharacterClass_m4285351396
yLd:_Convert_ToSByte_m2653418303
MHd:_SyncHashtable__ctor_m2449935938
OL:__ZN11AudioSource5ResetEv
xjf:_RSAPKCS1SignatureFormatter_SetKey_m2935054088
CNb:__ZN12ImageFilters27SetSurfaceUseResolvedBufferEP13RenderTextureb
e8a:__ZN14Texture2DArray23VirtualRedirectTransferER18StreamedBinaryReadILb0EE
u8f:_UTF7Encoding_GetByteCount_m209415911
tjb:__ZN2UI13RectTransform13AwakeFromLoadE17AwakeFromLoadMode
jvi:_RegularExpression_Compile_m2385682508
DDf:_CompareInfo__cctor_m1837489679
ySb:__ZN14qsort_internal30FindAndMovePivotToLastPositionIP20ShadowCasterSortDatai26ShadowCasterSortDataSorterEEvT_S4_T0_T1_
Puh:__ZL60IRemotingTypeInfo_t2222593263_CustomAttributesCacheGeneratorP21CustomAttributesCache
Nnb:__Z18Transfer_BlittableI14SafeBinaryReadLb1EiEvRK29SerializationCommandArgumentsR31RuntimeSerializationCommandInfo
Bdf:_X509ExtensionEnumerator_get_Current_m256207749
X7:__GLOBAL__sub_I_modules_profiler_public_0_cpp
Egi:_Predicate_1__ctor_m3829092036_gshared
Vhb:__ZN17PersistentManager13GetAllFileIDsERKN4core12basic_stringIcNS0_20StringStorageDefaultIcEEEER13dynamic_arrayIxLj8EE
Yxh:__ZL83StringBuilder_t_CustomAttributesCacheGenerator_StringBuilder_AppendLine_m1438862993P21CustomAttributesCache
byd:_Array_Sort_m182264525
HSe:_LayoutGroup_set_padding_m282562135
obh:_Collection_1_System_Collections_IList_get_IsReadOnly_m773226719_gshared
_ed:_Default_IsArrayAssignable_m953489228
kD:__ZNK4PPtrI8RendererEcvPS0_Ev
$7i:_il2cpp_field_get_offset
Teg:_UInt16_ToString_m355311020_AdjustorThunk
x4d:_RC2__ctor_m1146135664
Mhi:_InvokableCall_1_remove_Delegate_m667188944_gshared
dHe:_SynchronizedClientContextSink__ctor_m4129963630
Ek:_glGetStringi
jsf:_DecoderExceptionFallback_CreateFallbackBuffer_m1133375601
shj:__ZNK15dense_hashtableI10KeyWrapperIP18Il2CppGenericClassES3_N6il2cpp8metadata22Il2CppGenericClassHashEN14dense_hash_setIS3_S6_NS3_14EqualsComparerINS5_25Il2CppGenericClassCompareEEENSt3__29allocatorIS3_EEE8IdentityESA_SD_E10test_emptyERK30dense_hashtable_const_iteratorIS3_S3_S6_SF_SA_SD_E
gxe:_Enumerator_get_CurrentKey_m889650866_gshared
Z0a:__ZNSt3__26__treeINS_12__value_typeIN9ShaderLab16FastPropertyNameEN18UnityPropertySheet11UnityTexEnvEEENS_19__map_value_compareIS3_S6_NS_4lessIS3_EELb1EEENS_9allocatorIS6_EEE12__find_equalIS3_EERPNS_16__tree_node_baseIPvEENS_21__tree_const_iteratorIS6_PNS_11__tree_nodeIS6_SG_EEiEESJ_RKT_
_8a:__ZN18StreamedBinaryReadILb0EE21TransferSTLStyleArrayI13dynamic_arrayI8Vector4fLj4EEEEvRT_17TransferMetaFlags
lve:_Comparer_1_get_Default_m1513846993_gshared
X6e:_EncryptedData_get_EncryptionAlgorithm_m1297902161
EUh:__ZL67OptionDataList_t1438173104_CustomAttributesCacheGenerator_m_OptionsP21CustomAttributesCache
wA:__ZN8Animator9WriteStepEy
zwe:_Enumerator_VerifyCurrent_m829026141_gshared
Z8b:__ZN16PropertyAccessorC2Ev
R5a:__ZNSt3__23mapIN4core12basic_stringIcNS1_20StringStorageDefaultIcEEEE9PrefValueNS_4lessIS5_EENS_9allocatorINS_4pairIKS5_S6_EEEEEixERSB_
Kyb:__Z35Transfer_Blittable_FixedBufferFieldI18StreamedBinaryReadILb1EEaEvRK29SerializationCommandArgumentsR31RuntimeSerializationCommandInfo
t8b:__ZN15DirectorManager22ConstructPlayableGraphEv
BWh:__ZL65Scrollbar_t1494447233_CustomAttributesCacheGenerator_m_HandleRectP21CustomAttributesCache
h6a:__ZN13ScreenManager16SetScreenTimeoutEi
Ssb:__Z18Transfer_BlittableI17RemapPPtrTransferLb0EdEvRK29SerializationCommandArgumentsR31RuntimeSerializationCommandInfo
sch:_Collection_1_ConvertItem_m1743542180_gshared
yMc:__Z38Register_UnityEngine_Font_HasCharacterv
h$g:__Z68RuntimeInvoker_Boolean_t97287965_Int16_t2552820387_Int16_t2552820387PFvvEPK10MethodInfoPvPS4_
vWb:__Z35IntersectSpherePlaneBoundsOptimizedRKN4math7_float4EPS1_i
Eif:_RNGCryptoServiceProvider__cctor_m3587754670
gne:_InternalEnumerator_1_MoveNext_m1728532725_AdjustorThunk
Lpi:_X509Crl_get_IssuerName_m1792797338
$4f:_List_1_get_Count_m241572196_gshared
gkj:__ZN6il2cpp2os5posix15PosixWaitObject13InterruptWaitEv
qca:__Z22CleanupLODGroupManagerPv
Jnc:__Z21Event_CUSTOM_PopEventP12Il2CppObject
ol:_glUniform3fv
Awj:__ZNK6il2cpp8metadata24Il2CppGenericInstCompareclERK10KeyWrapperIPK17Il2CppGenericInstES8_
Teb:__ZNSt3__218__insertion_sort_3IRN15ResourceManager10Dependency6SorterEPS2_EEvT0_S6_T_
Wdf:_X509ChainElement_Set_m655180762
Pqg:_MonoBehaviour_StopCoroutine_m615723318
Wsg:_Quaternion_GetHashCode_m2636680144
jRb:__ZNK16LightmapSettings31GetRealtimeLightmapDecodeValuesEv
QK:__ZN5audio5mixer12SetSuspendedERNS0_16AudioMixerMemoryEb
Nib:__ZN17PersistentManager21UnloadNonDirtyStreamsEv
K7f:_UnicodeDecoder__ctor_m3606046165
$Ig:__Z96RuntimeInvoker_Int32_t2950945753_RuntimeObject_Int32_t2950945753_RuntimeObject_Int32_t2950945753PFvvEPK10MethodInfoPvPS4_
Lvi:_Uri_get_Parser_m3737125102
ILi:_Canvas_get_overrideSorting_m2740418462
Sag:_Scheduler__ctor_m3313141270
f9a:__ZN12ImageFilters4BlitER17ShaderPassContextP7TextureP13RenderTextureiPK18SharedMaterialDataPKcP6ShaderiNS_9BlitFlagsE11CubemapFaceRK8Vector2fSH_
Kqf:_String_LastIndexOf_m3451222878
zqi:_Mark_get_Index_m3048692661
fYh:__ZL69CanvasScaler_t2767979955_CustomAttributesCacheGenerator_m_ScaleFactorP21CustomAttributesCache
HEe:_ConfigHandler_CheckPath_m3079311646
aT:__ZN11UnityEngine15CloudWebService10RestClientINS0_23WebRequestRestHeaderMapEED2Ev
nfi:_U3CCreateWhereIteratorU3Ec__Iterator1D_1__ctor_m1723214851_gshared
Kl:_emscripten_glDepthMask
LLe:_RemotingServices_CreateClientProxy_m3886727610
Ixa:__ZN4crnd25static_huffman_data_model22prepare_decoder_tablesEv
G3a:__ZN9Texture2D23VirtualRedirectTransferER17RemapPPtrTransfer
sig:_AssetBundleRequest_t699759206_marshal_pinvoke
$Tf:_DefaultComparer__ctor_m1292755885_gshared
Kee:_RecordProtocol_GetMessage_m2086135164
Imc:__Z23GUIStatePopDisplayIndexv
TAb:__Z18Transfer_BlittableI18StreamedBinaryReadILb0EELb0E10ColorRGBAfEvRK29SerializationCommandArgumentsR31RuntimeSerializationCommandInfo
Yca:__Znaj
MMj:_emscripten_glEnableClientState__wrapper
iMh:__ZL60PlayableBehaviour_t4203540982_CustomAttributesCacheGeneratorP21CustomAttributesCache
G9:__ZN17MessageIdentifierC2EPKcNS_7OptionsEPKN5Unity4TypeES1_
_Bg:__Z45RuntimeInvoker_Void_t1185182177_RuntimeObjectPFvvEPK10MethodInfoPvPS4_
L7a:__ZN13dynamic_arrayI4PPtrI6SpriteELj4EE9push_backERKS2_
Hqg:_Mesh_SetTriangles_m1523451247
Nof:_Single_System_IConvertible_ToSByte_m1208276900
C0h:_Array_InternalArray__set_Item_TisVector4_t3319028937_m757305038_gshared
ZRa:__ZN11GameManager15ThreadedCleanupEv
sHg:__Z105RuntimeInvoker_Void_t1185182177_RuntimeObject_RuntimeObject_RuntimeObject_RuntimeObject_Int32_t2950945753PFvvEPK10MethodInfoPvPS4_
KAe:_ValueCollection_System_Collections_Generic_ICollectionU3CTValueU3E_Add_m3298059628_gshared
tCg:__Z64RuntimeInvoker_RuntimeObject_Int16_t2552820387_Int16_t2552820387PFvvEPK10MethodInfoPvPS4_
qQ:__Z55Register_UnityEngine_AudioSource_get_spatializeInternalv
YKa:__ZN14SafeBinaryRead8TransferI14ConstantStringEEvRT_PKc17TransferMetaFlags
PLb:__ZNK6Camera16GetStereoEnabledEv
NDh:__ZL90HttpWebRequest_t1669436515_CustomAttributesCacheGenerator_HttpWebRequest__ctor_m1789065007P21CustomAttributesCache
aMg:__Z72RuntimeInvoker_Int32_t2950945753_TimeSpan_t881159249_TimeSpan_t881159249PFvvEPK10MethodInfoPvPS4_
jfe:_SendRecordAsyncResult_SetComplete_m153213906
Bna:__ZL24FindBelongingStructParamRPKcRNSt3__26vectorIN9ShaderLab20SerializedSubProgram14ConstantBufferENS2_9allocatorIS6_EEEE
w5b:__ZN12LightManager15InitializeClassEv
dbg:_WaitHandle__cctor_m4242752477
d$a:__ZN9ShaderLab11shaderprops16GetComputeBufferEPK19ShaderPropertySheetS3_NS_16FastPropertyNameE
Doj:__ZN6il2cpp6icalls8mscorlib6System10Reflection10MethodBase31GetMethodFromHandleInternalTypeEii
F_:__ZN18ScriptingArgumentsC2Ev
qjg:_Vector3_op_Equality_m4231250055
SCe:_Dictionary_2_System_Collections_IDictionary_get_Item_m1524611028_gshared
hIj:_emscripten_glBlendFuncSeparate__wrapper
QOh:__ZL68GUISettings_t1774757634_CustomAttributesCacheGenerator_m_CursorColorP21CustomAttributesCache
_Sd:_FileSystemInfo__ctor_m3769019897
e5h:_Array_InternalArray__get_Item_TisContentType_t1787303396_m421427711_gshared
Xtg:_Rect_get_xMin_m581135837_AdjustorThunk
Lua:__Z17HasSampledTexture14GraphicsFormat13formatSupport
cNb:__ZNK25CameraStackRenderingState27GetStereoImageEffectTextureEb
R3d:_HMACSHA384__ctor_m1677515580
Aif:_RIPEMD160Managed_J_m1336489154
sp:__ZN8Vector3f8TransferI14SafeBinaryReadEEvRT_
xWi:__ZN6il2cpp6icalls6System6System3Net7Sockets6Socket7ReceiveEiP11Il2CppArrayiiNS4_11SocketFlagsEPi
Ibc:__ZN13BuildSettings13GetSceneIndexERKN4core12basic_stringIcNS0_20StringStorageDefaultIcEEEE
wo:FUNCTION_TABLE_ii
SRa:__ZN10TagManager8TransferI18StreamedBinaryReadILb0EEEEvRT_
Bfh:_Collection_1_System_Collections_IList_get_IsReadOnly_m2202364665_gshared
irc:__Z18Transfer_BlittableI9JSONWriteLb0E8BitFieldEvRK29SerializationCommandArgumentsR31RuntimeSerializationCommandInfo
YUd:_MemoryStream_set_Capacity_m1773624579
k9i:__ZNK15dense_hashtableINSt3__24pairIK10KeyWrapperINS1_IP11Il2CppClassjEEES4_EES6_N6il2cpp8metadata14ArrayClassHashEN14dense_hash_mapIS6_S4_SB_NS6_14EqualsComparerINSA_17ArrayClassCompareEEENS0_9allocatorIS8_EEE9SelectKeyESF_SH_E10test_emptyEj
V_e:_SpriteState_set_pressedSprite_m3368686500_AdjustorThunk
Lia:__ZNSt3__26vectorIN9ShaderLab20SerializedSubProgram15StructParameterENS_9allocatorIS3_EEE8__appendEj
tb:invoke_diiii
PGj:b47
fOg:__Z95RuntimeInvoker_Void_t1185182177_RuntimeObject_RuntimeObject_SByte_t1669577662_SByte_t1669577662PFvvEPK10MethodInfoPvPS4_
wMa:__Z24CreateDirectoryRecursiveRKN4core12basic_stringIcNS_20StringStorageDefaultIcEEEE
BGj:b41
fla:__ZN9ShaderLab20SerializedSubProgram8TransferI18StreamedBinaryReadILb0EEEEvRT_
age:_SslClientStream_get_HaveRemoteValidation2Callback_m2858953511
AGj:b40
bga:__ZN19ThreadSpecificValueIP14StackAllocatorE15ReinitializeTLSEPv
cVb:__Z9EndJobSetR8JobFence11JobPriority
hKh:__ZL54ContextMenu_t1295656858_CustomAttributesCacheGeneratorP21CustomAttributesCache
g9:__ZN13RuntimeStaticI21ScalableBufferManagerLb0EE13StaticDestroyEPv
eNc:__ZN2UI13CanvasManager9AddCanvasEPNS_6CanvasE
Y8a:__ZN9Texture3D8TransferI19StreamedBinaryWriteILb0EEEEvRT_
HNb:__ZNK6Camera22CalculateRenderingPathEv
iLd:_Convert_ToInt64_m3758262873
Uvd:_Hashtable_TestPrime_m3839319309
fC:__ZN11UnityEngine9Animation37SetGenericRootTransformPropertyValuesERKNS0_30AnimatorGenericBindingConstantERKN7mecanim10ValueArrayER9Transformbb
VDa:__Z13ConvertMipmap14GraphicsFormatPKvS_Pviiii
M_c:_BaseRaycaster_get_renderOrderPriority_m1110184610
s7e:_PKCS12_get_IterationCount_m626423090
Xsb:__ZL12InvokeMethodI17RemapPPtrTransferEvRK29SerializationCommandArgumentsR31RuntimeSerializationCommandInfo
D9e:_RemoteCertificateValidationCallback_Invoke_m3086073466
Jrf:_StringComparer_Compare_m991165676
oDc:_tt_sbit_decoder_load_image
ike:_InternalEnumerator_1_MoveNext_m3299696349_AdjustorThunk
n7g:_List_1_System_Collections_ICollection_get_IsSynchronized_m1552759297_gshared
S9i:__ZN15dense_hashtableINSt3__24pairIK10KeyWrapperIP11Il2CppClassES4_EES5_N6il2cpp8metadata16SZArrayClassHashEN14dense_hash_mapIS5_S4_SA_NS5_14EqualsComparerINS9_19SZArrayClassCompareEEENS0_9allocatorIS7_EEE9SelectKeyESE_SG_EC2EjRKSA_RKSE_RKSI_
oki:_U3CStartU3Ec__Iterator0_Dispose_m261027331_gshared
UEa:__ZN4core8hash_mapIPK17RenderSurfaceBaseP13RenderTexture19PointerHashFunctionIS3_ENSt3__28equal_toIS3_EEE6insertERKNS8_4pairIKS3_S5_EE
Cmc:__ZNSt3__24listIN10GUIManager12SortedScriptE11memory_poolIS2_EE6__sortI13OldSortScriptEENS_15__list_iteratorIS2_PvEESA_SA_jRT_
fYf:_EqualityComparer_1_System_Collections_IEqualityComparer_GetHashCode_m2588073987_gshared
sfh:_Collection_1_System_Collections_IList_Add_m3364892189_gshared
P1g:_List_1_AddEnumerable_m3500350831_gshared
vVi:__ZN24dense_hashtable_iteratorINSt3__24pairIK10KeyWrapperIPK11Il2CppClassEPKcEES6_N6il2cpp5utils11PointerHashIS3_EEN14dense_hash_mapIS6_S9_SE_NS6_14EqualsComparerINS0_8equal_toIS5_EEEENS0_9allocatorISA_EEE9SelectKeyESJ_SL_E30advance_past_empty_and_deletedEv
J8d:_PrivateKeyInfo_get_PrivateKey_m3647771102
SUc:__ZN18UnityConnectClient12CloseServiceEv
K$h:__ZL68School_Before_t661293546_CustomAttributesCacheGenerator_femaleFriendP21CustomAttributesCache
Asb:__Z18Transfer_BlittableI17RemapPPtrTransferLb1E8BitFieldEvRK29SerializationCommandArgumentsR31RuntimeSerializationCommandInfo
hcj:__ZN6il2cpp6icalls8mscorlib6System9ThreadingL11ThreadStartEPv
Qea:__ZN15DirectorManager12OnSampleTimeEv
Fkd:_TypeBuilder_check_not_created_m3652863637
Opj:__GLOBAL__sub_I_Assembly_cpp_38211
L2c:_StandaloneInputModule_UpdateModule_m450861257
yKi:_Font_add_textureRebuilt_m2164317336
Yci:_ReadOnlyCollection_1_System_Collections_IList_Insert_m2928873627_gshared
eL:__ZNK4PPtrI10AudioMixerEptEv
xXf:_EqualityComparer_1__cctor_m314889309_gshared
c6:__ZN12CachedReader10Align4ReadEv
HUf:_DefaultComparer_GetHashCode_m556015105_gshared
xoi:_X501__cctor_m2428304915
HLi:_Canvas_get_renderOrder_m1489855841
SCg:__Z50RuntimeInvoker_Void_t1185182177_Single_t1397266774PFvvEPK10MethodInfoPvPS4_
SRh:__ZL77ExecuteEvents_t3484638744_CustomAttributesCacheGenerator_U3CU3Ef__mgU24cache1P21CustomAttributesCache
cxi:_Event_ToString_m1688862299
bNg:__Z70RuntimeInvoker_Boolean_t97287965_RuntimeObject_IPAddressU26_t589322682PFvvEPK10MethodInfoPvPS4_
URg:__Z105RuntimeInvoker_Void_t1185182177_Vector2U26_t2376273893_RuntimeObject_RuntimeObject_Vector2U26_t2376273893PFvvEPK10MethodInfoPvPS4_
ZJa:__ZNK9Behaviour22GetTypeVirtualInternalEv
sDf:_CCGregorianCalendar_month_from_fixed_m4268992710
xLf:_Array_compare_TisUICharInfo_t75501106_m1310495481_gshared
B3b:__ZNK28MonoBehaviourPropertyBinding12SetPPtrValueERKN11UnityEngine9Animation10BoundCurveEi
fXb:__Z21GetScriptingArraySize17ScriptingArrayPtr
CIc:__ZN20TextRenderingPrivate8FontImpl8TransferI14SafeBinaryReadEEvRT_
EKg:__Z51RuntimeInvoker_UInt32_t2560061978_Double_t594665363PFvvEPK10MethodInfoPvPS4_
$oh:__ZL55ISymbolWriter_t780458634_CustomAttributesCacheGeneratorP21CustomAttributesCache
snc:__ZN11IMGUIModule21ClearDeveloperConsoleEv
JMh:__ZL81MessageTypeSubscribers_t1684935770_CustomAttributesCacheGenerator_m_messageTypeIdP21CustomAttributesCache
lbi:_ReadOnlyCollection_1_System_Collections_IList_Clear_m4022532825_gshared
W5f:_Encoding_get_ASCII_m3595602635
ltg:_Ray_get_direction_m761601601_AdjustorThunk
Ara:__ZN9GfxDevice17ImmediateTexCoordEifff
THc:_ft_black_new
uhd:_DerivedType_GetCustomAttributes_m3536779709
nHi:__ZL24UnresolvedVirtualCall_72P12Il2CppObjectPK10MethodInfo
yyh:__ZL93Interlocked_t2273387594_CustomAttributesCacheGenerator_Interlocked_CompareExchange_m388540288P21CustomAttributesCache
Hld:_MethodBase_get_IsAbstract_m428833029
syd:_AssemblyLoadEventHandler__ctor_m896828968
ytb:__Z35Transfer_Blittable_FixedBufferFieldI24GenerateTypeTreeTransferhEvRK29SerializationCommandArgumentsR31RuntimeSerializationCommandInfo
bGj:_emscripten_glUniform4f__wrapper
j1g:_List_1_Reverse_m4144036584_gshared
P1f:_Enumerator_MoveNext_m2595190390_AdjustorThunk
VMf:_Array_InternalArray__IndexOf_TisColor32_t2600501292_m3783551884_gshared
jY:__ZNK6Camera16GetProjectionFarEv
Nq:__Z24InverseTransformRotationRK23TransformAccessReadOnlyRKN4math7_float4E
xpi:_X509Chain_Build_m2469702749
Rmf:_Evidence_get_IsSynchronized_m3446368195
VL:__ZN11AudioSource6UpdateEv
Uye:_Transform_1_EndInvoke_m1204015506_gshared
g1a:__ZNK14PlayableOutput11DerivesFromE17ScriptingClassPtr
t2a:__ZN7Texture34CreateFileTextureUploadInstructionE18TextureUploadFlagsj
e4e:_BitConverterLE_ULongFromBytes_m1677445591
WWa:__ZThn280_N31CanvasBatchIntermediateRenderer20OnAssetBoundsChangedEv
Dkd:_TypeBuilder_DefineConstructor_m2989882735
bPa:__ZN25SingleBlockMemoryFileDataC2E10MemLabelIdPvjb
PPh:__ZL59GUISkin_t1244372282_CustomAttributesCacheGenerator_m_toggleP21CustomAttributesCache
g3b:__ZN19LowerResBlitTexture13ApplySettingsEv
nD:__ZN8Animator8TransferI14SafeBinaryReadEEvRT_
C9i:__ZN15dense_hashtableINSt3__24pairIK10KeyWrapperIP11Il2CppClassES4_EES5_N6il2cpp8metadata16SZArrayClassHashEN14dense_hash_mapIS5_S4_SA_NS5_14EqualsComparerINS9_19SZArrayClassCompareEEENS0_9allocatorIS7_EEE9SelectKeyESE_SG_E4swapERSJ_
oQa:__ZN17GlobalGameManager23VirtualRedirectTransferER18StreamedBinaryReadILb0EE
UVb:__ZN27IntermediateRendererManager24GetIntermediateRenderersEi
x1:__Z23AsyncReadForceCloseFileRKN4core12basic_stringIcNS_20StringStorageDefaultIcEEEE
Ut:__ZN17AnimationPlayable34CollectAnimatorControllerPlayablesER13dynamic_arrayIP26AnimatorControllerPlayableLj4EE
PMh:__ZL120RenderPipelineManager_t4036911426_CustomAttributesCacheGenerator_RenderPipelineManager_DoRenderLoop_Internal_m3799666479P21CustomAttributesCache
PO:__ZN16BaseVideoTexture19UpdateVideoTexturesEv
fod:_MonoField_GetValue_m3124733531
cWa:__Z28BuildSingleStreamChannelInfo17ShaderChannelMaskRK20VertexChannelsLayoutS_S2_P11ChannelInfo
OKf:_Array_InternalArray__IEnumerable_GetEnumerator_TisOrderBlock_t1585977831_m2414028303_gshared
Rbe:_Context_set_HandshakeState_m1329976135
C6a:__ZN6Sprite23VirtualRedirectTransferER19StreamedBinaryWriteILb0EE
uCf:_Enum_GetHashCode_m2848082716
w$c:_EventTrigger_Execute_m2453060771
aei:_Comparison_1_Invoke_m517083441_gshared
sJg:__Z253RuntimeInvoker_Int32_t2950945753_RuntimeObject_Int32_t2950945753_Int32_t2950945753_RuntimeObject_Int32_t2950945753_UInt32U26_t3735378166_UInt32U26_t3735378166_RuntimeObject_DecoderFallbackBufferU26_t3866396827_ByteU5BU5DU26_t4057885439_SByte_t1669577662PFvvEPK10MethodInfoPvPS4_
k1i:__ZNK15dense_hashtableINSt3__24pairIK10KeyWrapperINS1_IPK9FieldInfoP11Il2CppClassEEEjEES9_17ReflectionMapHashIS8_EN14dense_hash_mapIS9_jSD_NS9_14EqualsComparerINS0_8equal_toIS8_EEEENS0_9allocatorISB_EEE9SelectKeyESI_SK_E5beginEv
Ona:__ZNK9ShaderLab7Program19HasMatchingVariantsERK13dynamic_arrayI16ShaderKeywordSetLj4EE
h9h:_ReadOnlyCollection_1_System_Collections_IList_get_IsFixedSize_m3402868227_gshared
jB:__ZN15SerializeTraitsIN4math4trsXEE8TransferI8BlobSizeEEvRS1_RT_
uva:__ZN14DataBufferGLES11CopySubDataEPKS_jjj
fe:_emscripten_glVertexPointer
gPc:__ZN2UI13PrepareOutputERNS_7BatchesEjjNS_30AdditionalCanvasShaderChannelsE
mZi:__ZN6il2cpp2vm7Runtime47RaiseExecutionEngineExceptionIfMethodIsNotFoundEPK10MethodInfo
fri:_PatternCompiler_GetMachineFactory_m3758869886
bTb:__Z17GetFrustumPortionPK8Vector3fffPS_
OJh:__ZL105RectTransform_t3704657025_CustomAttributesCacheGenerator_RectTransform_INTERNAL_get_anchorMin_m1735215721P21CustomAttributesCache
Tej:__ZN15dense_hashtableINSt3__24pairIK10KeyWrapperIP14Il2CppIUnknownEjEES5_N6il2cpp5utils11PointerHashIS3_EEN14dense_hash_mapIS5_jSB_NS5_14EqualsComparerINS0_8equal_toIS4_EEEENS0_9allocatorIS7_EEE9SelectKeyESG_SI_E14squash_deletedEv
N$c:_EventTrigger_OnCancel_m585099428
qxh:__ZL107CodeAccessPermission_t2681295399_CustomAttributesCacheGenerator_CodeAccessPermission_GetHashCode_m880096813P21CustomAttributesCache
oyi:_GUILayoutEntry_ApplyOptions_m1741659338
lIe:_MethodDictionary_set_MethodKeys_m1451825752
v0d:_RuntimeTypeHandle_Equals_m2857439487_AdjustorThunk
zfh:_Collection_1_System_Collections_ICollection_get_SyncRoot_m1659213062_gshared
rpa:__ZNK9GfxDevice27GetPlatformAdjustedViewportEv
s8h:_ReadOnlyCollection_1_System_Collections_Generic_IListU3CTU3E_set_Item_m88350439_gshared
PCi:_SceneSelector_Start_m2972696915
kfi:_Func_3_Invoke_m1194147890_gshared
Qti:_Reference_Compile_m4195878675
Gai:_ReadOnlyCollection_1_System_Collections_ICollection_CopyTo_m2672196987_gshared
b9b:__ZN16StreamedResource8TransferI24GenerateTypeTreeTransferEEvRT_
Pug:_RectTransform_get_anchorMin_m2928307238
SCd:_ArrayList__ctor_m3828927650
Cta:__ZThn9568_N13GfxDeviceGLES26EnableScissorRectsPlatformEv
DGa:__ZN10Matrix3x3f15InvertTransposeEv
Ayi:_GUILayoutGroup_SetHorizontal_m996475327
Tnf:_SecurityException_get_Demanded_m2500043391
ryi:_GUILayoutEntry__cctor_m663865902
$ff:_CaptureCollection_GetEnumerator_m732412500
jLb:__Z11IsBatchmodev
s0f:_Enumerator_System_Collections_IEnumerator_get_Current_m713684915_gshared
xrb:__Z29Transfer_Blittable_ArrayFieldI14SafeBinaryRead8Vector3fEvRT_R9ArrayInfoRK23StaticTransferFieldInfo
emd:_MemberInfo__ctor_m3258770133
pvh:__ZL62IFormatterConverter_t2171992254_CustomAttributesCacheGeneratorP21CustomAttributesCache
kAh:__ZL78Convert_t2465617642_CustomAttributesCacheGenerator_Convert_ToSByte_m4075629912P21CustomAttributesCache
IKe:_SoapTypeAttribute_get_XmlTypeNamespace_m4211398148
rJc:__ZN20TextRenderingPrivate8FontImpl18ResetCachedTextureEv
QXi:__ZN6il2cpp6icalls8mscorlib6SystemL16GetFieldFromTypeINS_5utils10functional6FilterINSt3__212basic_stringIcNS7_11char_traitsIcEENS7_9allocatorIcEEEENS4_13VmStringUtils21CaseSensitiveComparerEEEEEP21Il2CppReflectionFieldP11Il2CppClassSK_iRKT_
Hkc:__Z27Screen_Get_Custom_PropWidthv
orj:_GC_print_finalization_stats
foa:__ZN11NamedObject15ThreadedCleanupEv
fzi:_GUITargetAttribute_GetGUITargetAttrValue_m2954410352
Wec:__Z53Register_UnityEngine_Behaviour_get_isActiveAndEnabledv
jyd:_SimpleEnumerator_get_Current_m72361444
hq:__ZNSt3__26vectorIN4core12basic_stringIcNS1_20StringStorageDefaultIcEEEENS_9allocatorIS5_EEE8__appendEj
cP:__ZN13ProduceHelperI10SampleClipLb0EE7ProduceE10MemLabelId18ObjectCreationMode
geb:__ZN26PlayerSettingsSplashScreen8TransferI17RemapPPtrTransferEEvRT_
Q3e:_ASN1_set_Value_m2803403806
XXi:__ZN6il2cpp6icalls8mscorlib6SystemL17CollectTypeFieldsINS_5utils10functional10TrueFilterEEEvP11Il2CppClassPKS7_iRNSt3__26vectorIP9FieldInfoNSB_9allocatorISE_EEEERKT_
pDg:__Z52RuntimeInvoker_Int16_t2552820387_Decimal_t2948259380PFvvEPK10MethodInfoPvPS4_
F1b:__Z13GetTagManagerv
Nvd:_Hashtable__ctor_m1815022027
R8f:_UTF8Encoding_GetChars_m1433288684
_Ni:__ZL10roundUp128PyS_
jR:__ZN11UnityEngine15CloudWebService17CloudJobSchedulerD0Ev
ABg:__Z50RuntimeInvoker_Boolean_t97287965_SByte_t1669577662PFvvEPK10MethodInfoPvPS4_
Ghe:_ArrayReadOnlyList_1_Contains_m381552673_gshared
CWg:__Z105RuntimeInvoker_Int32_t2950945753_RuntimeObject_OrderBlock_t1585977831_Int32_t2950945753_Int32_t2950945753PFvvEPK10MethodInfoPvPS4_
zcg:_TimeZone_ToUniversalTime_m2789507578
OCg:__Z96RuntimeInvoker_Boolean_t97287965_RuntimeObject_RuntimeObject_Int32_t2950945753_Int32_t2950945753PFvvEPK10MethodInfoPvPS4_
ZLf:_Array_IndexOf_TisUICharInfo_t75501106_m3198896198_gshared
CNc:__ZNK2UI11CanvasGroup22GetTypeVirtualInternalEv
bde:_Context_get_Current_m2853615040
REf:_CultureInfo_construct_internal_locale_from_lcid_m2668301444
t3e:_PrimeGeneratorBase__ctor_m2973488305
Wmc:__Z21CleanupGlobalGUIStatev
Bdg:_Type_IsContextfulImpl_m3693603908
Rlh:__ZL81RuntimeArray_CustomAttributesCacheGenerator_Array_GetValue_m120423883____indices0P21CustomAttributesCache
AOh:__ZL79Event_t2956885303_CustomAttributesCacheGenerator_Event_get_modifiers_m995073384P21CustomAttributesCache
k1f:_Enumerator_VerifyState_m2873941769_gshared
MAb:__Z18Transfer_BlittableI18StreamedBinaryReadILb0EELb1EN4math12int3_storageEEvRK29SerializationCommandArgumentsR31RuntimeSerializationCommandInfo
zAg:__Z56RuntimeInvoker_RuntimeObject_RuntimeObject_RuntimeObjectPFvvEPK10MethodInfoPvPS4_
aIa:__ZN22VertexDeclarationCache5ClearEv
a2d:_CspParameters__ctor_m3852972821
Zvd:_AppDomainInitializer_EndInvoke_m2095010821
g_b:__ZN17PersistentManager12SetPathRemapERKN4core12basic_stringIcNS0_20StringStorageDefaultIcEEEES6_
xw:__Z27ProcessRootMotionEmptyMixerP35AnimationPlayableEvaluationConstantP32AnimationPlayableEvaluationInputP33AnimationPlayableEvaluationOutput
EUb:__ZN6Camera24PrepareCullingParametersERK23CameraCullingParameters13RenderingPathR11CullResults
ubc:__Z12SetIUISystemP9IUISystem
zgb:__ZN19RuntimeSceneManager22EndIntegrateMainThreadEP10UnitySceneNS_11LoadingModeE
f2h:_Array_Sort_TisUICharInfo_t75501106_m3474449559_gshared
frg:__ZN21InterfaceFuncInvoker0IP34MessageTypeSubscribers_t1684935770E6InvokeEjP11Il2CppClassP12Il2CppObject
IAi:_ChoiceScript_AfterDialogue_m2637378098
Zsb:__Z26Transfer_UnityEngineObjectI17RemapPPtrTransferLb0EEvRK29SerializationCommandArgumentsR31RuntimeSerializationCommandInfo
rkb:__ZN17WeakPtrSharedDataD0Ev
csi:_QuickSearch_GetShiftDistance_m2542665852
N9a:__Z32TransferEnumWithNameForceIntSizeI14SafeBinaryRead11IndexFormatEvRT_RT0_PKc17TransferMetaFlags
F4h:_Array_InternalArray__get_Item_TisCustomAttributeTypedArgument_t2723150157_m2639399822_gshared
f2e:_BigInteger_GenerateRandom_m3141592944
svb:__Z29Transfer_Blittable_ArrayFieldI24GenerateTypeTreeTransfer4AABBEvRT_R9ArrayInfoRK23StaticTransferFieldInfo
Khf:_Interval_Contains_m1454846757
cad:_Graphic_CacheCanvas_m1120385152
bte:_InternalEnumerator_1_MoveNext_m1262906009_gshared
Z8c:_U3CDelayedDestroyDropdownListU3Ec__Iterator0_Dispose_m100123149
eyj:_emscripten_GetProcAddress
JJi:__ZL25UnresolvedVirtualCall_202P12Il2CppObject23SpriteState_t1362986479PK10MethodInfo
q2f:_List_1_System_Collections_Generic_IEnumerableU3CTU3E_GetEnumerator_m944444416_gshared
Ca:invoke_fiiifii
Azj:_modff
BYa:__ZN20SphericalHarmonicsL219AddDirectionalLightERKN4math7_float3ERKNS0_7_float4E
dff:_X509ChainElementCollection_get_IsSynchronized_m3980338507
Hea:__Z26ScheduleJobForEachInternalR8JobFencePFvPvjES1_iPFvS1_E11JobPriority
WKb:__ZZ23InitPlayerLoopCallbacksvEN41PostLateUpdateProfilerEndFrameRegistrator7ForwardEv
Sbc:__ZN9Scripting18RaiseMonoExceptionEPKcz
cNc:__ZN2UI13UIInstruction19ClearSharedMeshDataER8JobFence
R7b:__ZN10GameObject17WillHandleMessageERK17MessageIdentifier
Hmf:_StrongNamePublicKeyBlob_Equals_m3655422942
Enf:_SecurityContext__ctor_m1730177197
UMi:_RectTransformUtility_GetTransposed_m3952754222
V5b:__ZN9ShaderLab16FastPropertyName15InitBy28BitHashEj
VPi:__ZN6il2cpp2vm5Class7GetNameEP11Il2CppClass
N0g:_List_1_System_Collections_IList_set_Item_m4182383657_gshared
RWf:_EqualityComparer_1_System_Collections_IEqualityComparer_GetHashCode_m3723747923_gshared
k1h:_Array_Resize_TisOrderBlock_t1585977831_m3449774576_gshared
WFg:__Z96RuntimeInvoker_Void_t1185182177_Int32_t2950945753_Single_t1397266774_RuntimeObject_RuntimeObjectPFvvEPK10MethodInfoPvPS4_
a7h:_ReadOnlyCollection_1_CopyTo_m3722791265_gshared
PWg:__Z59RuntimeInvoker_Int32_t2950945753_KeyValuePair_2_t3699644050PFvvEPK10MethodInfoPvPS4_
Kve:_Enumerator_System_Collections_IDictionaryEnumerator_get_Key_m195047678_AdjustorThunk
Tvf:_DateTimeFormatInfo_get_RawAbbreviatedMonthNames_m2395953416
GLi:_Canvas_get_pixelPerfect_m333060872
Y9a:__ZN17PackedFloatVector12UnpackFloatsEPfiiii
Tld:_TypeBuilder_ToString_m3497908325
Cz:__ZN17AnimationPlayable28UpdateInternalStateRecursiveILi3ELb0EEEvPK35AnimationPlayableEvaluationConstant
Asa:__ZN13GfxDeviceGLES21DestroyComputeProgramER12ObjectHandleI18ComputeProgram_TagPvE
Bri:_PatternCompiler_EmitIfDefined_m2075050865
Xxf:_Decimal_System_IConvertible_ToInt64_m1446427516_AdjustorThunk
uca:__ZN17UniqueIDGenerator16DestroyPureIndexEj
Z_d:_NotImplementedException__ctor_m3095902440
T$:__ZL21AppendNestedClassName17ScriptingClassPtrRN4core17string_with_labelILi1EEE
sia:__ZN14SafeBinaryRead21TransferSTLStyleArrayINSt3__26vectorIN9ShaderLab20SerializedSubProgram12UAVParameterENS1_9allocatorIS5_EEEEEEvRT_17TransferMetaFlags
BKi:_FontTextureRebuildCallback_Invoke_m3604797831
uta:__ZN13GfxDeviceGLES32InitStereoGlobalsBuffersPlatformEiijPKv
QV:__ZNK13BaseAllocator10IsAssignedEv
sS:__ZN24TextDOMTransferWriteBaseI9JSONWriteE12PushMetaFlagEi
zth:__ZL59_PropertyBuilder_t1366136710_CustomAttributesCacheGeneratorP21CustomAttributesCache
sE:__ZZN8Animator15InitializeClassEvEN31FunctorImpl_420kDidDeleteMotion4CallEPviR11MessageData
fBa:__ZN6prcoreL26RemapGenericIntegerToFloatI17TexFormatARGB888815TexFormatRFloatEEvPKNS_9InnerInfoE
dW:__ZN5Mutex6UnlockEv
pXi:__ZN6il2cpp2vm10ThreadPool10InitializeEv
l4g:_List_1__ctor_m808270210_gshared
j$i:__ZN6il2cpp2vm17TypeNameParseInfoD2Ev
j_f:_PrimeHelper_ToPrime_m3704362632_gshared
WI:__ZN4FMOD7Channel7setModeEj
Fxf:_Decimal_System_IConvertible_ToType_m2919262279
kzg:_Vector2_get_right_m1027081661
sX:__ZNK8Renderer8GetLayerEv
VVd:_Stream_Close_m771352034
Kte:__ZN21InterfaceFuncInvoker1Ii19TimeSpan_t881159249E6InvokeEjP11Il2CppClassP12Il2CppObjectS0_
Dy:__ZN7mecanim9animation22DestroyBlendTreeOutputEPNS0_15BlendTreeOutputERNS_6memory9AllocatorE
oPb:__ZNK6Camera20GetReplacementShaderEv
l7g:_List_1_System_Collections_IList_Remove_m4226673807_gshared
Cvj:__ZNSt3__26__treeINS_12__value_typeINS_12basic_stringIcNS_11char_traitsIcEENS_9allocatorIcEEEEPFvvEEENS_19__map_value_compareIS7_SA_NS_4lessIS7_EELb1EEENS5_ISA_EEE4findIS7_EENS_15__tree_iteratorISA_PNS_11__tree_nodeISA_PvEEiEERKT_
uya:__ZL23stbir__calculate_memoryP11stbir__info
G2i:__ZNK15dense_hashtableINSt3__24pairIK10KeyWrapperINS1_IPK10MethodInfoP11Il2CppClassEEEjEES9_17ReflectionMapHashIS8_EN14dense_hash_mapIS9_jSD_NS9_14EqualsComparerINS0_8equal_toIS8_EEEENS0_9allocatorISB_EEE9SelectKeyESI_SK_E12test_deletedERK24dense_hashtable_iteratorISB_S9_SD_SM_SI_SK_E
Ugf:_Interpreter_Close_m126356671
Edh:_Collection_1_InsertItem_m168969280_gshared
uNc:__ZNSt3__227__insertion_sort_incompleteIRPFbPN2UI6CanvasES3_EPS3_EEbT0_S8_T_
r9a:__ZNK6Camera18GetRenderRectangleEv
dUi:__ZN6il2cpp5utils13dynamic_arrayIPK10Il2CppTypeLj4EE7reserveEj
N7a:__ZN13sorted_vectorIN4core12basic_stringIcNS0_20StringStorageDefaultIcEEEENSt3__24lessIS4_EE13stl_allocatorIS4_L18MemLabelIdentifier81ELi16EEE4findIS4_EENS5_11__wrap_iterIPS4_EERKT_
usi:_Parser_HandleExplicitNumericGroups_m1412234891
c5h:_Array_InternalArray__get_Item_TisRaycastHit2D_t2279581989_m2440275162_gshared
zfd:_CustomAttributeNamedArgument_Equals_m1414002036
buc:__ZL26Transfer_SimpleNativeClassI8JSONRead10RectOffsetLb1EEvRK29SerializationCommandArgumentsR31RuntimeSerializationCommandInfo
mpg:_Material_SetInt_m475299667
QQc:__Z44CanvasRenderer_CUSTOM_INTERNAL_CALL_SetColorP12Il2CppObjectRK10ColorRGBAf
Jid:_FieldBuilder_GetFieldOffset_m725157755
vAe:_Enumerator_MoveNext_m3045873697_AdjustorThunk
I$f:_Enumerator_System_Collections_IEnumerator_Reset_m959124362_AdjustorThunk
gCf:_Enum_ToObject_m121831801
sFh:__ZL57AsyncOperation_t1445031843_CustomAttributesCacheGeneratorP21CustomAttributesCache
rcd:_Image_get_hasBorder_m3423344180
Sqc:__Z18Transfer_BlittableI9JSONWriteLb1EsEvRK29SerializationCommandArgumentsR31RuntimeSerializationCommandInfo
j2:__ZN6ObjectD2Ev
Acc:__ZN9Transform16SetLocalRotationERK11Quaternionf
y9c:_FontData_set_richText_m993590067
FLb:__ZN13RenderManager37RenderCamerasWithScriptableRenderLoopEi
h0d:_RuntimeMethodHandle__ctor_m2229201676
pbg:_TimeSpan__ctor_m3689759052
hkh:__ZL49UInt16_t2177724958_CustomAttributesCacheGeneratorP21CustomAttributesCache
sB:__ZN7mecanim8skeleton25SkeletonPoseComputeLocalQEPKNS0_8SkeletonEPKNS0_13SkeletonPoseTIN4math4trsXEEEPS7_ii
L$g:__Z37RuntimeInvoker_Enumerator_t3123848928PFvvEPK10MethodInfoPvPS4_
_hj:__ZN6il2cpp2os19ReleaseSocketHandleEj
aO:__ZN11AudioModule16GetDSPSampleRateEv
nnj:__ZN15dense_hashtableINSt3__24pairIK10KeyWrapperIPK19Il2CppGenericMethodEP10MethodInfoEES6_N6il2cpp8metadata23Il2CppGenericMethodHashEN14dense_hash_mapIS6_S9_SD_NS6_14EqualsComparerINSC_26Il2CppGenericMethodCompareEEENS0_9allocatorISA_EEE9SelectKeyESH_SJ_E5clearEv
_8b:__ZN16PropertyAccessor5ClearEv
vIb:__ZN15InstancingProps11NewConstantERKN9ShaderLab16FastPropertyNameEj15ShaderParamTypehhjjP6Object
GHe:_AsyncResult_get_AsyncDelegate_m3808237550
vcd:_Image_OnBeforeSerialize_m3415525254
bPe:_InputField_get_characterValidation_m4196664041
Hcg:_Type_get_Attributes_m58528356
HPb:__ZN6Camera28DefaultPerformRenderFunctionD0Ev
ytd:_Array_GetUpperBound_m4018715963
eqi:_X509Store__ctor_m2736551756
$jj:__ZN6il2cpp2os5posix15PosixWaitObjectC2ENS2_4TypeE
BNb:__ZN6Camera21PostMultiCustomRenderENS_10RenderFlagEb
eQf:_Array_InternalArray__Insert_TisMonoResource_t4103430009_m1997865927_gshared
Dkf:_SHA512Managed_HashFinal_m2173184560
cif:_RIPEMD160__ctor_m860963627
jIb:__ZN23ShaderVariantCollection13WarmupShadersEv
ZYb:__ZNK4PPtrI8MaterialEptEv
Y3b:__ZN13ProduceHelperI9TransformLb0EE7ProduceE10MemLabelId18ObjectCreationMode
Wfe:_SslStreamBase_Finalize_m3260913635
B$:__Z25GetCommonScriptingClassesv
Xgb:__Z27scripting_gc_collect_unsafei
j8d:_MD5SHA1_HashFinal_m4115488658
fO:__ZN11AudioModule20SuspendVideoTexturesEv
BNf:_Array_InternalArray__ICollection_Add_TisKeyValuePair_2_t71524366_m3468275433_gshared
MFi:_AudioSettings_InvokeOnAudioManagerUpdate_m4044425648
hQ:__Z59Register_UnityEngine_AudioExtensionManager_GetAudioListenerv
kph:__ZL78Calendar_t1661121569_CustomAttributesCacheGenerator_Calendar_Clone_m1356182658P21CustomAttributesCache
Lub:__Z26Transfer_UnityEngineObjectI24GenerateTypeTreeTransferLb0EEvRK29SerializationCommandArgumentsR31RuntimeSerializationCommandInfo
yKd:_Convert_ToDouble_m278900635
dAc:_UNITY_FT_GlyphLoader_CheckPoints
Nlg:_DebugLogHandler_LogException_m302830419
E_d:_MonoType_get_Module_m2397868165
YQe:_InputField_LineDownCharacterPosition_m2798128425
h_f:_PrimeHelper_TestPrime_m2318568626_gshared
poh:__ZL63KeyNotFoundException_t2292407383_CustomAttributesCacheGeneratorP21CustomAttributesCache
kxe:_Enumerator_System_Collections_IDictionaryEnumerator_get_Value_m684446183_AdjustorThunk
wUa:__ZN15SharedLightData7PrecalcEv
K1:__ZN10Matrix4x4fmLERKS_
Cq:__ZN4PPtrI9TransformE8TransferI18StreamedBinaryReadILb0EEEEvRT_
Btg:_Vector2__ctor_m3970636864
hyb:__Z35Transfer_Blittable_FixedBufferFieldI18StreamedBinaryReadILb1EEsEvRK29SerializationCommandArgumentsR31RuntimeSerializationCommandInfo
dR:__ZNK4PPtrI4MeshEdeEv
DCf:_Environment_InternalGetFolderPath_m468390978
VNa:__ZN15ArchiveReadFileD0Ev
gCh:__ZL65StackOverflowException_t3629451388_CustomAttributesCacheGeneratorP21CustomAttributesCache
y3g:_List_1_System_Collections_Generic_ICollectionU3CTU3E_get_IsReadOnly_m2562366358_gshared
m8d:_RSASslSignatureFormatter__ctor_m1299283008
eUc:__ZN11UnityEngine15PlatformWrapper18GetOperatingSystemEv
toa:__ZNSt3__26vectorIP14DataBufferGLESNS_9allocatorIS2_EEE21__push_back_slow_pathIKS2_EEvRT_
mof:_SecurityFrame_ToString_m339310712
BCh:__ZL54ThreadStart_t1006689297_CustomAttributesCacheGeneratorP21CustomAttributesCache
unh:__ZL62ParamArrayAttribute_t3664765590_CustomAttributesCacheGeneratorP21CustomAttributesCache
Fuc:__ZN8GUIStyle8TransferI8JSONReadEEvRT_
zJh:__ZL98Transform_t3600365921_CustomAttributesCacheGenerator_Transform_INTERNAL_set_localScale_m1089294020P21CustomAttributesCache
_yi:_GUIStyleState_t1397964415_marshal_pinvoke
vp:__ZN15SerializeTraitsI13dynamic_arrayIiLj4EEE19ResizeSTLStyleArrayERS1_i
A1h:_Array_Resize_TisVector4_t3319028937_m1507893064_gshared
xyh:__ZL94Interlocked_t2273387594_CustomAttributesCacheGenerator_Interlocked_CompareExchange_m3023855514P21CustomAttributesCache
Sjf:_SHA1Managed_HashFinal_m2365675383
m3c:_TouchInputModule_ProcessTouchPress_m3504077560
HZe:_Selectable_IsInteractable_m2611421038
Izc:_FT_MSB
fWf:_EqualityComparer_1_get_Default_m2572737998_gshared
nKj:_emscripten_glReadPixels__wrapper
A_f:_HashSet_1_Add_m1971460364_gshared
Svj:__ZN6il2cpp6icalls8mscorlib4Mono8Security12Cryptography18KeyPairPersistence10_CanSecureEP12Il2CppString
R7d:_MD4__ctor_m919379109
KHf:_Array_InternalArray__ICollection_Contains_TisParameterModifier_t1461694466_m1000453323_gshared
Krh:__ZL57FieldAttributes_t400321159_CustomAttributesCacheGeneratorP21CustomAttributesCache
qSf:_Dictionary_2_System_Collections_ICollection_CopyTo_m4047192178_gshared
SZi:__ZN6il2cpp2os4File11GetFileStatERKNSt3__212basic_stringIcNS2_11char_traitsIcEENS2_9allocatorIcEEEEPNS0_8FileStatEPi
eif:_RIPEMD160Managed_Initialize_m2173168986
muh:__ZL54IMessageCtrl_t317049502_CustomAttributesCacheGeneratorP21CustomAttributesCache
I5b:__ZN9TransformC2E10MemLabelId18ObjectCreationMode
Moa:__ZN13GfxDeviceGLES14SetRasterStateEPK17DeviceRasterState
ged:_Assembly_ToString_m2053237013
dpb:__Z30TransferField_LinearCollectionI14SafeBinaryReadEvRK29SerializationCommandArgumentsR31RuntimeSerializationCommandInfo
Rpg:_Vector4_Equals_m1779210055
rAf:_Exception_set_HResult_m3489164646
ZBc:_otv_Coverage_get_count
Wpd:_ParameterModifier_t1461694466_marshal_pinvoke_back
B2:__ZN14SafeBinaryRead11EndTransferEv
IYf:_EqualityComparer_1__cctor_m2741186979_gshared
xpb:__ZN14SafeBinaryRead8TransferI8MonoPPtrEEvRT_PKc17TransferMetaFlags
EEh:__ZL70Uri_t100236324_CustomAttributesCacheGenerator_Uri_Unescape_m3373094076P21CustomAttributesCache
TYe:_ScrollRect_set_verticalNormalizedPosition_m1452826170
YBf:_Enum_System_IConvertible_ToUInt16_m4216751959
RQg:__Z61RuntimeInvoker_Boolean_t97287965_PlayableHandleU26_t645981773PFvvEPK10MethodInfoPvPS4_
kGa:__ZN21UniformBufferTFMethod13MapBoneBufferEj
XPf:_Array_InternalArray__Insert_TisInt32_t2950945753_m4073217122_gshared
Hif:_RNGCryptoServiceProvider_RngClose_m3915778345
AId:_SortedList_Remove_m2784369438
sxa:__ZN4crnd12crn_unpacker10unpack_dxnEPPhjjj
Nuf:_DateTime_get_Kind_m2154871796_AdjustorThunk
sFb:__ZN9TextAsset15ThreadedCleanupEv
Uqi:_MatchCollection_get_SyncRoot_m1957585059
j0:__ZN14SerializedFileD2Ev
Iea:__Z21CompleteFenceInternalR8JobFence
Dnc:__Z30Event_Get_Custom_PropModifiersP12Il2CppObject
f0g:__Z79RuntimeInvoker_RuntimeObject_OrderBlock_t1585977831_RuntimeObject_RuntimeObjectPFvvEPK10MethodInfoPvPS4_
hu:__ZN7mecanim9animation16CreateClipOutputEPKNS0_4ClipERNS_6memory9AllocatorE
pKe:_SoapAttribute_SetReflectionObject_m4109300849
DVe:_RawImage_get_mainTexture_m2396337033
f0i:__ZN6il2cpp2vm10Reflection17GetAssemblyObjectEPK14Il2CppAssembly
wsf:_DecoderFallbackBuffer_Reset_m3069554060
XCb:__ZNSt3__218__stable_sort_moveIRN10vector_mapI17ScriptingClassPtrPKN5Unity4TypeENS_4lessIS2_EENS_9allocatorINS_4pairIS2_S6_EEEEE13value_compareENS_11__wrap_iterIPSB_EEEEvT0_SJ_T_NS_15iterator_traitsISJ_E15difference_typeEPNSM_10value_typeE
Wga:__ZN6Shader21AwakeFromLoadThreadedEv
rCi:_U3CCrossFadeU3Ec__Iterator0_System_Collections_IEnumerator_get_Current_m2922412327
hAa:__ZN6prcoreL17RemapGenericFloatI17TexFormatRGBFloat17TexFormatRGBAHalfEEvPKNS_9InnerInfoE
a2e:_BigInteger__ctor_m3991350270
Zyg:_Vector2_GetHashCode_m3916089713_AdjustorThunk
kZc:__ZN13RuntimeStaticINSt3__26vectorIjNS0_9allocatorIjEEEELb0EE16StaticInitializeEPv
TT:__ZN13UploadHandler10OnSentDataEj
cxj:__ZN6il2cpp2os9SemaphoreC2Eii
zpb:__ZNSt3__26vectorI8MonoPPtr13stl_allocatorIS1_L18MemLabelIdentifier1ELi16EEE8__appendEj
eOb:__ZN14qsort_internal30FindAndMovePivotToLastPositionIP17RODataReplacementi19ROSorterReplacementEEvT_S4_T0_T1_
vGa:__ZN15UniformTFMethod20IsBoneCountSupportedEi
d8h:_ReadOnlyCollection_1_System_Collections_IList_get_Item_m3076053687_gshared
Ugg:_UnauthorizedAccessException__ctor_m246605039
b5b:__Z12BuildTextureIA4_tPFvP9Texture2DPS0_iiiiEES2_PKcii13TextureFormatRKT0_17TextureColorSpaceb
RDj:dynCall_viidi
Jt:__ZN8Playable18OnApplicationPauseEb
R_:__ZN24ScriptingMethodFiltering17FilterOnSignatureENS_18MethodSearchFilterE
fli:_ListPool_1_U3Cs_ListPoolU3Em__0_m2283646495_gshared
GZb:__ZN18ScreenManagerWebGL13SetLockCursorE14CursorLockMode
qae:_CipherSuite_DecryptRecord_m1495386860
Voi:_X509Certificate_VerifySignature_m3538124832
ZVd:_StreamAsyncResult_SetComplete_m1102187093
zui:_CharacterClass_GetIntervalCost_m4036989868
w3b:__ZN13MonoBehaviour19HandleNotificationsEPviR11MessageData
yug:_RectOffset_Init_m2028508611
Fxj:__ZN6il2cpp2os9EventImpl5ResetEv
X5g:_List_1_Sort_m933660666_gshared
u9d:_Alert__ctor_m3135936936
oQd:_Int64_System_IConvertible_ToInt32_m772105781
Mli:_TlsClientSettings__ctor_m3220697265
g4i:__ZNK15dense_hashtableINSt3__24pairIK10KeyWrapperINS1_IPK9EventInfoP11Il2CppClassEEEjEES9_17ReflectionMapHashIS8_EN14dense_hash_mapIS9_jSD_NS9_14EqualsComparerINS0_8equal_toIS8_EEEENS0_9allocatorISB_EEE9SelectKeyESI_SK_E23find_position_with_hashERSA_j
cui:_CaptureAssertion_set_CapturingGroup_m2003123956
kHj:b58
YRg:__Z103RuntimeInvoker_Boolean_t97287965_RuntimeObject_Vector2_t2156229523_RuntimeObject_Vector2U26_t2376273893PFvvEPK10MethodInfoPvPS4_
IRf:_Dictionary_2_make_pair_m2250450206_gshared
y6f:_ForwardingDecoder_GetChars_m4228908854
nhf:_InterpreterFactory_get_GroupCount_m2226373271
dHj:b53
SGj:b50
TGj:b51
iHj:b56
jHj:b57
gHj:b54
hHj:b55
y3f:_List_1_System_Collections_IList_get_IsReadOnly_m3531293387_gshared
FL:__ZN4PPtrI15AudioMixerGroupE8TransferI18StreamedBinaryReadILb0EEEEvRT_
W0e:_SimpleCollator_IsSafe_m310268646
_Kf:_Array_InternalArray__IEnumerable_GetEnumerator_TisWorkRequest_t1354518612_m2622205355_gshared
vAd:_Byte_System_IConvertible_ToByte_m162267264_AdjustorThunk
Jtd:_X509Certificate_get_RawData_m2387471414
PIj:_glDetachShader__wrapper
qyd:_ArrayTypeMismatchException__ctor_m3375008173
Dye:_Transform_1_BeginInvoke_m1757796657_gshared
G$i:__ZNSt3__214__split_bufferINS_12basic_stringIcNS_11char_traitsIcEENS_9allocatorIcEEEERNS4_IS6_EEEC2EjjS8_
m$f:_KeyValuePair_2__ctor_m1794021352_AdjustorThunk
uWg:__Z88RuntimeInvoker_Int32_t2950945753_UIVertex_t4057497605_UIVertex_t4057497605_RuntimeObjectPFvvEPK10MethodInfoPvPS4_
k7b:__ZN10GameObject12CleanupClassEv
Apa:__ZN9GfxDevice25SetShaderPropertiesSharedERK19ShaderPropertySheet
f4c:_BaseMeshEffect_get_graphic_m1852367505
LFd:_CaseInsensitiveHashCodeProvider_GetHashCode_m2168170016
cFb:__ZN10MonoScript17MainThreadCleanupEv
yrf:_String_CreateString_m3400201881
Wre:_InternalEnumerator_1_Dispose_m28687982_AdjustorThunk
E6b:__ZL25InitializeDefaultMaterialv
qRc:__Z53Register_UnityEngine_CanvasRenderer_get_materialCountv
kld:_PropertyBuilder_GetCustomAttributes_m3798356764
DTd:_Stream__ctor_m3881936881
_pd:_PropertyInfo_get_MemberType_m2794839864
DOa:__ZN19FileAccessorHandlerD2Ev
Y1f:_Enumerator_Dispose_m2367589020_AdjustorThunk
Gue:_Comparer_1_System_Collections_IComparer_Compare_m4179495191_gshared
gMa:__ZN17PersistentManager12UnloadStreamERKN4core12basic_stringIcNS0_20StringStorageDefaultIcEEEEb
UOa:__ZN10MemoryFile4ReadEyyPvPy
CQf:_Array_InternalArray__Insert_TisUICharInfo_t75501106_m2924156520_gshared
JXf:_EqualityComparer_1_System_Collections_IEqualityComparer_Equals_m3139704160_gshared
rNf:_MonoProperty_GetterAdapterFrame_TisRuntimeObject_TisRuntimeObject_m458718082_gshared
W5a:__ZN13ScreenManager17RequestResolutionEiibi
n8i:_il2cpp_unity_liveness_calculation_from_statics
Qx:__ZNK26AnimatorControllerPlayable11DerivesFromE17ScriptingClassPtr
mKe:_SoapAttribute__ctor_m1857608874
bse:_InternalEnumerator_1_System_Collections_IEnumerator_get_Current_m2649471526_gshared
NWf:_EqualityComparer_1_System_Collections_IEqualityComparer_Equals_m3218482536_gshared
X5:__ZN8Renderer8TransferI17RemapPPtrTransferEEvRT_
uli:_InternalAsyncResult_get_AsyncState_m1436290550
Sie:_InternalEnumerator_1_Dispose_m2018798800_AdjustorThunk
_oa:__ZN13GfxDeviceGLES26UpdateViewProjectionMatrixEv
Gve:_Enumerator_System_Collections_IDictionaryEnumerator_get_Entry_m522483686_gshared
X5e:_PrivateKeyInfo_RemoveLeadingZero_m3921889925
Z9f:_Thread_get_CurrentContext_m1695017876
I5h:_Mesh_GetAllocArrayFromChannel_TisColor32_t2600501292_m3180365313_gshared
mHi:__ZL24UnresolvedVirtualCall_71P12Il2CppObjectS0_S0_iS0_S0_S0_PK10MethodInfo
EXb:__Z24LookRotationToQuaternionRK8Vector3fS1_P11Quaternionf
CXb:__ZN16ReflectionProbes9GetCameraEv
Oma:__ZL18IsGpuProgramUsable20ShaderGpuProgramTypePK6Shader
OPc:__ZN2UI6Canvas17SetSortingLayerIDEi
n4c:_Button_get_onClick_m2332132945
Yjj:__ZN6il2cpp2vm11MethodStack23CleanupForCurrentThreadEv
z6h:_Collection_1_ConvertItem_m618594517_gshared
tVh:__ZL61Image_t2670269651_CustomAttributesCacheGenerator_m_FillMethodP21CustomAttributesCache
uMd:_Convert_ToUInt64_m388601487
sVa:__ZN20TierGraphicsSettings8TransferI24GenerateTypeTreeTransferEEvRT_
RTi:__ZN15dense_hashtableINSt3__24pairIK10KeyWrapperIN6il2cpp5utils13dynamic_arrayIPK10Il2CppTypeLj4EEEEPFvvEEESA_NS3_8metadata19Il2CppSignatureHashEN14dense_hash_mapISA_SD_SG_NSA_14EqualsComparerINSF_22Il2CppSignatureCompareEEENS0_9allocatorISE_EEE9SelectKeyESK_SM_E16reset_thresholdsEv
mqg:_Mesh_get_vertices_m3585684815
mrb:__ZN14SafeBinaryRead21TransferSTLStyleArrayI13dynamic_arrayI4AABBLj4EEEEvRT_17TransferMetaFlags
Dxg:_TouchScreenKeyboard_get_text_m1797464608
MYb:__ZN26CustomRenderTextureManager25UpdateCustomRenderTextureEP19CustomRenderTexturei
Lfa:__ZNSt3__26__treeINS_12__value_typeIiN11TypeManager18TypeCallbackStructEEENS_19__map_value_compareIiS4_NS_4lessIiEELb1EEENS_9allocatorIS4_EEE7destroyEPNS_11__tree_nodeIS4_PvEE
wXh:__ZL60Slider_t3903728902_CustomAttributesCacheGenerator_m_FillRectP21CustomAttributesCache
SEb:__ZN13MonoBehaviour18TransferEngineDataI24GenerateTypeTreeTransferEE4PPtrI10MonoScriptERT_
ZUg:__Z71RuntimeInvoker_Void_t1185182177_CornerU26_t2243868623_Int32_t2950945753PFvvEPK10MethodInfoPvPS4_
Cng:_TextureMixerPlayable_Equals_m1074187513_AdjustorThunk
U8b:__ZNK14PlayableOutput23GetSourcePlayableUnsafeEv
dTc:__ZN11UnityEngine7Connect17XRDeviceInfoEventD0Ev
Euh:__ZL60SoapTypeAttribute_t1750930817_CustomAttributesCacheGeneratorP21CustomAttributesCache
Ped:_Binder_ConvertArgs_m2124461494
MV:__ZN21UnityDefaultAllocatorI17LowLevelAllocatorE10DeallocateEPv
ts:__ZN15PackedIntVector8TransferI14SafeBinaryReadEEvRT_
mzg:_Vector3__ctor_m3353183577_AdjustorThunk
Rke:_InternalEnumerator_1_System_Collections_IEnumerator_get_Current_m1514266661_gshared
i8d:_MD5SHA1_Initialize_m675470944
mOf:_Array_InternalArray__ICollection_Add_TisKeyframe_t4206410242_m442111799_gshared
O4g:_List_1_CheckMatch_m3263549496_gshared
zyh:__ZL58ManualResetEvent_t451242010_CustomAttributesCacheGeneratorP21CustomAttributesCache
Sai:_ReadOnlyCollection_1_System_Collections_IList_get_IsReadOnly_m2041535988_gshared
Goi:_X509Certificate_set_KeyAlgorithmParameters_m2010117999
yH:__ZN13AudioListener8DoUpdateEv
$Pd:_Int32_GetTypeCode_m1648562395_AdjustorThunk
IJd:__Z13bankers_roundd
Xdb:__ZN14SafeBinaryRead8TransferI5RectTIfEEEvRT_PKc17TransferMetaFlags
ri:_emscripten_glGenFramebuffers
Ffa:__ZN17BaseObjectManager16StaticInitializeEPv
Cha:__ZNSt3__26vectorIN9ShaderLab26SerializedShaderDependencyENS_9allocatorIS2_EEE26__swap_out_circular_bufferERNS_14__split_bufferIS2_RS4_EE
vzh:__ZL80Convert_t2465617642_CustomAttributesCacheGenerator_Convert_ToBoolean_m3613483153P21CustomAttributesCache
Q4f:_List_1_CheckCollection_m2602703205_gshared
aKa:__ZN9Behaviour23VirtualRedirectTransferER17RemapPPtrTransfer
yrc:__Z18Transfer_BlittableI9JSONWriteLb0EyEvRK29SerializationCommandArgumentsR31RuntimeSerializationCommandInfo
p_a:__ZN13RenderTexture15ThreadedCleanupEv
Gcf:_X509BasicConstraintsExtension__ctor_m3721156175
G1a:__ZN12CubemapArray23VirtualRedirectTransferER14SafeBinaryRead
LRh:__ZL70EventSystem_t1003666588_CustomAttributesCacheGenerator_m_DragThresholdP21CustomAttributesCache
lu:__ZN21AnimationClipPlayable16ProcessHumanPassEPK35AnimationPlayableEvaluationConstantPK32AnimationPlayableEvaluationInputP33AnimationPlayableEvaluationOutput
ASd:_Path_GetFileName_m1354558116
i4e:_BitConverterLE_ToDouble_m1601000678
NHj:_emscripten_glUniform3i__wrapper
gug:_Rect_Contains_m1232228501_AdjustorThunk
GEa:__ZN18ProceduralMaterial9ReloadAllEbb
hic:__Z43RectTransform_CUSTOM_INTERNAL_set_sizeDeltaP12Il2CppObjectRK13Vector2fIcall
xQd:_Int64_System_IConvertible_ToType_m3223988955_AdjustorThunk
Ofj:__ZN15dense_hashtableINSt3__24pairIK10KeyWrapperINS1_IPKcS4_EEEiEES6_24NamespaceAndNamePairHashN14dense_hash_mapIS6_iS9_NS6_14EqualsComparerI26NamespaceAndNamePairEqualsEENS0_9allocatorIS8_EEE9SelectKeyESD_SF_E6insertERKS8_
U5:__ZN24GenerateTypeTreeTransfer18BeginArrayTransferEPKcS1_Ri17TransferMetaFlags
a5h:_Array_InternalArray__get_Item_TisPlayableBinding_t354260709_m3837494573_gshared
om:___syscall51
lmc:__Z26BeforeDomainReloadCallbackv
Qqi:_MatchCollection_get_FullList_m1829231879
sm:___syscall54
exd:_Array_GetValue_m2528415604
nuh:__ZL55IMessageSink_t2514424906_CustomAttributesCacheGeneratorP21CustomAttributesCache
Pkf:_SymmetricAlgorithm_Clear_m3302238152
ovg:_Transform_INTERNAL_CALL_TransformPoint_m4261269221
KGf:_Guid_AppendShort_m791023083
I_h:__ZL56Home_End_t2706148170_CustomAttributesCacheGenerator_fadeP21CustomAttributesCache
SSh:__ZL109PointerEventData_t3807901092_CustomAttributesCacheGenerator_PointerEventData_get_eligibleForClick_m3788762543P21CustomAttributesCache
i5g:_List_1__ctor_m4212503576_gshared
b8f:_UTF32Encoding_GetBytes_m2832872594
Xna:__ZN9ShaderLab9SubShader19CreateFromSubShaderERKS0_
Kwb:__Z18Transfer_BlittableI19StreamedBinaryWriteILb0EELb1EjEvRK29SerializationCommandArgumentsR31RuntimeSerializationCommandInfo
eAc:_cff_builder_add_point1
Xgj:__ZN6il2cpp2vm5Image21GetCachedResourceDataEPK11Il2CppImageRKNSt3__212basic_stringIcNS5_11char_traitsIcEENS5_9allocatorIcEEEE
gob:__Z18Transfer_BlittableI14SafeBinaryReadLb0E10ColorRGBAfEvRK29SerializationCommandArgumentsR31RuntimeSerializationCommandInfo
za:invoke_iiiiiiiiii
hmg:_DrivenRectTransformTracker_Clear_m371772582
LP:__ZN11AudioSource25GetNumExtensionPropertiesEv
yPf:_Array_InternalArray__ICollection_CopyTo_TisUILineInfo_t4195266810_m104406798_gshared
QN:__ZNK7Texture10GetVRUsageEv
ACd:_Char_ToLowerInvariant_m1926695830
cUf:_DefaultComparer__ctor_m41012692_gshared
zlg:_Debug_LogErrorFormat_m3558239521
_9c:_Graphic_get_canvas_m3320066409
vQe:_InputField_ActivateInputFieldInternal_m3360893886
F9g:_List_1_Insert_m1781696722_gshared
dG:__ZN4FMOD7SystemI11createSoundEPKcjP22FMOD_CREATESOUNDEXINFOPPNS_5SoundE
O$b:__ZN10FileSystem19SetCurrentDirectoryERKN4core12basic_stringIcNS0_20StringStorageDefaultIcEEEE
Ikg:_Component_get_gameObject_m442555142
FYd:_Math_Log_m2526073084
Oec:__Z47Register_UnityEngine_Coroutine_ReleaseCoroutinev
jI:__ZN15AudioReverbZone13SetFMODValuesEv
DZ:__ZN14SafeBinaryRead4InitERK16TypeTreeIteratorxx24TransferInstructionFlags10MemLabelId
Qga:__ZL19StaticDestroyShaderPv
ae:_glRenderbufferStorageMultisample
D8b:__ZN8Playable4PlayEv
aId:_SyncHashtable_Clone_m3726939774
$y:__ZN23AnimationPlayableOutput17SetTargetAnimatorEP8Animator
Zrh:__ZL62ParameterAttributes_t1826424051_CustomAttributesCacheGeneratorP21CustomAttributesCache
Vsc:__ZN9JSONWrite8TransferI13dynamic_arrayIN4math12int3_storageELj4EEEEvRT_PKc17TransferMetaFlags
uQb:__ZN22MotionVectorRenderLoopD2Ev
VUd:_MemoryStream_get_CanRead_m1639425566
Blg:_Debug_LogException_m2207318968
Dsf:_DecoderReplacementFallback_GetHashCode_m1611165826
Mcd:_Image_get_minWidth_m755066479
sNj:_pthread_cond_broadcast__wrapper
vNf:_Array_InternalArray__ICollection_Add_TisClientCertificateType_t1004704908_m2622721177_gshared
Bs:__ZN17PackedFloatVector8TransferI18StreamedBinaryReadILb0EEEEvRT_
H2a:__ZN7Cubemap23VirtualRedirectTransferER17RemapPPtrTransfer
Kkc:__Z37Register_UnityEngine_Screen_get_widthv
ewi:_Uri_get_Authority_m3816772302
S9b:__ZN22BlockMemoryCacheWriter11GetPathNameEv
$bf:_X509BasicConstraintsExtension__ctor_m1244152959
uxg:_Touch_get_position_m3109777936
jpd:_ParameterInfo__ctor_m3269320476
Hff:_X509SubjectKeyIdentifierExtension_FromHexChars_m3244835916
Zof:_Single_CompareTo_m2785801815
Eni:_PKCS12_MAC_m3355614022
quh:__ZL63IMethodReturnMessage_t3705538073_CustomAttributesCacheGeneratorP21CustomAttributesCache
_o:stackAlloc
gfc:__Z44Camera_CUSTOM_INTERNAL_CALL_ScreenPointToRayP12Il2CppObjectRK8Vector3fR3Ray
ePa:__ZN25SingleBlockMemoryFileData4LockEPPv
hlb:__ZN12HandlerChain5TouchER13FileEntryData
sLj:_glProgramParameteri__wrapper
tdi:_ReadOnlyCollection_1_System_Collections_Generic_ICollectionU3CTU3E_get_IsReadOnly_m1215739200_gshared
yZ:__ZN17PersistentManager23PostReadActivationQueueEiPK8TypeTreeb
Qhg:_AnimationCurve_t3046754366_marshal_pinvoke
Lgc:__Z32RectOffset_Get_Custom_PropBottomP12Il2CppObject
vlg:_Debug_LogError_m2850623458
shh:_Collection_1_CheckWritable_m3225530705_gshared
SLj:_emscripten_glGetObjectParameterivARB__wrapper
IYh:__ZL74LayoutElement_t1785403678_CustomAttributesCacheGenerator_m_PreferredHeightP21CustomAttributesCache
Mzj:_stat
n4:__ZN9ShaderLab10SubProgram7CompileEv
xIb:__ZN15InstancingProps14CombineBuiltinEN10Instancing11BuiltinPropES1_S1_
I5g:_List_1_Contains_m353222571_gshared
dld:_PropertyBuilder_get_CanRead_m3783190070
m0:__ZN14SerializedFile14SerializedTypeD2Ev
lCh:__ZL64ThreadStaticAttribute_t3840787420_CustomAttributesCacheGeneratorP21CustomAttributesCache
CNf:_Array_InternalArray__ICollection_Add_TisKeyValuePair_2_t3699644050_m4052349323_gshared
Dae:_CipherSuiteCollection_System_Collections_IList_get_Item_m2175128671
cSa:__ZN6CameraD2Ev
la:invoke_iiiiiiiiiiii
ruf:_DateTime_System_IConvertible_ToType_m1242864300_AdjustorThunk
wBe:_ValueCollection_get_Count_m994935123_gshared
lre:_InternalEnumerator_1_get_Current_m2446410893_AdjustorThunk
bWa:__Z29CalculateDefaultChannelsToAdd17ShaderChannelMaskS_
cMh:__ZL89PlayableBinding_t354260709_CustomAttributesCacheGenerator_U3CstreamTypeU3Ek__BackingFieldP21CustomAttributesCache
HRa:__ZN10TagManager13RegisterLayerEjRKN4core12basic_stringIcNS0_20StringStorageDefaultIcEEEE
hIa:__ZNSt3__26__treeI20DeviceBlendStateGLES14MemoryCompLessI16DeviceBlendStateENS_9allocatorIS1_EEE7destroyEPNS_11__tree_nodeIS1_PvEE
sMi:_CanvasRenderer_SetMaterial_m633746949
fL:__ZN10AudioMixer12RebindOutputEv
I9i:__ZNK15dense_hashtableINSt3__24pairIK10KeyWrapperIP11Il2CppClassES4_EES5_N6il2cpp8metadata16SZArrayClassHashEN14dense_hash_mapIS5_S4_SA_NS5_14EqualsComparerINS9_19SZArrayClassCompareEEENS0_9allocatorIS7_EEE9SelectKeyESE_SG_E5beginEv
Yke:_InternalEnumerator_1__ctor_m819716934_gshared
zTe:_LayoutRebuilder_PerformLayoutControl_m4241054021
tPi:__ZN6il2cpp2vm17SetupFieldsLockedEP11Il2CppClassRKNS_2os12FastAutoLockE
lTe:_U3CDelayedSetDirtyU3Ec__Iterator0_System_Collections_IEnumerator_get_Current_m3096581881
jHb:__ZNK9GfxDevice20IsViewportFullscreenEv
Bye:_Transform_1__ctor_m2638607165_gshared
WCa:__ZN18GlslGpuProgramGLES13SwitchProgramEj
TPa:__ZN20ArchiveStorageReaderC2E10MemLabelId
mCg:__Z132RuntimeInvoker_Int32_t2950945753_RuntimeObject_Int32_t2950945753_Int32_t2950945753_RuntimeObject_Int32_t2950945753_Int32_t2950945753PFvvEPK10MethodInfoPvPS4_
zmb:__ZN16MemoryFileSystem4NameEv
wof:_Single_System_IConvertible_ToBoolean_m1716619219_AdjustorThunk
Fkc:__Z13SetCopyBufferRKN4core12basic_stringIcNS_20StringStorageDefaultIcEEEE
y0f:_Enumerator_get_Current_m2468920150_AdjustorThunk
cmi:_TlsException__ctor_m818940807
Xtd:_X509CertificateEnumerator_System_Collections_IEnumerator_get_Current_m418791713
DKc:_UNITY_FT_New_Size
idc:__Z42ScriptingGetComponentsOfTypeFromGameObjectRK26ScriptingGetComponentsArgs
lfi:_Func_3_BeginInvoke_m2985061395_gshared
nLh:__ZL73ArgumentCache_t2187958399_CustomAttributesCacheGenerator_m_ObjectArgumentP21CustomAttributesCache
olg:_StateChanged_EndInvoke_m3313423087
I2h:_Array_swap_TisRaycastResult_t3360306849_TisRaycastResult_t3360306849_m3400922624_gshared
pFi:_AudioListener_ReadExtensionName_m929423100
$1d:_CspParameters__ctor_m2741097571
Bhd:_EnumBuilder_get_DeclaringType_m4266754303
P0a:__ZNSt3__27__sort4IRPFbRKNS_4pairIN9ShaderLab16FastPropertyNameEN18UnityPropertySheet11UnityTexEnvEEES8_EPS6_EEjT0_SD_SD_SD_T_
Gsi:_Assertion_get_TrueExpression_m2743006331
czc:_cf2_hintmap_build
fxg:_Texture_get_width_m888163864
lIc:_Line_Up
o1h:_Array_Resize_TisRaycastResult_t3360306849_m1277390301_gshared
he:_emscripten_glBufferSubData
Vqf:_String_ReplaceUnchecked_m1381393810
y6e:_SymmetricTransform_CBC_m435753239
Qsb:__Z18Transfer_BlittableI17RemapPPtrTransferLb1EyEvRK29SerializationCommandArgumentsR31RuntimeSerializationCommandInfo
oYh:__ZL76ContentSizeFitter_t3850442145_CustomAttributesCacheGenerator_m_HorizontalFitP21CustomAttributesCache
Pte:_DefaultComparer_Compare_m3278268937_gshared
Rp:__Z17CalculateGlobalRS23TransformAccessReadOnly
E2i:__ZN24dense_hashtable_iteratorINSt3__24pairIK10KeyWrapperINS1_IPK10MethodInfoP11Il2CppClassEEEjEES9_17ReflectionMapHashIS8_EN14dense_hash_mapIS9_jSD_NS9_14EqualsComparerINS0_8equal_toIS8_EEEENS0_9allocatorISB_EEE9SelectKeyESI_SK_E30advance_past_empty_and_deletedEv
puj:__ZNSt3__210__list_impIPN6il2cpp5utils10MemoryPool6RegionENS_9allocatorIS5_EEE5clearEv
sIi:__ZL25UnresolvedVirtualCall_131P12Il2CppObject19Vector2_t2156229523S0_PK10MethodInfo
iZc:__ZN13RuntimeStaticINSt3__26vectorIN5physx25PxVehicleWheelQueryResultENS0_9allocatorIS3_EEEELb0EE16StaticInitializeEPv
irb:__ZN14SafeBinaryRead21TransferSTLStyleArrayI13dynamic_arrayI9BoundsIntLj4EEEEvRT_17TransferMetaFlags
Rib:__ZN22MemoryCacherReadBlocks14LockCacheBlockEjPPhS1_
_Vd:_StreamAsyncResult_get_NBytes_m548041729
U_i:__ZN6il2cpp2vm14TypeNameParser17ParseAssemblyNameEv
m9a:__ZNK9GfxDevice26GetSinglePassStereoEyeMaskEv
Klg:_DebugLogHandler_Internal_Log_m4175774469
xoj:__ZN4utf88internal15increase_safelyIPKcEENS0_9utf_errorERT_S5_
uPi:__ZN6il2cpp2vmL21SetupPropertiesLockedEP11Il2CppClassRKNS_2os12FastAutoLockE
Hnf:_SecurityContext_get_CompressedStack_m3401528670
SJc:__ZN20TextRenderingPrivate8FontImpl16CacheFontForTextEPtiifjPK13dynamic_arrayINS_16TextFormatChangeELj4EE
LCd:_CharEnumerator_get_Current_m525608209
VCi:_School_After_FadeBoyOrGirl_m1773370329
koe:_InternalEnumerator_1_Dispose_m887344916_AdjustorThunk
P_c:__Z21ArrayElementTypeCheckP11Il2CppArrayPv
xKj:_emscripten_glTexSubImage2D__wrapper
jAf:_StackTrace_init_frames_m641783388
tcf:_PublicKey_DecodeRSA_m1824703659
EBj:__ZNSt3__212basic_stringIcNS_11char_traitsIcEENS_9allocatorIcEEE6appendEjc
NCb:__Z13TransferFieldI18StreamedBinaryReadILb0EELb0E16Converter_StringEvRK23StaticTransferFieldInfoR31RuntimeSerializationCommandInfoRT1_
wSc:__Z42Register_UnityEngine_Canvas_get_rootCanvasv
tzh:__ZL78Convert_t2465617642_CustomAttributesCacheGenerator_Convert_ToBoolean_m40300963P21CustomAttributesCache
HDd:_ArrayListWrapper_set_Item_m3849584877
Qe:_TTF_RenderText_Solid
wBi:_U3CCrossFadeOutU3Ec__Iterator0_Reset_m957141427
k3f:_List_1__ctor_m3947764094_gshared
Ojh:__ZL52IComparable_t36111218_CustomAttributesCacheGeneratorP21CustomAttributesCache
Xui:_Parser_IsIgnorePatternWhitespace_m2107132682
F9e:_HttpRequestCreator_Create_m400548686
aXc:__ZN11UnityEngine7Connect16PersistentValuesC2Ev
aIg:__Z49RuntimeInvoker_RuntimeObject_StringU26_t181565287PFvvEPK10MethodInfoPvPS4_
uci:_ReadOnlyCollection_1_System_Collections_IList_Insert_m134149130_gshared
crc:__Z18Transfer_BlittableI9JSONWriteLb0E5RectTIiEEvRK29SerializationCommandArgumentsR31RuntimeSerializationCommandInfo
e2e:_BigInteger_get_Rng_m4216817480
lyc:_cf2_getStdVW
AIf:_Array_InternalArray__ICollection_Remove_TisDateTime_t3738529785_m2250893026_gshared
Gwh:__ZL67RijndaelManagedTransform_t4102601014_CustomAttributesCacheGeneratorP21CustomAttributesCache
mDa:__Z15IsIEEE754Format14GraphicsFormat
ctb:__Z19TransferField_ArrayI17RemapPPtrTransfer27Converter_UnityEngineObjectEvRK23StaticTransferFieldInfoR31RuntimeSerializationCommandInfoRT0_
Za:invoke_iifiii
yGd:_KeyNotFoundException__ctor_m541499307
sba:__ZN13RuntimeStaticINSt3__23mapIN4core12basic_stringIcNS2_20StringStorageDefaultIcEEEES6_NS0_4lessIS6_EE13stl_allocatorINS0_4pairIKS6_S6_EEL18MemLabelIdentifier13ELi16EEEELb0EE16StaticInitializeEPv
WJf:_SetPropertyUtility_SetStruct_TisSpriteState_t1362986479_m665096788_gshared
ICg:__Z61RuntimeInvoker_Single_t1397266774_RuntimeObject_RuntimeObjectPFvvEPK10MethodInfoPvPS4_
pqi:_Enumerator__ctor_m1228633090
GIf:_Array_InternalArray__ICollection_Remove_TisIntPtr_t_m3807208150_gshared
rPg:__Z71RuntimeInvoker_Void_t1185182177_Vector3_t3722313464_Vector3_t3722313464PFvvEPK10MethodInfoPvPS4_
Vne:_InternalEnumerator_1_get_Current_m2316281569_AdjustorThunk
utf:_DateTime__ctor_m1095105629
Vqa:__ZN13GfxDeviceGLES15UploadTexture2DE9TextureID16TextureDimensionPKhiii14GraphicsFormati18TextureUploadFlags16TextureUsageMode
ZZg:__Z41RuntimeInvoker_KeyValuePair_2_t3699644050PFvvEPK10MethodInfoPvPS4_
Lwi:_Event_Cleanup_m2477919477
bK:__ZN4FMOD6System9createDSPEP20FMOD_DSP_DESCRIPTIONPPNS_3DSPE
Pyh:__ZL87Thread_t2300836069_CustomAttributesCacheGenerator_Thread_GetCompressedStack_m2923422412P21CustomAttributesCache
uwg:_HitInfo_t3229609740_marshal_pinvoke_back
Mfe:_SslClientStream_get_ClientCertificates_m998716871
$De:__ZN21InterfaceFuncInvoker0IP8String_tE6InvokeEjP11Il2CppClassP12Il2CppObject
bG:__ZN4FMOD8ChannelI11EndCallbackEv
gnc:__ZN8GUIStyle14SetDefaultFontEPN13TextRendering4FontE
X4f:_List_1_ToArray_m2860284581_gshared
o5a:__ZN15QualitySettings23VirtualRedirectTransferER24GenerateTypeTreeTransfer
jNe:_ObjectReader_ReadValue_m3145979203
pAg:_TypeInferenceRuleAttribute_ToString_m4089326196
W4c:_CanvasScaler_OnDisable_m3424669401
Fze:_Transform_1_BeginInvoke_m500585065_gshared
Fta:__ZThn9568_N13GfxDeviceGLES32InitStereoGlobalsBuffersPlatformEiijPKv
FWh:__ZL68Scrollbar_t1494447233_CustomAttributesCacheGenerator_m_NumberOfStepsP21CustomAttributesCache
CXe:_ScrollRect_set_content_m321343743
eSi:__ZN30dense_hashtable_const_iteratorINSt3__24pairIK10KeyWrapperIPK19Il2CppGenericMethodEPK26Il2CppGenericMethodIndicesEES6_N6il2cpp8metadata23Il2CppGenericMethodHashEN14dense_hash_mapIS6_SA_SE_NS6_14EqualsComparerINSD_26Il2CppGenericMethodCompareEEENS0_9allocatorISB_EEE9SelectKeyESI_SK_EppEv
Rxc:_UNITY_FT_Request_Metrics
ZZa:__ZN7Texture8TransferI18StreamedBinaryReadILb0EEEEvRT_
Jej:__ZN6il2cpp6icalls8mscorlib6System10Reflection10MonoMethod29get_IsGenericMethodDefinitionEP22Il2CppReflectionMethod
cbj:__ZN6il2cpp2vm6Thread21AllocThreadStaticDataEi
zRh:__ZL63AnalyticsSessionState_t681173134_CustomAttributesCacheGeneratorP21CustomAttributesCache
vFf:_NumberFormatInfo_get_PercentNegativePattern_m1304634118
cBi:_StaticInfo_set_AfterClass_m2593568609
Ued:_Default_SelectMethod_m469311730
oog:_Input_get_mousePosition_m1616496925
Qn:FUNCTION_TABLE_difi
tnj:__ZN30dense_hashtable_const_iteratorINSt3__24pairIK10KeyWrapperIPK19Il2CppGenericMethodEP10MethodInfoEES6_N6il2cpp8metadata23Il2CppGenericMethodHashEN14dense_hash_mapIS6_S9_SD_NS6_14EqualsComparerINSC_26Il2CppGenericMethodCompareEEENS0_9allocatorISA_EEE9SelectKeyESH_SJ_EppEv
Rfg:_UInt32_ToString_m2066897296_AdjustorThunk
ZO:__Z13RegisterClassI13AudioListenerEvv
njb:__ZN24GenerateTypeTreeTransfer19TransferSTLStyleMapINSt3__23mapI4PPtrI6ShaderEN4core12basic_stringIcNS6_20StringStorageDefaultIcEEEENS1_4lessIS5_EENS1_9allocatorINS1_4pairIKS5_SA_EEEEEEEEvRT_17TransferMetaFlags
PGd:_Enumerator_Reset_m4274366540
Bqc:__Z18Transfer_BlittableI9JSONWriteLb0E8Vector3fEvRK29SerializationCommandArgumentsR31RuntimeSerializationCommandInfo
nca:__ZN13RuntimeStaticI17UniqueIDGeneratorLb0EE13StaticDestroyEPv
Pf:_emscripten_glUniform4i
$Bc:_otv_FeatureList_validate
$e:_emscripten_glUniform4f
yj:___unlock
qqj:_GC_default_oom_fn
hBc:_otv_validate
i_b:__ZN13sorted_vectorINSt3__24pairIN4core12basic_stringIcNS2_20StringStorageDefaultIcEEEES6_EEN10vector_mapIS6_S6_27compare_tstring_insensitiveIS6_E13stl_allocatorIS7_L18MemLabelIdentifier38ELi16EEE13value_compareESD_E9erase_oneIS6_EEjRKT_
rUf:_DefaultComparer__ctor_m963958896_gshared
Ylf:_X509Certificate_Equals_m3784196370
Y8g:_List_1__ctor_m3376067838_gshared
vM:__ZN20SoundChannelInstance19setReverbPropertiesEP29FMOD_REVERB_CHANNELPROPERTIES
q1f:_Enumerator_MoveNext_m1446151600_gshared
Mjf:_SHA1Internal_ProcessFinalBlock_m1403775421
KQh:__ZL87Canvas_t3310196443_CustomAttributesCacheGenerator_Canvas_get_sortingLayerID_m3685979122P21CustomAttributesCache
MBh:__ZL69Math_t1671470975_CustomAttributesCacheGenerator_Math_Sqrt_m1297338011P21CustomAttributesCache
okc:__Z40Register_UnityEngine_Transform_IsChildOfv
eLe:_RemotingServices_GetOrCreateClientIdentity_m648299611
nte:_InternalEnumerator_1_get_Current_m2356858238_AdjustorThunk
Wfc:__Z45Register_UnityEngine_Display_GetSystemExtImplv
l6e:_RSAManaged_ImportParameters_m1844641996
rrh:__ZL67AssemblyProductAttribute_t1000945320_CustomAttributesCacheGeneratorP21CustomAttributesCache
xJa:__ZN9GfxDevice31DrawIndexedNullGeometryIndirectE16GfxPrimitiveTypeP9GfxBuffer15ComputeBufferIDj
Nve:_Enumerator_System_Collections_IDictionaryEnumerator_get_Value_m3325938730_AdjustorThunk
lv:__ZN7mecanim9animation23TransformValuesFromClipEiiiRKNS_10ValueArrayERKNS0_10ClipOutputERKNS0_12ClipBindingsERS1_RNS_14ValueArrayMaskEb
L0h:_Array_qsort_TisOrderBlock_t1585977831_TisOrderBlock_t1585977831_m1675918557_gshared
tBe:_ValueCollection_System_Collections_ICollection_get_SyncRoot_m1114275063_gshared
eOi:__ZL17log2withScale_128yyi
AGf:_Guid_Equals_m1866984197
xOc:__ZNSt3__218__insertion_sort_3IRNS_6__lessIN2UI14DepthSortEntryES3_EEPS3_EEvT0_S7_T_
Wwe:_Enumerator__ctor_m65667165_gshared
Edd:_PlatformNotSupportedException__ctor_m1787918017
Dda:__ZN13RuntimeStaticI15DirectorManagerLb0EE16StaticInitializeEPv
A9h:_ReadOnlyCollection_1_System_Collections_ICollection_CopyTo_m2643246984_gshared
Jcb:__ZN11TimeManager6UpdateEv
g2f:_Enumerator_System_Collections_IEnumerator_get_Current_m209407522_gshared
$$d:_StreamingContext_GetHashCode_m2281950854_AdjustorThunk
zje:_InternalEnumerator_1__ctor_m619554185_AdjustorThunk
P4c:_CanvasScaler_get_fallbackScreenDPI_m2811935689
BLe:_WellKnownServiceTypeEntry_get_ObjectUri_m560402900
kuf:_DateTimeFormatInfo_ReadOnly_m890935083
sbi:_ReadOnlyCollection_1_System_Collections_ICollection_get_SyncRoot_m1280260618_gshared
xpj:__ZN6il2cpp2vm3CCW9CreateCCWEP12Il2CppObject
Tzj:_fflush
D3:__ZN17LightProbeContext4InitERK16LightmapSettingsRK14RenderSettings
rFg:__Z82RuntimeInvoker_Int32_t2950945753_RuntimeObject_Int32_t2950945753_SByte_t1669577662PFvvEPK10MethodInfoPvPS4_
BTb:__ZN18DeferredRenderLoop14RenderLightingER21ActiveLightingContextP13RenderTexture9TextureIDPS3_iRK8Vector4fRK14LightingLayersR10MinMaxAABBb12ObjectHandleI17RenderSurface_TagP17RenderSurfaceBaseE
bwg:_SceneManager_Internal_ActiveSceneChanged_m3676176255
Yoi:_X509Certificate_GetIssuerName_m1142198382
Eui:_ExpressionAssertion_set_Negate_m1236561973
JAf:_Double_System_IConvertible_ToInt16_m3591921965
x8a:__ZN9Texture3DD2Ev
_hh:_Collection_1_set_Item_m4280581817_gshared
dcd:_Image_get_fillMethod_m1027254375
AXh:__ZL60Slider_t3903728902_CustomAttributesCacheGenerator_m_MaxValueP21CustomAttributesCache
i7:__ZN10ColorRGBAf8TransferI19StreamedBinaryWriteILb0EEEEvRT_
tyh:__ZL97CompressedStack_t1202932761_CustomAttributesCacheGenerator_CompressedStack_CreateCopy_m2591279216P21CustomAttributesCache
_Jd:_Convert_ToChar_m2796006345
BQf:_Array_InternalArray__Insert_TisContentType_t1787303396_m3566390691_gshared
gJi:__ZL25UnresolvedVirtualCall_173P12Il2CppObject39CustomAttributeNamedArgument_t287865710S1_PK10MethodInfo
Tjj:__ZNSt3__26vectorI20Il2CppStackFrameInfoNS_9allocatorIS1_EEE7reserveEj
wuh:__ZL82MethodDictionary_t207894204_CustomAttributesCacheGenerator_U3CU3Ef__switchU24map21P21CustomAttributesCache
aEd:_ArrayListWrapper_GetEnumerator_m2336495952
TVb:__Z34ProcessIndexListIsNodeVisibleStep2RK22SceneCullingParametersPK9SceneNodePK4AABBR9IndexList
aFb:__ZN10MonoScriptD2Ev
Aza:__ZN6prcoreL12RemapGenericI17TexFormatARGB888817TexFormatBGRA8888EEvPKNS_9InnerInfoE
iHa:__ZN19ConstantBuffersGLES8UpdateCBE5CbKeyPKvj
w4c:_U3COnFinishSubmitU3Ec__Iterator0_System_Collections_Generic_IEnumeratorU3CobjectU3E_get_Current_m2586882303
VEi:_AudioSource_get_spatializeInternal_m2117549793
ghc:__Z39Input_CUSTOM_INTERNAL_get_mousePositionP8Vector3f
axd:_SimpleEnumerator__ctor_m353509656
ODc:_tt_cmap13_char_next
NRh:__ZL117EventSystem_t1003666588_CustomAttributesCacheGenerator_EventSystem_t1003666588____lastSelectedGameObject_PropertyInfoP21CustomAttributesCache
Una:__ZN9ShaderLab4Pass16SetupPassOptionsEv
D8g:_List_1_GetIndex_m1042356532_gshared
dh:_JS_Sound_ReleaseInstance
Spa:__ZN13GfxDeviceGLES19DrawBuffersIndirectEP9GfxBufferPK18VertexStreamSourceiP17VertexDeclaration17ShaderChannelMask16GfxPrimitiveType15ComputeBufferIDj
mGf:_Guid_CheckArray_m921056615
QEe:_ConfigHandler_ReadLifetine_m208994800
QVc:__ZN20UnityConnectSettings16CheckConsistencyEv
j2i:__ZNK15dense_hashtableINSt3__24pairIK10KeyWrapperINS1_IPK10MethodInfoP11Il2CppClassEEEjEES9_17ReflectionMapHashIS8_EN14dense_hash_mapIS9_jSD_NS9_14EqualsComparerINS0_8equal_toIS8_EEEENS0_9allocatorISB_EEE9SelectKeyESI_SK_E12test_deletedEj
eeg:_UInt16_System_IConvertible_ToByte_m3185614807_AdjustorThunk
wfe:_SecurityParameters_set_ServerWriteMAC_m3003817350
GIe:_SerializationEntry_get_Value_m2039470570
Mtg:_Rect_get_max_m350137314_AdjustorThunk
Cm:FUNCTION_TABLE_diddi
pbj:__ZN6il2cpp6icalls8mscorlib6System5Array8FastCopyEP11Il2CppArrayiS5_ii
Aic:__Z26Material_CUSTOM_SetIntImplP12Il2CppObjectii
SZa:__Z32TransferEnumWithNameForceIntSizeI14SafeBinaryRead15TextureWrapModeEvRT_RT0_PKc17TransferMetaFlags
oYi:__ZNSt3__26vectorIPK10MethodInfoNS_9allocatorIS3_EEE21__push_back_slow_pathIRKS3_EEvOT_
RVg:__Z54RuntimeInvoker_Boolean_t97287965_LabelFixup_t858502054PFvvEPK10MethodInfoPvPS4_
T6b:__ZN8GUILayerD2Ev
E6g:_List_1_Clear_m2244610185_gshared
Ygc:__Z42Register_UnityEngine_RectOffset_get_bottomv
Lph:__ZL55BinaryReader_t2428077293_CustomAttributesCacheGeneratorP21CustomAttributesCache
uzj:_newlocale
ldd:_ObjectDisposedException_get_Message_m1666887471
jrb:__ZN9BoundsInt8TransferI14SafeBinaryReadEEvRT_
BIj:_emscripten_glUniform1f__wrapper
ADj:dynCall_di
Ktd:_X509Certificate_get_SubjectName_m3160893681
vmg:_BaseInvokableCall_AllowInvoke_m878393606
oJi:__ZL25UnresolvedVirtualCall_181P12Il2CppObject19Vector2_t2156229523S1_PK10MethodInfo
iqc:__Z28RegisterModule_JSONSerializev
B8i:_il2cpp_monitor_enter
Hjb:__ZN2UI13RectTransform8TransferI14SafeBinaryReadEEvRT_
urc:__Z35Transfer_Blittable_FixedBufferFieldI9JSONWriteaEvRK29SerializationCommandArgumentsR31RuntimeSerializationCommandInfo
Pig:_Behaviour_get_enabled_m753527255
obc:__Z20IsHumanControllingUsv
FAe:_Enumerator_MoveNext_m181298207_gshared
i_g:__Z44RuntimeInvoker_ParameterModifier_t1461694466PFvvEPK10MethodInfoPvPS4_
BW:__ZNK20DynamicHeapAllocatorI17LowLevelAllocatorE10GetPtrSizeEPKv
k9g:_List_1_System_Collections_IList_get_IsReadOnly_m3278465421_gshared
Fph:__ZL51TextInfo_t3810425522_CustomAttributesCacheGeneratorP21CustomAttributesCache
vMa:__ZN10systeminfo21GetPersistentDataPathEv
UAi:_U3CCharFadeInU3Ec__Iterator0_System_Collections_IEnumerator_get_Current_m2104666688
Pzi:_SymmetricTransform_get_KeepLastBlock_m2492071306
Fpa:__ZN13GfxDeviceGLES17DestroyGpuProgramEPK10GpuProgram
p0h:_Array_InternalArray__set_Item_TisRaycastResult_t3360306849_m730888808_gshared
Fnb:__Z44InitializeTransferFunctionScriptingTraitsForI18StreamedBinaryReadILb0EEEvR31TransferFunctionScriptingTraits
gAe:_Enumerator_System_Collections_IEnumerator_Reset_m53411943_gshared
XRb:__ZNSt3__218__insertion_sort_3IR23CompareReflectionProbesP31RuntimeReflectionProbeBlendInfoEEvT0_S5_T_
mtb:__ZN12NativeBufferI27Converter_SimpleNativeClassI8GradientEE15SetupForWritingER9ArrayInfo
M2e:_Kernel_RightShift_m2207393597
lga:__ZNSt3__213__stable_sortIRNS_4lessIN4core12basic_stringIcNS2_20StringStorageDefaultIcEEEEEENS_11__wrap_iterIPS6_EEEEvT0_SC_T_NS_15iterator_traitsISC_E15difference_typeEPNSF_10value_typeEi
KZh:__ZL48Shadow_t773074319_CustomAttributesCacheGeneratorP21CustomAttributesCache
f8:__ZN12_GLOBAL__N_113StaticDestroyEPv
UIi:__ZL25UnresolvedVirtualCall_159P12Il2CppObject25RaycastResult_t3360306849S1_PK10MethodInfo
ZAi:_U3CCharFadeOutU3Ec__Iterator1_System_Collections_IEnumerator_get_Current_m1973605508
mNj:_glUnmapBuffer__wrapper
nze:_Transform_1__ctor_m3369371265_gshared
avc:__ZN8JSONRead21TransferSTLStyleArrayINSt3__26vectorI8Gradient13stl_allocatorIS3_L18MemLabelIdentifier1ELi16EEEEEEvRT_17TransferMetaFlags
edb:__ZNSt3__218__insertion_sort_3IRNS_6__lessINS_4pairIPKN5Unity4TypeE7Hash128EES8_EEPS8_EEvT0_SC_T_
b4c:_U3CDelayUpdateU3Ec__Iterator0_Dispose_m2972384857
zPe:_InputField_set_onValueChanged_m3658917578
Wub:__ZN10RectOffset8TransferI24GenerateTypeTreeTransferEEvRT_
Rli:_TlsClientSettings_get_ClientCertificate_m3139459118
MRd:_BinaryReader__ctor_m2266204403
pae:__ZN21InterfaceFuncInvoker5IiP22ByteU5BU5D_t4116647657iiS1_iE6InvokeEjP11Il2CppClassP12Il2CppObjectS1_iiS1_i
Z$f:_Enumerator_VerifyState_m3047769867_AdjustorThunk
gub:__Z18Transfer_BlittableI24GenerateTypeTreeTransferLb1E5RectTIiEEvRK29SerializationCommandArgumentsR31RuntimeSerializationCommandInfo
Xmc:__ZN16GUIKeyboardStateD2Ev
hOc:__ZN2UI13CanvasManager19RemoveDirtyRendererEPNS_6CanvasEPNS_14CanvasRendererE
wyj:_isspace
ILe:_BinaryFormatter__ctor_m2620705134
CGb:__Z15GetIApplicationv
STc:__ZN11UnityEngine15PlatformWrapper25GetGraphicsRendererStringEv
k8f:_UTF7Encoding_InternalGetBytes_m797138468
iV:__ZN11UnityEngine15CloudWebService17WebFileDownloaderINS0_20WebRequestRestClientENS0_23WebRequestRestHeaderMapEED2Ev
Qb:invoke_vi
zud:_SmallXmlParser_HandleWhitespaces_m549588711
Jsc:__ZN9JSONWrite8TransferI13dynamic_arrayI9BoundsIntLj4EEEEvRT_PKc17TransferMetaFlags
Ob:invoke_vd
pb:invoke_vf
Mqi:_Regex_get_RightToLeft_m2317867572
m3:__ZNK10GameObject8IsActiveEv
Dfc:__Z34Component_Get_Custom_PropTransformP12Il2CppObject
MQh:__ZL83Canvas_t3310196443_CustomAttributesCacheGenerator_Canvas_get_rootCanvas_m3165691493P21CustomAttributesCache
qQh:__ZL67g_UnityEngine_PhysicsModule_Assembly_CustomAttributesCacheGeneratorP21CustomAttributesCache
Noi:_X509Certificate_get_SignatureAlgorithm_m122054440
LCa:__ZN18GfxFramebufferGLES23SetupDefaultFramebufferEPP17RenderSurfaceBaseS2_N2gl6HandleILNS3_10ObjectTypeE9EEE
O8h:_ReadOnlyCollection_1_get_Item_m3437922467_gshared
G7c:_DefaultControls_CreateDropdown_m3286664171
s6a:__ZN13ScreenManager18RequestOrientationE17ScreenOrientation
SPi:__ZN6il2cpp2vm5Class12SetupMethodsEP11Il2CppClass
Jcc:__Z39DeleteLastPathNameComponentWithAnySlashRKN4core12basic_stringIcNS_20StringStorageDefaultIcEEEE
gmc:__ZN10GUIManager14InitGUIManagerEv
aOg:__Z77RuntimeInvoker_Void_t1185182177_RegexOptionsU26_t1638284957_SByte_t1669577662PFvvEPK10MethodInfoPvPS4_
YYh:__ZL78LayoutRebuilder_t541313304_CustomAttributesCacheGenerator_U3CU3Ef__amU24cache1P21CustomAttributesCache
UYi:__ZNSt3__26vectorIP11Il2CppClassNS_9allocatorIS2_EEE26__swap_out_circular_bufferERNS_14__split_bufferIS2_RS4_EE
Geg:_UInt16_Equals_m642257745
Gwd:_Array_System_Collections_IList_IndexOf_m3301661616
E_h:__ZL164U3CDoFadeU3Ec__Iterator0_t82372153_CustomAttributesCacheGenerator_U3CDoFadeU3Ec__Iterator0_System_Collections_Generic_IEnumeratorU3CobjectU3E_get_Current_m638537340P21CustomAttributesCache
qed:_AssemblyFileVersionAttribute__ctor_m3720707642
eAg:_WaitForSeconds__ctor_m2199082655
prd:_RuntimeResourceSet_CloneDisposableObjectIfPossible_m2725520898
S3d:_HMACSHA384_set_ProduceLegacyHmacValues_m76936446
poc:__Z37Register_UnityEngine_GUIStyle_Cleanupv
Ma:invoke_iiifii
XZe:_SliderEvent__ctor_m3149452941
Tsd:_DeriveBytes__cctor_m1212925033
r3c:_UIBehaviour_OnDestroy_m1613239498
W6b:__ZN8GUILayer12AddToManagerEv
oad:_Graphic_OnDisable_m1097930217
HYi:__ZN6il2cpp6icalls8mscorlib6System8MonoType13IsPointerImplEP20Il2CppReflectionType
Qi:_emscripten_glFramebufferRenderbuffer
GUb:__ZN19CullingGroupManager17CullAndSendEventsERK22SceneCullingParametersiRK13CullingOutputRK8JobFence
dEe:__ZN21InterfaceFuncInvoker3IP12Il2CppObjectP8String_tS1_PS3_E6InvokeEjP11Il2CppClassS1_S3_S1_S4_
gNi:_AnimationLayerMixerPlayable_GetHandle_m3854437798_AdjustorThunk
m1g:_List_1_ToArray_m2949058867_gshared
FIh:__ZL98DataUtility_t2196215967_CustomAttributesCacheGenerator_DataUtility_Internal_GetMinSize_m2628270685P21CustomAttributesCache
eRa:__ZN9Transform30EnsureTransformHierarchyExistsEv
Ecg:_Type_FilterName_impl_m2651733559
uxd:_Array_GetValue_m116098292
kSf:_Dictionary_2_System_Collections_Generic_ICollectionU3CSystem_Collections_Generic_KeyValuePairU3CTKeyU2CTValueU3EU3E_Add_m1448015620_gshared
yec:__Z46Register_UnityEngine_Application_get_isPlayingv
j6h:_Collection_1_ClearItems_m2182923889_gshared
YZb:__ZNSt3__26vectorINS_4pairIN4core12basic_stringIcNS2_20StringStorageDefaultIcEEEEPK17MessageIdentifierEENS_9allocatorISA_EEE12__move_rangeEPSA_SE_SE_
fOb:__ZN14qsort_internal17MedianOfThreeSwapIP17RODataReplacement19ROSorterReplacementEEvT_S4_S4_T0_
Ypf:_String_Split_m3646115398
Mug:_RectOffset_ToString_m2007443979
IOi:__ZNK15dense_hashtableINSt3__24pairIK10KeyWrapperIPK22Il2CppGenericParameterEP11Il2CppClassEES6_N6il2cpp5utils11PointerHashIS4_EEN14dense_hash_mapIS6_S9_SE_NS6_14EqualsComparerINS0_8equal_toIS5_EEEENS0_9allocatorISA_EEE9SelectKeyESJ_SL_E3endEv
Fcc:__ZN17TransformInternal36OnScaleChangedCalculateTransformTypeE15TransformAccess
hNa:__ZN17ArchiveFileSystem10ToAbsoluteEPKc
EUc:__ZN19UnityConnectService15GetPlayerUserIdEv
Dhi:_InvokableCall_1__ctor_m2610016537_gshared
LMf:_Array_InternalArray__IndexOf_TisSByte_t1669577662_m4156538463_gshared
ir:__ZN7mecanim6CRCKeyENS_7eStringE
jac:__ZL12SetPrefValueRKN4core12basic_stringIcNS_20StringStorageDefaultIcEEEERK9PrefValue
YOh:__ZL81GUIStyle_t3956901511_CustomAttributesCacheGenerator_GUIStyle_get_name_m2109418832P21CustomAttributesCache
bia:__ZL30ReconstructParamNamesFromTableIN9ShaderLab20SerializedSubProgram15MatrixParameterEEvRK14dense_hash_mapIiN4core17string_with_labelILi1EEE18SInt32HashFunctionNSt3__28equal_toIiEE13stl_allocatorINS8_4pairIKiS6_EEL18MemLabelIdentifier1ELi16EEERNS8_6vectorIT_NS8_9allocatorISL_EEEE
$8a:__ZN19ShaderPropertySheet20ReservePropertyCountEj
doj:__ZN6il2cpp5utils11StringUtils6PrintfEPKcz
Y9i:__ZNSt3__26vectorIN6il2cpp8metadata18GenericArrayMethodENS_9allocatorIS3_EEE7reserveEj
yma:__ZN15NameToObjectMapI6ShaderNSt3__23mapI4PPtrIS0_EN4core12basic_stringIcNS5_20StringStorageDefaultIcEEEENS1_4lessIS4_EENS1_9allocatorINS1_4pairIKS4_S9_EEEEEENS1_8multimapIS9_S4_NSA_IS9_EENSC_INSD_IKS9_S4_EEEEEEE4FindERSK_
e2a:__ZN24GenerateTypeTreeTransfer21TransferResourceImageE19ActiveResourceImagePKcR13StreamingInfoPvjiPKN5Unity4TypeE
s2h:_Array_Sort_TisVector3_t3722313464_m1030213405_gshared
yjj:__ZN6il2cpp2vm6Object5CloneEP12Il2CppObject
jNh:__ZL94TextGenerator_t3211863866_CustomAttributesCacheGenerator_TextGenerator_Dispose_cpp_m1826354328P21CustomAttributesCache
Qvj:__ZN6il2cpp6icalls8mscorlib6System9Threading5Mutex20CreateMutex_internalEbP12Il2CppStringPb
IMj:_emscripten_glLinkProgram__wrapper
Wkg:_Coroutine_Finalize_m1957108547
Bzi:_KeyBuilder_Key_m2503211157
HXa:__ZNSt3__212__deque_baseI18ReflectionProbeJobNS_9allocatorIS1_EEED2Ev
Ez:__ZN11UnityEngine9Animation27DestroyAnimationSetBindingsEPNS0_20AnimationSetBindingsERN7mecanim6memory9AllocatorE
hia:__ZN15dense_hashtableINSt3__24pairIKiN4core17string_with_labelILi1EEEEEi18SInt32HashFunctionN14dense_hash_mapIiS5_S7_NS0_8equal_toIiEE13stl_allocatorIS6_L18MemLabelIdentifier1ELi16EEE9SelectKeyESA_SD_E13set_empty_keyERKS6_
Lkg:_Component_GetComponentInChildren_m388868270
LZf:_GenericEqualityComparer_1_Equals_m1705889345_gshared
mE:__ZN8Animator12CleanupClassEv
_uc:__Z13TransferFieldI8JSONReadLb0E27Converter_SimpleNativeClassI10RectOffsetEEvRK23StaticTransferFieldInfoR31RuntimeSerializationCommandInfoRT1_
ebd:__ZN21InterfaceFuncInvoker0IiE6InvokeEjP11Il2CppClassP12Il2CppObject
B9e:_FtpWebRequest__cctor_m699542155
_gj:__GLOBAL__sub_I_GenericMetadata_cpp
Xlh:__ZL70RuntimeArray_CustomAttributesCacheGenerator_Array_SetValue_m3412648248P21CustomAttributesCache
A8e:_NameObjectCollectionBase_GetEnumerator_m3677320185
uVb:__Z24CalculateSpotLightBoundsffRK10Matrix4x4fR15SpotLightBounds
cli:_ListPool_1_Get_m3176656818_gshared
vDe:_Dictionary_2_TryGetValue_m3495031886_gshared
yZa:__ZNK13RenderTexture21GetShadowSamplingModeEv
rR:__ZN23CloudWebServicesManager23VirtualRedirectTransferER14SafeBinaryRead
C7e:_PKCS12_AddCertificate_m3857004455
aWe:_GetRayIntersectionAllCallback__ctor_m391992746
IEb:__Z19ShouldTransferFieldR32SerializationCommandQueueBuilder17ScriptingClassPtriR18TransferField_InfoRK20CoreScriptingClasses
ywh:__ZL67RSACryptoServiceProvider_t2683512874_CustomAttributesCacheGeneratorP21CustomAttributesCache
r$g:__Z56RuntimeInvoker_Int32_t2950945753_SpriteState_t1362986479PFvvEPK10MethodInfoPvPS4_
onf:_SecurityElement_IsValidText_m1346599242
c1b:__Z33PPtrToObjectDontLoadNoThreadCheckI8MaterialEPT_4PPtrIS1_E
IHa:__ZN26SinglePassStereoSupportExt21SetStereoMatrixCommonE21MonoOrStereoscopicEye24BuiltinShaderMatrixParamRK10Matrix4x4f
LK:__ZN5audio5mixer22UpdateAudioMixerMemoryERKNS0_18AudioMixerConstantERNS0_16AudioMixerMemoryEfPN4FMOD6SystemEf
cxc:__ZL21InitializeCachedStripPv
sRf:_Dictionary_2_System_Collections_Generic_ICollectionU3CSystem_Collections_Generic_KeyValuePairU3CTKeyU2CTValueU3EU3E_Add_m3652125112_gshared
Oyh:__ZL80Thread_t2300836069_CustomAttributesCacheGenerator_Thread_GetHashCode_m3479107071P21CustomAttributesCache
kcj:__ZN6il2cpp6icalls8mscorlib6System9Threading6Thread23GetCachedCurrentCultureEP12Il2CppThread
dY:__ZNK6Camera22GetWorldToCameraMatrixEv
LCj:runPostSets
Ojj:__ZN6il2cpp2vm12GenericClass11IsValueTypeEP18Il2CppGenericClass
DDb:__ZN13MonoBehaviour7SetNameEPKc
kJe:_MethodDictionary_IsOverridenKey_m946843558
$Td:_FileStream_BeginRead_m2419864669
rki:_U3CStartU3Ec__Iterator0_MoveNext_m4270440387_gshared
ATi:__ZN10KeyWrapperIN6il2cpp5utils13dynamic_arrayIPK10Il2CppTypeLj4EEEEC2ERKS7_
yIb:__ZN17InstancingBatcher22FindCBUpperBoundKonstsEv
T7:__GLOBAL__sub_I_runtime_shaders_shaderimpl_0_cpp
Cgb:__ZN18AwakeFromLoadQueue5ClearEv
wUd:_FileStream_SetLength_m99749826
XTb:__ZNSt3__27__sort5IR15ReflProbeSorterPP15ReflectionProbeEEjT0_S6_S6_S6_S6_T_
qea:__ZN8Playable10DisconnectEPS_i
uk:_glGenTransformFeedbacks
YLa:__ZN13LoadOperationD2Ev
LQh:__ZL86Canvas_t3310196443_CustomAttributesCacheGenerator_Canvas_set_sortingLayerID_m861680532P21CustomAttributesCache
A2f:_List_1_System_Collections_ICollection_get_SyncRoot_m1990178029_gshared
jNd:_Int16_System_IConvertible_ToType_m3672347013
eVe:_Navigation_set_mode_m3709908198_AdjustorThunk
vdg:_Type_GetProperty_m4206634422
gvd:_AttrListImpl_GetValue_m3657391095
tHb:__Z21PlayerStartFirstSceneb
E9g:_List_1_CheckIndex_m3933537097_gshared
Q0a:__ZNSt3__27__sort5IRPFbRKNS_4pairIN9ShaderLab16FastPropertyNameEN18UnityPropertySheet11UnityTexEnvEEES8_EPS6_EEjT0_SD_SD_SD_SD_T_
Yua:__ZNK7ApiGLES18GetExtensionStringEv
d9g:_List_1_System_Collections_IList_IndexOf_m2444653486_gshared
JMg:__Z50RuntimeInvoker_SecurityCompressionType_t4242483129PFvvEPK10MethodInfoPvPS4_
CIj:_emscripten_glVertexAttrib1f__wrapper
sUf:_DefaultComparer_GetHashCode_m402448534_gshared
Ikb:__ZNK12HandlerChain4SizeERK13FileEntryData
Yo:FUNCTION_TABLE_iiiiiiiii
txe:_Enumerator_Dispose_m1360775770_AdjustorThunk
dch:_Collection_1_ClearItems_m1096166028_gshared
Z9h:_ReadOnlyCollection_1_System_Collections_Generic_ICollectionU3CTU3E_Remove_m4177779688_gshared
qCd:_Char_IsLetter_m3996985877
uah:_Queue_1_Peek_m2302800625_gshared
slh:__ZL51Delegate_t1188392813_CustomAttributesCacheGeneratorP21CustomAttributesCache
wCh:__ZL56WeakReference_t1334886716_CustomAttributesCacheGeneratorP21CustomAttributesCache
Q0g:_List_1_AddCollection_m4263017124_gshared
Pqj:_GC_allochblk
AGe:__ZN21InterfaceFuncInvoker1IbP19Context_t3285446944E6InvokeEjP11Il2CppClassP12Il2CppObjectS1_
Mgb:__Z15UnloadGameScenev
rPf:_Array_InternalArray__ICollection_CopyTo_TisKeyframe_t4206410242_m2132255743_gshared
hNj:_glCheckFramebufferStatus__wrapper
Wbd:_Image__ctor_m2551076292
mCe:_Dictionary_2_System_Collections_ICollection_CopyTo_m3143696177_gshared
n5i:__ZN15dense_hashtableINSt3__24pairIK10KeyWrapperIPK14Il2CppAssemblyEPK22Il2CppMonoAssemblyNameEES6_N6il2cpp5utils11PointerHashIS4_EEN14dense_hash_mapIS6_SA_SF_NS6_14EqualsComparerINS0_8equal_toIS5_EEEENS0_9allocatorISB_EEE9SelectKeyESK_SM_E5clearEv
HEg:__Z103RuntimeInvoker_Void_t1185182177_Int32_t2950945753_Int32_t2950945753_Int32_t2950945753_SByte_t1669577662PFvvEPK10MethodInfoPvPS4_
QD:__ZN16MecanimAnimationD0Ev
Okc:__Z36Renderer_Get_Custom_PropSortingOrderP12Il2CppObject
C1i:__ZNK15dense_hashtableINSt3__24pairIK10KeyWrapperIPK10Il2CppTypeEjEES6_N6il2cpp8metadata14Il2CppTypeHashEN14dense_hash_mapIS6_jSB_NS6_14EqualsComparerINSA_26Il2CppTypeEqualityComparerEEENS0_9allocatorIS8_EEE9SelectKeyESF_SH_E13find_positionERS7_
oZa:__ZN7Texture5ResetEv
Itb:__Z18Transfer_BlittableI24GenerateTypeTreeTransferLb0E8Vector2fEvRK29SerializationCommandArgumentsR31RuntimeSerializationCommandInfo
Nwh:__ZL54SHA384Managed_t74158575_CustomAttributesCacheGeneratorP21CustomAttributesCache
gGe:_Context_get_HasDynamicSinks_m3952434387
A6f:_Latin1Encoding_GetByteCount_m1145650505
xtb:__Z18Transfer_BlittableI24GenerateTypeTreeTransferLb1EhEvRK29SerializationCommandArgumentsR31RuntimeSerializationCommandInfo
Hmc:__ZN8GUIState18CycleKeyboardFocusERNSt3__26vectorIP6IDListNS0_9allocatorIS3_EEEEb
rAb:__Z13TransferFieldI18StreamedBinaryReadILb1EELb0E16Converter_StringEvRK23StaticTransferFieldInfoR31RuntimeSerializationCommandInfoRT1_
gVf:_DefaultComparer_GetHashCode_m177499767_gshared
Zab:__ZN10VertexData10DeallocateEv
c$i:__ZNSt3__214__split_bufferIiRNS_9allocatorIiEEEC2EjjS3_
iec:__ZNK16TypeTreeIterator10ByteOffsetEv
VDj:dynCall_iiifii
mda:__ZnwjRKSt9nothrow_t
OC:__ZN8Animator11ClearObjectEv
Gfi:_Nullable_1_GetHashCode_m4232053575_gshared
$vd:_ApplicationException__ctor_m2557611022
J$a:__ZN14SafeBinaryRead19TransferSTLStyleMapINSt3__23mapI39DeprecatedFastPropertyNameSerializationN18UnityPropertySheet11UnityTexEnvENS1_4lessIS3_EENS1_9allocatorINS1_4pairIKS3_S5_EEEEEEEEvRT_17TransferMetaFlags
I6g:_List_1_CheckMatch_m579516778_gshared
Y_h:__ZL117U3CCrossFadeU3Ec__Iterator0_t410743727_CustomAttributesCacheGenerator_U3CCrossFadeU3Ec__Iterator0_Dispose_m3078238516P21CustomAttributesCache
oAd:_Buffer_ByteLengthInternal_m1388208719
zSh:__ZL92PointerEventData_t3807901092_CustomAttributesCacheGenerator_U3CworldNormalU3Ek__BackingFieldP21CustomAttributesCache
TOf:_Array_InternalArray__ICollection_CopyTo_TisInt64_t3736567304_m2845057751_gshared
dec:__Z35UnregisterSerializationCacheBuilderPFv17ScriptingClassPtrR23CachedSerializationDataRbE
Ikh:__ZL52ICloneable_t724424198_CustomAttributesCacheGeneratorP21CustomAttributesCache
BQd:_Int64_System_IConvertible_ToUInt32_m109903525_AdjustorThunk
W3:__Z30GetBuiltinVectorParamArraySize24BuiltinShaderVectorParam
xPf:_Array_InternalArray__ICollection_CopyTo_TisUICharInfo_t75501106_m4268526610_gshared
I0i:__ZNSt3__218uninitialized_copyIPNS_4pairIK10KeyWrapperINS1_IPK14Il2CppAssemblyP11Il2CppClassEEEjEESC_EET0_T_SE_SD_
hZa:__ZN13RenderTextureC2E10MemLabelId18ObjectCreationMode
zNd:_Int32_GetFormatException_m519586683
Wxh:__ZL46StringBuilder_t_CustomAttributesCacheGeneratorP21CustomAttributesCache
C$f:_Enumerator_MoveNext_m1131351993_gshared
Hdd:_RankException__ctor_m2226473861
j5h:_Array_InternalArray__get_Item_TisVector2_t2156229523_m2502961026_gshared
u6:__ZN21RendererUpdateManager11AddRendererER8Renderer
K2b:__Z13RegisterClassI15ResourceManagerEvv
LFi:_AudioConfigurationChangeHandler_Invoke_m1233557945
oob:__Z35Transfer_Blittable_FixedBufferFieldI14SafeBinaryReadsEvRK29SerializationCommandArgumentsR31RuntimeSerializationCommandInfo
cab:__ZN14SafeBinaryRead21TransferSTLStyleArrayI13dynamic_arrayIfLj4EEEEvRT_17TransferMetaFlags
cKd:_Convert_ToDateTime_m3802186295
eoj:__ZN6il2cpp5utils11StringUtils11Utf16ToUtf8EPKDs
lfb:__ZN18StreamedBinaryReadILb0EE21TransferSTLStyleArrayINSt3__26vectorIN15ResourceManager10DependencyE13stl_allocatorIS5_L18MemLabelIdentifier52ELi16EEEEEEvRT_17TransferMetaFlags
zgg:_UInt64_CompareTo_m1614517204_AdjustorThunk
hUc:__ZN11UnityEngine15PlatformWrapper20IsRootedOrJailbrokenEv
cLb:__ZZ23InitPlayerLoopCallbacksvEN52PreLateUpdateScriptRunBehaviourLateUpdateRegistrator7ForwardEv
pVb:__Z33IntersectAABBPlaneBoundsOptimizedRK4AABBPKN4math7_float4Ei
vYb:__ZN19ScriptingInvocation6InvokeI28ScriptingSystemTypeObjectPtrEET_P21ScriptingExceptionPtrb
Wpa:__ZN9GfxDevice19EndGeometryJobFrameEv
xxi:_GUILayoutUtility_Layout_m1159951704
IOe:_InputField_get_shouldActivateOnSelect_m3055465770
RUf:_DefaultComparer_Equals_m2269092119_gshared
rtb:__ZN27Converter_SimpleNativeClassI17AnimationCurveTplIfEE17ScriptingToNativeER18ScriptingObjectPtrPS1_
Dcg:_Type__cctor_m2371893800
Bwj:__ZN6il2cpp8metadata24Il2CppGenericInstCompare7CompareERK10KeyWrapperIPK17Il2CppGenericInstES8_
bSi:__ZNK15dense_hashtableINSt3__24pairIK10KeyWrapperIPK19Il2CppGenericMethodEPK26Il2CppGenericMethodIndicesEES6_N6il2cpp8metadata23Il2CppGenericMethodHashEN14dense_hash_mapIS6_SA_SE_NS6_14EqualsComparerINSD_26Il2CppGenericMethodCompareEEENS0_9allocatorISB_EEE9SelectKeyESI_SK_E5beginEv
S$c:_ExecuteEvents_Execute_m3049310229
xt:__ZN27AnimationLayerMixerPlayable21UpdateLayerParametersEv
_Ih:__ZL84Object_t631007953_CustomAttributesCacheGenerator_Object_DestroyImmediate_m2288369078P21CustomAttributesCache
Njd:__ZN21InterfaceFuncInvoker1IiP12MemberInfo_tE6InvokeEjP11Il2CppClassP12Il2CppObjectS1_
Xwd:_Array_get_IsSynchronized_m3066873806
bw:__ZN7mecanim9animation16CopyMotionOutputEPKNS0_18AnimationNodeStateEPS1_bbRKNS_6bitsetILj83EEE
P0b:__ZNK17AnimationCurveTplIfE8EvaluateEfPNS0_5CacheE
gKb:__Z31ManagerContextInitializeClassesv
gai:_ReadOnlyCollection_1_System_Collections_IList_Contains_m2650112051_gshared
dHf:_Array_get_swapper_TisVector3_t3722313464_m1221246401_gshared
Q9h:_ReadOnlyCollection_1_CopyTo_m1950082901_gshared
WEc:_ft_smooth_transform
qFc:_UNITY_FT_List_Finalize
iwj:__ZN6il2cpp6icalls8mscorlib6System7Runtime8Remoting10Activation18ActivationServices34AllocateUninitializedClassInstanceEP20Il2CppReflectionType
iPb:__Z20LightAttenuateApproxRKfS0_
k7:__ZN9Scripting30SetCachedPtrOnScriptingWrapperE18ScriptingObjectPtrP6Object
yHd:_HashKeys_get_IsSynchronized_m174400341
QW:__ZN17LowLevelAllocator6MallocEj
OWg:__Z57RuntimeInvoker_Int32_t2950945753_KeyValuePair_2_t71524366PFvvEPK10MethodInfoPvPS4_
fji:_UnityEvent_1__ctor_m1789019280_gshared
ahf:_RepeatContext_get_IsMinimum_m3640286252
VBg:__Z64RuntimeInvoker_Boolean_t97287965_RuntimeObject_Int32_t2950945753PFvvEPK10MethodInfoPvPS4_
dme:_InternalEnumerator_1__ctor_m4055378331_AdjustorThunk
VNe:_ObjectRecord_ChainFixup_m1889316362
KUa:__ZN18BlockRangeInternal16PopLastNodeIndexEP10BlockRangeji
zpj:__ZN6il2cpp2vm13CachedCCWBaseINS0_13ManagedObjectEE6AddRefEv
M2i:__ZN6il2cpp2gc19AppendOnlyGCHashMapINSt3__24pairIPK11Il2CppImageP11Il2CppClassEEP22Il2CppReflectionModule17ReflectionMapHashIS9_ENS2_8equal_toIS9_EEE10CopyValuesEPv
f3c:_TouchInputModule_UpdateModule_m2582897964
y9a:__ZN4MeshD0Ev
uZc:__ZL42RequestRecreateEyeTexturesBeforeNextUpdatev
CEa:__ZNK6Camera20IsCurrentlyRenderingEv
kv:__ZN21AnimationClipPlayable23ProcessRootMotionNoClipEPK35AnimationPlayableEvaluationConstantPK32AnimationPlayableEvaluationInputP33AnimationPlayableEvaluationOutput
_Qc:__Z36CanvasRenderer_CUSTOM_SetPopMaterialP12Il2CppObjectS0_i
Brc:__Z18Transfer_BlittableI9JSONWriteLb0EdEvRK29SerializationCommandArgumentsR31RuntimeSerializationCommandInfo
Gpf:_String_System_IConvertible_ToDouble_m3740733360
DSa:__ZN6Camera8TransferI19StreamedBinaryWriteILb0EEEEvRT_
$wf:_DBNull_System_IConvertible_ToSByte_m3533624679
Ryj:_wctomb
gCd:_Char_CompareTo_m42489266
oYg:__Z67RuntimeInvoker_Void_t1185182177_Int32_t2950945753_Double_t594665363PFvvEPK10MethodInfoPvPS4_
jfc:__Z27Camera_CUSTOM_GetAllCamerasP11Il2CppArray
EDb:__ZNK13MonoBehaviour25GetNeedsPerObjectTypeTreeEv
AAb:__Z35Transfer_Blittable_FixedBufferFieldI18StreamedBinaryReadILb0EEiEvRK29SerializationCommandArgumentsR31RuntimeSerializationCommandInfo
Wc:___cxa_rethrow
Ppd:_ParameterInfo_GetCustomAttributes_m2376494592
etc:__Z18Transfer_BlittableI8JSONReadLb1EhEvRK29SerializationCommandArgumentsR31RuntimeSerializationCommandInfo
gad:_Graphic_get_canvasRenderer_m315509948
Ieh:_Collection_1_System_Collections_IList_Contains_m3397768605_gshared
hVe:_Navigation_set_selectOnUp_m827629728_AdjustorThunk
_Pg:__Z90RuntimeInvoker_Void_t1185182177_Int64_t3736567304_Int32_t2950945753_RuntimeObject_IntPtr_tPFvvEPK10MethodInfoPvPS4_
IIj:_glBindRenderbuffer__wrapper
r3h:_Dictionary_2_Do_CopyTo_TisInt32_t2950945753_TisInt32_t2950945753_m3384108308_gshared
ccc:__ZN10systeminfo23SupportsLocationServiceEv
SEf:_CultureInfo_construct_internal_locale_from_name_m3254739477
pfe:_RSASslSignatureDeformatter_VerifySignature_m1061897602
b6e:_RSAManaged_remove_KeyGenerated_m2046909903
v4d:_RandomNumberGenerator_Create_m4162970280
cQf:_Array_InternalArray__Insert_TisLabelFixup_t858502054_m171542753_gshared
Hse:_InternalEnumerator_1_System_Collections_IEnumerator_get_Current_m3539708496_AdjustorThunk
wlb:__ZN20LocalFileSystemPosix4ReadER13FileEntryDatayyPvPy
GSb:__ZNSt3__211__sift_downIRN23ForwardShaderRenderLoop18RenderObjectSorterILb0EEEP21ForwardRenderPassDataEEvT0_S7_T_NS_15iterator_traitsIS7_E15difference_typeES7_
$lf:_SecurityPermission__ctor_m1462427327
hFj:dynCall_iiiiiiffiiiiiiiiiffffiiii
TDb:__ZN13MonoBehaviour5DoGUIENS_13GUILayoutTypeEii
MDe:_ChannelData_get_ClientProviders_m594662942
bsi:_QuickSearch_GetChar_m1297698557
OKa:__ZNK12TLSAllocatorI14StackAllocatorE8ContainsEPKv
Lcb:__ZN11TimeManager8TransferI18StreamedBinaryReadILb0EEEEvRT_
ZAg:__Z68RuntimeInvoker_Boolean_t97287965_Int16_t2552820387_SByte_t1669577662PFvvEPK10MethodInfoPvPS4_
yvf:_DateTime__ParseEnum_m253019513
hMd:_Convert_ToUInt32_m2194577773
Kmf:_PermissionSet__ctor_m2328457660
J6:__ZN15dense_hashtableINSt3__24pairIKyP17VertexDeclarationEEy14GfxGenericHashIyEN14GfxDoubleCacheIyS4_S7_NS0_8equal_toIyEEN31GfxDoubleCacheConcurrencyPolicy11LocklessGetE42GfxDoubleCacheDefaultEmptyDeletedGeneratorIyEE9SelectKeyESA_13stl_allocatorIS5_L18MemLabelIdentifier24ELi16EEE12resize_deltaEjj
hHd:_Hashtable_Remove_m4032631466
E4e:_DSAManaged_GenerateKeyPair_m2236915969
sDh:__ZL91RSASslSignatureFormatter_t2709678514_CustomAttributesCacheGenerator_U3CU3Ef__switchU24map16P21CustomAttributesCache
S1a:__ZN7Texture25ReloadFromStorageIfNeededEPvb
fMf:_Array_InternalArray__IndexOf_TisBoolean_t97287965_m1161209222_gshared
svj:__ZN6il2cpp2os12Cryptography24OpenCryptographyProviderEv
pQh:__ZL55RaycastHit2D_t2279581989_CustomAttributesCacheGeneratorP21CustomAttributesCache
OEd:_SynchronizedArrayListWrapper_Clear_m2191301493
sGc:_Update_Max
ybj:__ZN6il2cpp6icalls8mscorlib6SystemL15ThrowNoWideningEv
_0b:__ZNK23TransformChangeDispatch24GetChangeMaskForInterestENS_12InterestTypeE
Ujc:__Z45Transform_CUSTOM_INTERNAL_CALL_TransformPointP12Il2CppObjectRK8Vector3fRS1_
gjd:_GenericTypeParameterBuilder_InvokeMember_m1647304778
Tbd:_HorizontalOrVerticalLayoutGroup_set_childControlWidth_m3261460516
_$a:__ZNSt3__26__treeINS_12__value_typeI39DeprecatedFastPropertyNameSerializationfEENS_19__map_value_compareIS2_S3_NS_4lessIS2_EELb1EEENS_9allocatorIS3_EEE7destroyEPNS_11__tree_nodeIS3_PvEE
mEc:_tt_cmap4_char_index
O3c:_AspectRatioFitter_GetParentSize_m3159144324
jof:_SecurityFrame_get_Assembly_m2874566710
pje:_InternalEnumerator_1__ctor_m2336656763_AdjustorThunk
V9g:_Enumerator_System_Collections_IEnumerator_Reset_m1487823313_gshared
Skb:__ZNK12HandlerChain8IsHiddenERK13FileEntryData
K0g:_List_1_System_Collections_IList_get_IsFixedSize_m1752888098_gshared
Hsb:__ZL26Transfer_SimpleNativeClassI17RemapPPtrTransfer10RectOffsetLb0EEvRK29SerializationCommandArgumentsR31RuntimeSerializationCommandInfo
mLc:__Z14ValidateFormatR13dynamic_arrayIN20TextRenderingPrivate16TextFormatChangeELj4EE
ZYe:_ScrollRect_CalculateLayoutInputVertical_m3155297482
_Pd:_Int32_ToString_m2507389746_AdjustorThunk
izf:_Decimal_op_Explicit_m438967917
Nuh:__ZL55IChannelInfo_t3866172133_CustomAttributesCacheGeneratorP21CustomAttributesCache
ANi:_AnimatorControllerPlayable_SetHandle_m2260644454_AdjustorThunk
vCf:_Environment_get_SocketSecurityEnabled_m190813817
yPg:__Z53RuntimeInvoker_Void_t1185182177_Vector4U26_t200349727PFvvEPK10MethodInfoPvPS4_
ELh:__ZL57UnityEventBase_t3960448221_CustomAttributesCacheGeneratorP21CustomAttributesCache
GVd:_NullStream_Flush_m3382897993
Bja:__ZNSt3__26vectorIN9ShaderLab20SerializedSubProgram13BufferBindingENS_9allocatorIS3_EEEC2ERKS6_
tPe:_InputField_set_selectionColor_m2084640295
p3h:_Dictionary_2_Do_CopyTo_TisKeyValuePair_2_t2401056908_TisKeyValuePair_2_t2401056908_m676905794_gshared
S3:__ZNK9ShaderLab20ShaderBlendStateDesc15ToGfxBlendStateEPK19ShaderPropertySheetS3_R13GfxBlendState
KEe:_ConfigHandler_OnIgnorableWhitespace_m278399491
$zh:__ZL77Convert_t2465617642_CustomAttributesCacheGenerator_Convert_ToInt64_m260173354P21CustomAttributesCache
iz:__ZN11UnityEngine9AnimationL22GenericBindingCallbackEPvS1_i
ZFc:_Compute_Point_Displacement
aoa:__ZN9ShaderLab9IntShaderC2Ev
jfi:_Func_3__ctor_m1375075958_gshared
OYi:__ZN6il2cpp6icalls8mscorlib6SystemL9IsPrivateEPK9EventInfo
jvj:__ZN6il2cpp6icalls8mscorlib6System10Reflection4Emit11TypeBuilder20setup_internal_classEP27Il2CppReflectionTypeBuilderS7_
Tac:__Z18TransformPoints3x4RK10Matrix4x4fPK8Vector3fjPS2_ji
aDh:__ZL72PKCS12_t4101533061_CustomAttributesCacheGenerator_U3CU3Ef__switchU24mapCP21CustomAttributesCache
EMf:_Array_InternalArray__IndexOf_TisILTokenInfo_t2325775114_m2602704009_gshared
WHh:__ZL52Matrix4x4_t1817901843_CustomAttributesCacheGeneratorP21CustomAttributesCache
BRf:_Dictionary_2_System_Collections_IDictionary_GetEnumerator_m972834308_gshared
w4g:_List_1_System_Collections_ICollection_get_IsSynchronized_m967177678_gshared
p7f:_StringBuilder_AppendFormat_m3255666490
Add:_OverflowException__ctor_m4029085969
Xld:_TypeBuilder_GetGenericArguments_m2872156836
dJe:_MethodCall_get_Uri_m1720935531
sOi:__ZN13Il2CppHashMapIPK22Il2CppGenericParameterP11Il2CppClassN6il2cpp5utils11PointerHashIS1_EENSt3__28equal_toIS2_EENS9_9allocatorINS9_4pairIK10KeyWrapperIS2_ES4_EEEEEC2EjRKS8_RKSB_
q5e:_KeyPairPersistence_Remove_m1876145547
xMa:__Z15CreateDirectoryRKN4core12basic_stringIcNS_20StringStorageDefaultIcEEEE
wYa:__Z21CalculateGlobalMatrix23TransformAccessReadOnly
Yld:_TypeBuilder_GetGenericTypeDefinition_m1632720438
sHf:_Array_InternalArray__ICollection_Contains_TisLink_t544317964_m163190451_gshared
pwf:_DateTimeOffset_System_IComparable_CompareTo_m176229495_AdjustorThunk
Yog:_ManagedStreamHelpers_ValidateLoadFromStream_m580138133
sPh:__ZL104GUIUtility_t1868551600_CustomAttributesCacheGenerator_GUIUtility_EndContainerGUIFromException_m530164245P21CustomAttributesCache
Qcb:__ZNK13BuildSettings22GetTypeVirtualInternalEv
v9c:_FontData_get_alignByGeometry_m2805576119
_me:_InternalEnumerator_1__ctor_m1486034688_gshared
Lxb:__Z35Transfer_Blittable_FixedBufferFieldI18StreamedBinaryReadILb1EEhEvRK29SerializationCommandArgumentsR31RuntimeSerializationCommandInfo
gzh:__ZL56AppDomainSetup_t123196401_CustomAttributesCacheGeneratorP21CustomAttributesCache
K7g:_List_1_CheckIndex_m2250397830_gshared
I2b:__Z13RegisterClassI14RenderSettingsEvv
psg:_PlayableOutput_GetHandle_m777137769_AdjustorThunk
HKi:_FontTextureRebuildCallback_EndInvoke_m3732346867
z:tempBigIntI
zhf:_Interval_get_Empty_m3617514670
n_g:__Z31RuntimeInvoker_Mark_t3471605523PFvvEPK10MethodInfoPvPS4_
ced:_Assembly_GetName_m981771927
uEh:__ZL53RegexOptions_t92845595_CustomAttributesCacheGeneratorP21CustomAttributesCache
zx:__ZN7mecanim12statemachine24CreateStateMachineOutputEPKNS0_20StateMachineConstantEjRNS_6memory9AllocatorE
Mjj:__ZN6il2cpp2vm12GenericClass8GetClassEP18Il2CppGenericClass
vqa:__ZNK9GfxDevice27GetActiveRenderSurfaceWidthEv
WIi:__ZL25UnresolvedVirtualCall_161P12Il2CppObject20UICharInfo_t75501106S1_PK10MethodInfo
BTh:__ZL114StandaloneInputModule_t2760469101_CustomAttributesCacheGenerator_StandaloneInputModule_ForceAutoSelect_m2837047882P21CustomAttributesCache
UTc:__ZN11UnityEngine15PlatformWrapper28GetCleanGraphicsFixedVersionEv
UUe:_MaskableGraphic_RecalculateClipping_m1772937317
kYd:_UnmanagedMemoryStream_SetLength_m3752964620
nmb:__ZN16MemoryFileSystem5WriteER13FileEntryDatayyPvPy
jge:_SslStreamBase_RaiseLocalPrivateKeySelection_m4112368540
K$i:__ZN6il2cpp2vm4Type7GetTypeEPK10Il2CppType
xKc:_open_face_PS_from_sfnt_stream
Bne:_InternalEnumerator_1_get_Current_m165106323_AdjustorThunk
$7f:_UTF32Encoding_GetByteCount_m3610769032
oAa:__ZN6prcoreL17RemapGenericFloatI18TexFormatRGBAFloat17TexFormatRGBAHalfEEvPKNS_9InnerInfoE
GLb:__Z16FindCameraStacksRKNSt3__24listI4PPtrI6CameraENS_9allocatorIS3_EEEERNS_6vectorI11CameraStackNS4_ISA_EEEE
Vqi:_MatchCollection_CopyTo_m3807326147
p4a:__ZN10GISettings8TransferI14SafeBinaryReadEEvRT_
un:FUNCTION_TABLE_vifff
KXh:__ZL54Text_t1901882714_CustomAttributesCacheGenerator_m_TextP21CustomAttributesCache
k4d:_MD5CryptoServiceProvider__ctor_m3271163125
bZb:__ZN19CustomRenderTexture12ClearGPUDataEv
Oki:_ListPool_1_Get_m2875520964_gshared
ryh:__ZL95UnicodeEncoding_t1959134050_CustomAttributesCacheGenerator_UnicodeEncoding_GetBytes_m3223155660P21CustomAttributesCache
xZa:__ZN13RenderTexture13ApplySettingsEv
VMe:_ObjectReader_RegisterObject_m1853376334
Jkd:_ModuleBuilderTokenGenerator_GetToken_m2588853565
Azd:_Boolean_System_IConvertible_ToDecimal_m3176932461_AdjustorThunk
Ue:_JS_Sound_SetListenerPosition
mn:FUNCTION_TABLE_fiffi
$Og:__Z54RuntimeInvoker_Int32_t2950945753_LayerMask_t3493934918PFvvEPK10MethodInfoPvPS4_
FYe:_ScrollRect_OnInitializePotentialDrag_m3139711961
PKa:__ZNK12TLSAllocatorI14StackAllocatorE10GetPtrSizeEPKv
aai:_ReadOnlyCollection_1_System_Collections_Generic_IListU3CTU3E_set_Item_m711370667_gshared
tgj:__ZNK15dense_hashtableINSt3__24pairIK10KeyWrapperINS1_IPKcS4_EEEiEES6_24NamespaceAndNamePairHashN14dense_hash_mapIS6_iS9_NS6_14EqualsComparerI26NamespaceAndNamePairEqualsEENS0_9allocatorIS8_EEE9SelectKeyESD_SF_E10test_emptyERK24dense_hashtable_iteratorIS8_S6_S9_SH_SD_SF_E
dfd:_Default_check_arguments_with_score_m3467814020
lKj:_glGetActiveUniform__wrapper
OWd:_StreamWriter_LowLevelWrite_m1081676583
G1f:_Enumerator__ctor_m3875432026_AdjustorThunk
Mda:__ZZN15DirectorManager15InitializeClassEvEN45FixedUpdateDirectorFixedSampleTimeRegistrator7ForwardEv
Iib:__ZNK8Material16MarkDependenciesER27GarbageCollectorThreadState
c_e:_Slider_set_handleRect_m1101657556
Dwf:_DateTimeOffset_ToString_m3985341516_AdjustorThunk
Xih:_Collection_1_System_Collections_IList_Contains_m3348135931_gshared
Erc:__ZL17Transfer_GUIStyleI9JSONWriteLb0EEvRK29SerializationCommandArgumentsR31RuntimeSerializationCommandInfo
aQb:__Z28GetHaloVertexPositionsStereoP8Vector3fRKS_S2_f
dBa:__ZN6prcoreL27StretchGenericFloatBilinearI15TexFormatRGHalfEEvPKNS_9InnerInfoE
uKi:__ZL25UnresolvedVirtualCall_241P12Il2CppObjectiPK10MethodInfo
P7:__GLOBAL__sub_I_runtime_misc_0_cpp
pCe:_Dictionary_2_System_Collections_IDictionary_GetEnumerator_m751864982_gshared
_Ff:_SortKey_GetHashCode_m3547067087
YAb:__Z18Transfer_BlittableI18StreamedBinaryReadILb0EELb1E9BoundsIntEvRK29SerializationCommandArgumentsR31RuntimeSerializationCommandInfo
GXh:__ZL71SpriteState_t1362986479_CustomAttributesCacheGenerator_m_DisabledSpriteP21CustomAttributesCache
ucf:_PublicKey_DecodeDSA_m3490622362
wic:__Z49Register_UnityEngine_Resources_GetBuiltinResourcev
sdg:_Type_GetMethod_m1479779718
$Dc:_tt_cmap10_char_index
dmi:_TlsException__ctor_m3242533711
c7d:_BitConverterLE_GetUIntBytes_m795219058
z5:__Z18GetITerrainManagerv
fId:_SortedList__ctor_m3676552745
WOi:__ZN15dense_hashtableINSt3__24pairIK10KeyWrapperIPK22Il2CppGenericParameterEP11Il2CppClassEES6_N6il2cpp5utils11PointerHashIS4_EEN14dense_hash_mapIS6_S9_SE_NS6_14EqualsComparerINS0_8equal_toIS5_EEEENS0_9allocatorISA_EEE9SelectKeyESJ_SL_E3endEv
cRi:__ZNK15dense_hashtableINSt3__24pairIK10KeyWrapperIPK11Il2CppClassEPKcEES6_N6il2cpp5utils11PointerHashIS3_EEN14dense_hash_mapIS6_S9_SE_NS6_14EqualsComparerINS0_8equal_toIS5_EEEENS0_9allocatorISA_EEE9SelectKeyESJ_SL_E8min_sizeEjj
dqb:__Z35Transfer_Blittable_SingleValueFieldI14SafeBinaryReadjEvRT_R17GeneralMonoObjectRK23StaticTransferFieldInfo
PP:__ZN11AudioSource24ClearExtensionPropertiesE12PropertyName
o0h:_Array_InternalArray__set_Item_TisColor32_t2600501292_m1891325855_gshared
Hla:__ZN9ShaderLab22SerializedBindChannels8TransferI19StreamedBinaryWriteILb0EEEEvRT_
uDg:__Z52RuntimeInvoker_Decimal_t2948259380_Int32_t2950945753PFvvEPK10MethodInfoPvPS4_
Tqb:__ZN15SerializeTraitsI5RectTIiEE8TransferI14SafeBinaryReadEEvRS1_RT_
jnc:__ZN5IMGUI20MoveWindowFromLayoutER8GUIStateiRK5RectTIfE
pKg:__Z50RuntimeInvoker_SByte_t1669577662_Int64_t3736567304PFvvEPK10MethodInfoPvPS4_
FAc:_UNITY_FT_Stream_ReadUShort
ngh:_Collection_1_System_Collections_IList_get_Item_m1677338752_gshared
ahc:__Z51Register_UnityEngine_GUILayer_INTERNAL_CALL_HitTestv
Mha:__ZNSt3__26__treeINS_12__value_typeIN4core12basic_stringIcNS2_20StringStorageDefaultIcEEEES6_EENS_19__map_value_compareIS6_S7_NS_4lessIS6_EELb1EEE13stl_allocatorIS7_L18MemLabelIdentifier1ELi16EEE7destroyEPNS_11__tree_nodeIS7_PvEE
fhd:_DerivedType_IsAssignableFrom_m1623073368
VYf:_EqualityComparer_1_get_Default_m1095255266_gshared
dwa:__Z13IsDepthFormat14GraphicsFormat
beb:__ZN12AspectRatios8TransferI24GenerateTypeTreeTransferEEvRT_
c_d:_MonoType_GetFields_m4176012508
j_h:__ZL74EndingController_t1669716513_CustomAttributesCacheGenerator_continueButtonP21CustomAttributesCache
Cwc:__Z12FormatBufferPciPKcz
etf:_CurrentSystemTimeZone_GetTimeZoneData_m2641861607
PIc:__ZN15SerializeTraitsI13dynamic_arrayI4PPtrIN13TextRendering4FontEELj4EEE19ResizeSTLStyleArrayERS5_i
WWf:_EqualityComparer_1_System_Collections_IEqualityComparer_GetHashCode_m3423304513_gshared
bqh:__ZL57FileSystemInfo_t3745885336_CustomAttributesCacheGeneratorP21CustomAttributesCache
hPi:__ZN6il2cpp2vm5Class13GetArrayClassEP11Il2CppClassj
z2c:_StandaloneInputModule_set_inputActionsPerSecond_m4057208843
FHb:__ZN19RuntimeSceneManager18LoadSceneAsyncIntoER10UnitySceneRKN4core12basic_stringIcNS2_20StringStorageDefaultIcEEEENS_11LoadingModeEb
GXd:_TextWriter_Write_m164803641
Zqc:__Z35Transfer_Blittable_FixedBufferFieldI9JSONWritetEvRK29SerializationCommandArgumentsR31RuntimeSerializationCommandInfo
qnc:__ZN11IMGUIModule12AddGUIScriptER8ListNodeI13MonoBehaviourE
nb:invoke_difi
uxi:_GUILayoutUtility_BeginWindow_m2240221150
gJj:_glDeleteSamplers__wrapper
S4e:_KeyGeneratedEventHandler_EndInvoke_m1628355235
P7e:_HybridDictionary_set_Item_m2997363718
nQb:__ZN29MotionVectorRenderLoopScratch15ThreadedCleanupEv
ULa:__ZNSt3__26__treeIiNS_4lessIiEE13stl_allocatorIiL18MemLabelIdentifier1ELi16EEE7destroyEPNS_11__tree_nodeIiPvEE
dte:_InternalEnumerator_1_get_Current_m1477715453_AdjustorThunk
rja:__ZN15SerializeTraitsI13dynamic_arrayItLj2EEE19ResizeSTLStyleArrayERS1_i
rgg:_UInt64_System_IConvertible_ToUInt32_m2784653358
Kva:__ZN21GLESGpuProgramApplier11ApplyVectorERKN20GpuProgramParameters14ValueParameterEPK8Vector4ft
LUb:__Z17PrepareSceneNodesP11CullResults
aBa:__ZN6prcoreL27StretchGenericFloatBilinearI18TexFormatRGBAFloatEEvPKNS_9InnerInfoE
_ej:__ZN15dense_hashtableINSt3__24pairIK10KeyWrapperIP14Il2CppIUnknownEjEES5_N6il2cpp5utils11PointerHashIS3_EEN14dense_hash_mapIS5_jSB_NS5_14EqualsComparerINS0_8equal_toIS4_EEEENS0_9allocatorIS7_EEE9SelectKeyESG_SI_E12expand_arrayEjN21dense_hash_map_traits17integral_constantIbLb0EEE
F0d:_SByte_System_IConvertible_ToDecimal_m2548745278
Fxc:_cff_size_done
kVb:__ZN29ExtractProjectionPlanesHelperILb1EE5ApplyERK10Matrix4x4fP5Plane
n7b:__ZN13ProduceHelperI7CubemapLb0EE7ProduceE10MemLabelId18ObjectCreationMode
tZb:__ZN6Camera34UpdatePreviousViewProjectionMatrixEv
Bma:__ZN9ShaderLab11ShaderState25RemoveUnsupportedProgramsEPK6Shader
kMc:__Z28Font_Get_Custom_PropMaterialP12Il2CppObject
rpg:_Mathf_Abs_m3281243566
nXd:_SynchronizedWriter_WriteLine_m1552352268
vrd:_DefaultDependencyAttribute__ctor_m502524668
rNg:__Z44RuntimeInvoker_X509KeyUsageFlags_t1431795504PFvvEPK10MethodInfoPvPS4_
Zbc:__Z26scripting_class_has_parent17ScriptingClassPtrS_
Oba:__ZN13RuntimeStaticI21AssetReferenceStorageLb0EE16StaticInitializeEPv
GVc:__ZNSt3__26__treeINS_12__value_typeIN4core12basic_stringIcNS2_20StringStorageDefaultIcEEEEN11UnityEngine7Connect19RemoteSettingsValueEEENS_19__map_value_compareIS6_SA_NS_4lessIS6_EELb1EEE13stl_allocatorISA_L18MemLabelIdentifier6ELi16EEE16__construct_nodeERKNS_4pairIKS6_S9_EE
ePd:_Int32_System_IConvertible_ToByte_m3832391412_AdjustorThunk
vQ:__Z71Register_UnityEngine_AudioSource_INTERNAL_CALL_ClearExtensionPropertiesv
bmh:__ZL81RuntimeArray_CustomAttributesCacheGenerator_Array_GetValue_m116098292____indices0P21CustomAttributesCache
yC:__ZNK8Animator20IsInMatchTargetStateEv
npe:_InternalEnumerator_1_System_Collections_IEnumerator_get_Current_m4088805473_gshared
Xnc:__Z36Register_UnityEngine_GUI_set_changedv
pGe:_Context_GetServerContextSinkChain_m3154465897
yrd:_FixedBufferAttribute_get_Length_m1478886548
dWe:_GetRayIntersectionAllCallback_EndInvoke_m1583561415
myi:_GUIStyle_get_fixedHeight_m2868324709
kLd:_Convert_ToInt64_m2075293963
Kvj:__GLOBAL__sub_I_Il2CppCodeRegistration_cpp
Ww:__ZN27AnimationLayerMixerPlayable18SetInputConnectionEP8Playablei
Fw:__ZN7mecanim28TransformValueArrayBlendNodeEiiiRKNS_10ValueArrayERKNS_14ValueArrayMaskERS0_RS3_RNS_16ValueArrayWeightEf
yLf:__ZN21InterfaceFuncInvoker2Ii20UICharInfo_t75501106S0_E6InvokeEjP11Il2CppClassP12Il2CppObjectS0_S0_
Bii:_UnityAction_2_BeginInvoke_m1322091188_gshared
i8c:_Dropdown_set_value_m1048320169
zVa:__ZN20TierGraphicsSettings8TransferI18StreamedBinaryReadILb0EEEEvRT_
DPd:_Int32_System_IConvertible_ToUInt64_m2502338186_AdjustorThunk
vfa:__Z33CleanupCubemapGPUUtilityMaterialsPv
Q$a:__ZN14SafeBinaryRead8TransferINSt3__24pairIN9ShaderLab16FastPropertyNameE10ColorRGBAfEEEEvRT_PKc17TransferMetaFlags
WNi:__ZL9rshift128PyS_
qud:__ZN23InterfaceActionInvoker1IP25SmallXmlParser_t973787839E6InvokeEjP11Il2CppClassP12Il2CppObjectS1_
T0f:_Enumerator_VerifyState_m169680537_AdjustorThunk
F6i:__ZN14dense_hash_mapI10KeyWrapperINSt3__24pairIPK12PropertyInfoP11Il2CppClassEEEj17ReflectionMapHashIS8_ENS9_14EqualsComparerINS1_8equal_toIS8_EEEENS1_9allocatorINS2_IKS9_jEEEEE13set_empty_keyERSH_
Ng:_glRenderbufferStorage
Rfj:__ZNK15dense_hashtableINSt3__24pairIK10KeyWrapperINS1_IPKcS4_EEEiEES6_24NamespaceAndNamePairHashN14dense_hash_mapIS6_iS9_NS6_14EqualsComparerI26NamespaceAndNamePairEqualsEENS0_9allocatorIS8_EEE9SelectKeyESD_SF_E13find_positionERS7_
Ehc:__Z45Register_UnityEngine_Input_get_touchSupportedv
YTc:__ZN11UnityEngine15PlatformWrapper28GetTextureFormatSupportFlagsEv
GCc:_sfnt_is_postscript
l_b:__ZNSt3__26vectorINS_4pairIN4core12basic_stringIcNS2_20StringStorageDefaultIcEEEES6_EE13stl_allocatorIS7_L18MemLabelIdentifier38ELi16EEE26__swap_out_circular_bufferERNS_14__split_bufferIS7_RSA_EEPS7_
wvi:_Uri_EscapeString_m3864445955
syc:_cf2_setError
WYh:__ZL78LayoutRebuilder_t541313304_CustomAttributesCacheGenerator_U3CU3Ef__mgU24cache0P21CustomAttributesCache
P9a:__ZN14SafeBinaryRead21TransferSTLStyleArrayI13dynamic_arrayI12BoneWeights4Lj16EEEEvRT_17TransferMetaFlags
owe:_Enumerator_MoveNext_m465222849_AdjustorThunk
DKb:__ZZ23InitPlayerLoopCallbacksvEN35PreUpdateSendMouseEventsRegistrator7ForwardEv
Glf:_X509Certificate__ctor_m1321742168
YRe:_U3CMouseDragOutsideRectU3Ec__Iterator1_System_Collections_Generic_IEnumeratorU3CobjectU3E_get_Current_m3688496850
EEa:__ZNK6Camera25GetNormalizedViewportRectEP13RenderTextureb
j8c:_Dropdown_Awake_m3140021404
_g:_glDisable
TXg:__Z52RuntimeInvoker_Void_t1185182177_UriScheme_t722425697PFvvEPK10MethodInfoPvPS4_
UZa:__ZN13RenderTexture8TransferI24GenerateTypeTreeTransferEEvRT_
wsh:__ZL53IsVolatile_t2097058663_CustomAttributesCacheGeneratorP21CustomAttributesCache
bzg:_Vector2_get_sqrMagnitude_m837837635
hKa:__ZN4PPtrI9Texture2DE8TransferI14SafeBinaryReadEEvRT_
zoj:__ZN6il2cpp5utils11StringUtils15StringDuplicateEPKDsj
qE:__ZZN8Animator15InitializeClassEvEN37FunctorImpl_417kDidModifyOverrideClip4CallEPviR11MessageData
kti:_Regex_Match_m4145799399
Dv:__ZN17AnimationPlayable17ProcessRootMotionEP35AnimationPlayableEvaluationConstantP32AnimationPlayableEvaluationInputP33AnimationPlayableEvaluationOutput
Qqf:_String_IsNullOrEmpty_m2969720369
Pze:_Enumerator_MoveNext_m2602845255_gshared
sLi:_TextGenerator_GetPreferredHeight_m3514897836
p2e:_BigInteger_LowestSetBit_m3082714978
NBg:__Z78RuntimeInvoker_Int16_t2552820387_RuntimeObject_Int32_t2950945753_RuntimeObjectPFvvEPK10MethodInfoPvPS4_
VNj:b118
WNj:b119
dJh:__ZL81Object_t631007953_CustomAttributesCacheGenerator_Object_set_hideFlags_m1648752846P21CustomAttributesCache
BLb:__ZNK8Material12GetPassCountEv
djf:_RSAParameters_t1728406613_marshal_pinvoke
Ihf:_Interval_IsDisjoint_m1532171337_AdjustorThunk
PNj:b112
PCj:_bitshift64Ashr
RNj:b114
SNj:b115
TNj:b116
UNj:b117
YTi:__ZN30dense_hashtable_const_iteratorINSt3__24pairIK10KeyWrapperIN6il2cpp5utils13dynamic_arrayIPK10Il2CppTypeLj4EEEEPFvvEEESA_NS3_8metadata19Il2CppSignatureHashEN14dense_hash_mapISA_SD_SG_NSA_14EqualsComparerINSF_22Il2CppSignatureCompareEEENS0_9allocatorISE_EEE9SelectKeyESK_SM_E30advance_past_empty_and_deletedEv
kEj:dynCall_diii
UTe:_LayoutUtility_GetFlexibleWidth_m22831835
FMe:_BinaryFormatter__ctor_m971003555
rie:_ArrayReadOnlyList_1_ReadOnlyError_m865416608_gshared
PNg:__Z91RuntimeInvoker_Void_t1185182177_Int32_t2950945753_Int32U26_t1369213839_Int32U26_t1369213839PFvvEPK10MethodInfoPvPS4_
emg:_DisplaysUpdatedDelegate_EndInvoke_m3857124817
XFd:_CollectionBase_System_Collections_IList_get_Item_m3743372945
xEf:_CultureInfo_get_Name_m3662098416
Dxa:__ZN4crnd12crn_unpacker22decode_alpha_endpointsEv
nah:_Queue_1__ctor_m2068090025_gshared
RVb:__Z23CullDynamicObjectsUmbraPK4AABBPKN5Umbra15OcclusionBufferER9IndexList
gge:_SslStreamBase_RaiseRemoteCertificateValidation2_m2908038766
nEc:_tt_cmap4_char_next
Ngg:_UIntPtr__ctor_m4250165422_AdjustorThunk
XZ:__ZN4core8hash_mapIi17ThreadedAwakeDataNS_4hashIiEENSt3__28equal_toIiEEE4growEi
KBg:__Z50RuntimeInvoker_Boolean_t97287965_Int16_t2552820387PFvvEPK10MethodInfoPvPS4_
sKd:_Convert_ToDecimal_m1233667008
Dre:_InternalEnumerator_1_MoveNext_m2734554195_gshared
WZ:__ZN4core8hash_mapIi17ThreadedAwakeDataNS_4hashIiEENSt3__28equal_toIiEEE4growEv
t7:__GLOBAL__sub_I_runtime_assetbundles_1_cpp
k8d:_MD5SHA1_HashCore_m4171647335
II:__ZN4FMOD7Channel11setPositionEjj
Sh:_glBindSampler
tae:_ClientContext_get_ClientHelloProtocol_m1654639078
Wh:_glGetVertexAttribiv
eAe:_Enumerator_System_Collections_IEnumerator_get_Current_m1975949486_gshared
Cri:_PatternCompiler_EmitSub_m193323684
NLg:__Z74RuntimeInvoker_RuntimeObject_RuntimeObject_SByte_t1669577662_RuntimeObjectPFvvEPK10MethodInfoPvPS4_
ENc:__ZN2UI11CanvasGroup23VirtualRedirectTransferER18StreamedBinaryReadILb0EE
cQd:_Int64_System_IConvertible_ToByte_m375085029
Juc:__ZN8JSONRead8TransferIbEEvRT_PKc17TransferMetaFlagsb
dlg:_CullingGroup_t2096318768_marshal_pinvoke
jcg:_TimeSpan_ToString_m1128692466
Pvg:_RequireComponent__ctor_m886241599
kAi:_AesManaged_CreateEncryptor_m2294080233
Tkj:__ZN6il2cpp2os6Thread20SetExplicitApartmentENS0_14ApartmentStateE
axi:_Event_GetHashCode_m3559153592
mnc:__Z26RegisterModuleICalls_IMGUIv
oma:__ZN9ShaderLab9SubShaderD2Ev
Kwc:__ZN19ControllerHitReport13onObstacleHitERKN5physx23PxControllerObstacleHitE
dKg:__Z51RuntimeInvoker_Int16_t2552820387_Single_t1397266774PFvvEPK10MethodInfoPvPS4_
xqj:_GC_promote_black_lists
bKd:_Convert_ToChar_m3757390865
xvc:__Z29Transfer_Blittable_ArrayFieldI8JSONRead8Vector4fEvRT_R9ArrayInfoRK23StaticTransferFieldInfo
Sn:FUNCTION_TABLE_vf
Red:_Binder_GetDerivedLevel_m3216810447
qo:FUNCTION_TABLE_vd
Xgf:_RepeatContext_get_Start_m1076992038
N8:__ZN13RuntimeStaticI37UnityShaderCompilerExtPluginConfigureLb0EE16StaticInitializeEPv
rVc:__ZN11UnityEngine7Connect17DeviceStatusEvent20SetDeviceAspectRatioEf
t_h:__ZL122U3CCrossFadeOutU3Ec__Iterator0_t1177697815_CustomAttributesCacheGenerator_U3CCrossFadeOutU3Ec__Iterator0_Dispose_m28789261P21CustomAttributesCache
q7f:_StringBuilder_AppendFormat_m2403596038
Y2d:_DSASignatureDeformatter_SetHashAlgorithm_m3186995552
L7h:_ReadOnlyCollection_1_System_Collections_Generic_ICollectionU3CTU3E_Clear_m2772202961_gshared
Msc:__ZN9JSONWrite8TransferI13dynamic_arrayI4AABBLj4EEEEvRT_PKc17TransferMetaFlags
RE:__ZNK8Animator17HasBoundPlayablesEv
krd:_ResourceSet_ReadResources_m3663669011
Kfh:_Collection_1_GetEnumerator_m3990758110_gshared
T9f:_SynchronizationContext_SetSynchronizationContext_m1249070039
hDh:__ZL74X509Crl_t1148767388_CustomAttributesCacheGenerator_U3CU3Ef__switchU24map13P21CustomAttributesCache
x7g:_List_1_AddEnumerable_m1267044261_gshared
NDc:_tt_cmap13_char_index
eZi:__ZN6il2cpp2vm7Runtime9SetConfigEPKc
ypc:__ZN5Unity9rapidjson12PrettyWriterI16TempBufferWriterNS0_4UTF8IcEES4_13JSONAllocatorE10StartArrayEv
NIi:__ZL25UnresolvedVirtualCall_152P12Il2CppObject39CustomAttributeNamedArgument_t287865710PK10MethodInfo
ta:invoke_iiifiii
evg:_RectTransform_INTERNAL_get_pivot_m2970933031
oii:_UnityAction_1_Invoke_m927447181_gshared
wdj:__ZN6il2cpp2vm9Exception11FromNameMsgEPK11Il2CppImagePKcS6_S6_
Ngj:__ZNSt3__26__treeINS_12__value_typeIP24Il2CppReflectionAssemblyPvEENS_19__map_value_compareIS3_S5_NS_4lessIS3_EELb1EEENS_9allocatorIS5_EEE12__find_equalIS3_EERPNS_16__tree_node_baseIS4_EESH_RKT_
cn:FUNCTION_TABLE_fiiifii
Pea:__Z14GetTimeManagerv
Dkg:_Color32_op_Implicit_m213813866
Gug:_RectOffset_set_top_m713260669
Tmh:__ZL61ArrayReadOnlyList_1_t221793636_CustomAttributesCacheGeneratorP21CustomAttributesCache
FXc:__ZN19TransportJavaScript7CleanupEv
FPa:__Z12GUIDToStringRK9UnityGUIDPc
Mba:__ZN15FileSystemEntry4LockE12FileLockModeP12FileAccessor
ULj:_emscripten_glDrawArrays__wrapper
MPd:_Int32_Equals_m2976157357
JOg:__Z110RuntimeInvoker_Int32_t2950945753_Int32_t2950945753_Int32_t2950945753_Int32U26_t1369213839_Int32U26_t1369213839PFvvEPK10MethodInfoPvPS4_
n8g:_List_1_System_Collections_IList_get_IsReadOnly_m1601400230_gshared
jFd:_BitArray_get_IsSynchronized_m3546284417
HCi:_RoomController_CrossFade_m490740652
fM:__ZN11AudioSource22UnmuteActiveVideoSinksEv
bmi:_TlsException__ctor_m3717683709
woj:__ZN4utf88internal20is_overlong_sequenceIiEEbjT_
$Si:__ZN6il2cpp2vm13MetadataCache8RegisterEPK22Il2CppCodeRegistrationPK26Il2CppMetadataRegistrationPK20Il2CppCodeGenOptions
i1e:_SortKeyBuffer__ctor_m1384677558
Y8c:_U3CDelayedDestroyDropdownListU3Ec__Iterator0_System_Collections_IEnumerator_get_Current_m1619733476
uAh:__ZL79Convert_t2465617642_CustomAttributesCacheGenerator_Convert_ToUInt16_m4064261444P21CustomAttributesCache
kRa:__Z9SetLocalR15TransformAccessRKN4math7_float4Ey
ORb:__Z30SetupBakedOcclusionForGeometrybRK26SharedLightmapSettingsDataRK15LightmapIndicesR17ShaderPassContext
s9:__ZN13RuntimeStaticI13ModuleManagerLb0EE13StaticDestroyEPv
Ofc:__Z41Register_UnityEngine_Cursor_get_lockStatev
kRb:__Z14SetupLightmapsRK8Vector4fS1_R17ShaderPassContext
d5i:__ZN14dense_hash_mapI10KeyWrapperIPK14Il2CppAssemblyEPK22Il2CppMonoAssemblyNameN6il2cpp5utils11PointerHashIS2_EENS4_14EqualsComparerINSt3__28equal_toIS3_EEEENSD_9allocatorINSD_4pairIKS4_S7_EEEEE13set_empty_keyERSJ_
N_a:__ZL20InitializeGUIShadersv
xGf:_Guid_CompareTo_m243656946
i1b:__Z20DestroyObjectDelayedP6Objectf
vW:__ZN20DynamicHeapAllocatorI17LowLevelAllocatorED0Ev
rRd:_IntPtr_ToPointer_m4157623054
Ace:_Context_get_LastHandshakeMsg_m2730646725
k4b:__ZN11TimeManagerC2E10MemLabelId18ObjectCreationMode
IOb:__ZN9DepthPassD2Ev
AH:__ZN11AudioFilter6GetDSPEv
z6e:_SymmetricTransform_CFB_m1051508796
IDe:_UrlAttribute_GetPropertiesForNewContext_m2281450996
cjf:_RSACryptoServiceProvider_OnKeyGenerated_m863837376
f4g:_List_1_get_Capacity_m3047075120_gshared
gTg:__Z31RuntimeInvoker_Mode_t1066900953PFvvEPK10MethodInfoPvPS4_
ZWe:_Scrollbar_OnDrag_m4289602768
zaa:__ZN19RuntimeSceneManager14CanUnloadSceneEP10UnityScene
KOb:__Z22ExtractRenderNodeQueueRK11CullResults15ExtractionFlagsR15RenderNodeQueue
sZf:_GenericEqualityComparer_1_GetHashCode_m457148860_gshared
Olj:__ZN6il2cpp2vm6Method7GetNameEPK10MethodInfo
Wra:__ZN9GfxDevice16CreateTimerQueryEv
FG:__ZN24AudioScriptBufferManagerC2Ev
YJc:__ZNSt3__26vectorIh13stl_allocatorIhL18MemLabelIdentifier1ELi16EEE8__appendEj
hre:_InternalEnumerator_1_System_Collections_IEnumerator_get_Current_m3854084659_AdjustorThunk
LOe:_OnValidateInput_Invoke_m1009124904
uhe:_U3CGetEnumeratorU3Ec__Iterator0_System_Collections_IEnumerator_get_Current_m283764921_gshared
tXf:_EqualityComparer_1_System_Collections_IEqualityComparer_GetHashCode_m3578195399_gshared
_Jc:__ZN20TextRenderingPrivate8FontImpl16ResetPackingDataEv
ADf:_CultureInfo_get_IcuName_m2258611679
wqc:__Z18Transfer_BlittableI9JSONWriteLb0EfEvRK29SerializationCommandArgumentsR31RuntimeSerializationCommandInfo
Qwa:__Z21GetAsyncUploadManagerv
Jj:_emscripten_glDetachShader
xze:_Transform_1_BeginInvoke_m3697921475_gshared
tvg:_Vector2_op_Subtraction_m73004381
Ewa:__ZN17GenericDynamicVBO20ReleaseChunkInternalERK21DynamicVBOChunkHandlejj
jMc:__ZL27CleanupModule_TextRenderingv
qzj:_fmodl
Wne:_InternalEnumerator_1__ctor_m39232262_gshared
A6e:_SymmetricTransform_OFB_m3842617151
EV:__Z37RegisterModuleICalls_CloudWebServicesv
MMa:__ZNSt3__26vectorIiNS_9allocatorIiEEE21__push_back_slow_pathIKiEEvRT_
KHb:__ZN19RuntimeSceneManager11CreateSceneEv
gkg:_Color__ctor_m286683560
jri:_PatternCompiler_Emit_m1540115729
xCc:_ps_get_standard_strings
NRb:__Z27SetupBakedOcclusionForLightbRK15SharedLightDataR17ShaderPassContext
awj:__ZN6il2cpp2os5Mutex6UnlockEv
EVd:_NullStream_get_Position_m4048431226
m5f:_EncoderFallbackException__ctor_m1051987327
uih:__ZN21InterfaceFuncInvoker1I19Vector2_t2156229523iE6InvokeEjP11Il2CppClassP12Il2CppObjecti
Sce:_Context_set_RandomSC_m2364786761
Pvh:__ZL73AsymmetricSignatureDeformatter_t2681190756_CustomAttributesCacheGeneratorP21CustomAttributesCache
l6h:_Collection_1_CopyTo_m2335349786_gshared
x2e:_BigInteger_ToString_m3278248272
Hxf:_Decimal_System_IConvertible_ToBoolean_m1123794670
rWg:__Z98RuntimeInvoker_Int32_t2950945753_RaycastResult_t3360306849_RaycastResult_t3360306849_RuntimeObjectPFvvEPK10MethodInfoPvPS4_
Qaa:__Z17CommitBatchDeleteR11BatchDelete
dUe:_Mask__ctor_m1269055150
Xyh:__ZL99WaitHandle_t1743403487_CustomAttributesCacheGenerator_WaitHandle_t1743403487____Handle_PropertyInfoP21CustomAttributesCache
tbf:_WebRequest_AddPrefix_m3187775913
oTh:__ZL98PointerEventData_t3807901092_CustomAttributesCacheGenerator_PointerEventData_get_button_m359423249P21CustomAttributesCache
Uwj:__ZNSt3__26__treeINS_12__value_typeIPFvvEPK10MethodInfoEENS_19__map_value_compareIS3_S7_NS_4lessIS3_EELb1EEENS_9allocatorIS7_EEE4findIS3_EENS_15__tree_iteratorIS7_PNS_11__tree_nodeIS7_PvEEiEERKT_
mFf:_NumberFormatInfo_get_CurrencyNegativePattern_m2134016253
FEh:__ZL85UriParser_t3890150400_CustomAttributesCacheGenerator_UriParser_OnRegister_m3283921560P21CustomAttributesCache
uUh:__ZL59Dropdown_t2274391225_CustomAttributesCacheGenerator_m_ValueP21CustomAttributesCache
eMb:__Z18RenderImageFiltersR10RenderLoopb
WQc:__Z43CanvasRenderer_Get_Custom_PropMaterialCountP12Il2CppObject
nCi:_OpeningController_CrossFade_m1872315733
YRb:__ZNSt3__227__insertion_sort_incompleteIR23CompareReflectionProbesP31RuntimeReflectionProbeBlendInfoEEbT0_S5_T_
Z3g:_List_1_Remove_m1457733883_gshared
Svc:__ZN8JSONRead21TransferSTLStyleArrayI13dynamic_arrayI11QuaternionfLj4EEEEvRT_17TransferMetaFlags
pp:__ZN6Object23VirtualRedirectTransferER19StreamedBinaryWriteILb1EE
qec:__ZNK9BlobWrite24HasOffsetPtrWithDebugPtrEv
Ekh:__ZL80String_t_CustomAttributesCacheGenerator_String_FormatHelper_m3913915042____args3P21CustomAttributesCache
mcc:__ZN19RuntimeSceneManager32LoadSceneAsyncByNameOrBuildIndexERKN4core12basic_stringIcNS0_20StringStorageDefaultIcEEEEiNS_11LoadingModeEb
wMd:_Convert_ToUInt64_m1745056470
_7d:_MD4Managed_Encode_m386285215
dca:__ZN10InputEventD2Ev
owb:__Z18Transfer_BlittableI19StreamedBinaryWriteILb0EELb0E5RectTIfEEvRK29SerializationCommandArgumentsR31RuntimeSerializationCommandInfo
GZ:__ZL23OutOfBoundsReadingErrorPKN5Unity4TypeEiiR6Object
Iqe:_InternalEnumerator_1_MoveNext_m1590908934_AdjustorThunk
MYc:__ZN22UnityWebRequestManagerD2Ev
Qwi:_Event_get_character_m1666742088
j$g:__Z112RuntimeInvoker_Boolean_t97287965_CustomAttributeNamedArgument_t287865710_CustomAttributeNamedArgument_t287865710PFvvEPK10MethodInfoPvPS4_
Xyj:_isalpha
xXe:_U3CClickRepeatU3Ec__Iterator0_Dispose_m4248496038
ZJd:_Convert_ToChar_m1442101407
ige:_SslClientStream_OnLocalPrivateKeySelection_m1934775249
fyi:_GUILayoutEntry_CalcWidth_m3962591050
gbd:__ZN21InterfaceFuncInvoker1IP19Graphic_t1660335611iE6InvokeEjP11Il2CppClassP12Il2CppObjecti
Fwf:_DateTimeOffset_get_Offset_m2040541042_AdjustorThunk
rMh:__ZL80Logger_t274032455_CustomAttributesCacheGenerator_U3ClogHandlerU3Ek__BackingFieldP21CustomAttributesCache
aXi:__ZN6il2cpp2vmL17IsSocketAsyncCallEP14Il2CppDelegate
KHd:_Slot_t3975888750_marshal_pinvoke_back
Wnj:__ZN6il2cpp2vm6String6NewLenEPKcj
X4:__Z25GetBuiltinTexEnvParamNamei
EFb:__ZN17PersistentManager9AddStreamEv
Mkj:__ZN6il2cpp2os6Thread12GetApartmentEv
qJa:__ZN9GfxDevice28UpdateComputeConstantBuffersEjP12ObjectHandleI18ConstantBuffer_TagPvEjjPKhPKjS8_PKi
_k:_time
q6c:_ContentSizeFitter_set_verticalFit_m1831566876
Alf:_TripleDESCryptoServiceProvider_CreateDecryptor_m740960117
ylc:__ZN16memory_pool_implILi28EE15AutoPoolWrapper12UninitializeEPv
FSg:__Z122RuntimeInvoker_Void_t1185182177_Color_t2555686324_Single_t1397266774_SByte_t1669577662_SByte_t1669577662_SByte_t1669577662PFvvEPK10MethodInfoPvPS4_
jpg:_Material_EnableKeyword_m329692301
fzc:_cf2_stack_free
wkf:_SHA512Managed_HashCore_m2377807474
MQd:_Int64_Parse_m3309897583
fEf:_CompareInfo_IndexOf_m667936183
_7g:_List_1__ctor_m2203182218_gshared
rv:__ZN7mecanim9animation19EvaluateFloatValuesEPKNS0_18ClipMuscleConstantEPKNS_18ValueArrayConstantEPKNS0_12ClipBindingsEPKNS0_10ClipOutputEPNS0_18AnimationNodeStateEfbb
Itg:_Rect_get_min_m847841034_AdjustorThunk
cD:__ZN8Animator31ClearInternalControllerPlayableEv
PHa:__ZN26SinglePassStereoSupportExt18AfterSetViewMatrixEv
Uig:_Bounds__ctor_m1937678907_AdjustorThunk
Awg:_SetupCoroutine_InvokeMember_m2661944898
l_f:_HashSet_1__ctor_m620629637_gshared
Wbf:_X509EnhancedKeyUsageExtension_ToString_m350388564
pkd:_MethodBuilder_get_Module_m2693263127
R0i:__ZN15dense_hashtableINSt3__24pairIK10KeyWrapperINS1_IPK9FieldInfoP11Il2CppClassEEEjEES9_17ReflectionMapHashIS8_EN14dense_hash_mapIS9_jSD_NS9_14EqualsComparerINS0_8equal_toIS8_EEEENS0_9allocatorISB_EEE9SelectKeyESI_SK_E4findERSA_
BEd:_SimpleEnumerator_MoveNext_m3113120129
w0d:_RuntimeTypeHandle_GetHashCode_m3999856879_AdjustorThunk
JHb:__ZN13LoadOperationC2E10MemLabelId
NOe:_InputField_SendOnValueChanged_m2560301445
kui:_CapturingGroup_get_Name_m3747712535
sXb:__ZN13RenderTexture19SetAutoGenerateMipsEb
kya:__Z20GetTextureFormatInfo13TextureFormat
f9e:_TypeConverterAttribute_Equals_m1580461255
c9d:_RSAManaged_ToXmlString_m2369501989
cy:__ZN26AnimatorControllerPlayable8GetFloatEiRf
PRe:_InputField_get_layoutPriority_m2945430764
Stf:_DateTime_System_IConvertible_ToSingle_m2193708681_AdjustorThunk
Hhf:_Interval_get_Size_m4163671410_AdjustorThunk
oti:_Regex_ToString_m1548107455
oNf:_NoAllocHelpers_SafeLength_TisVector2_t2156229523_m3807819939_gshared
WNc:__ZN2UI14CanvasRenderer13AwakeFromLoadE17AwakeFromLoadMode
ZBi:_U3CCrossFadeU3Ec__Iterator0_MoveNext_m3323434673
wkh:__ZL64String_t_CustomAttributesCacheGenerator_String_Split_m3580120853P21CustomAttributesCache
dzb:__ZN18StreamedBinaryReadILb1EE5AlignEv
suj:__ZN6il2cpp5utils10MemoryPool6MallocEj
ZF:__ZN11SoundHandle8InstanceD2Ev
Wqd:_ResourceEnumerator_Reset_m3754276504
rfa:__ZN31CanvasBatchIntermediateRenderer13StaticDestroyEPv
g$:__ZNSt3__23mapIiP15MonoScriptCacheNS_4lessIiEE13stl_allocatorINS_4pairIKiS2_EEL18MemLabelIdentifier78ELi16EEEixERS7_
wVi:__ZNK15dense_hashtableINSt3__24pairIK10KeyWrapperIPK11Il2CppClassEPKcEES6_N6il2cpp5utils11PointerHashIS3_EEN14dense_hash_mapIS6_S9_SE_NS6_14EqualsComparerINS0_8equal_toIS5_EEEENS0_9allocatorISA_EEE9SelectKeyESJ_SL_E10test_emptyERK24dense_hashtable_iteratorISA_S6_SE_SN_SJ_SL_E
eRh:__ZL102CanvasRenderer_t2598313366_CustomAttributesCacheGenerator_CanvasRenderer_set_materialCount_m4286588063P21CustomAttributesCache
eEg:__Z78RuntimeInvoker_Int32_t2950945753_RuntimeObject_RuntimeObject_Int32_t2950945753PFvvEPK10MethodInfoPvPS4_
$Sa:__Z26scripting_method_get_class18ScriptingMethodPtr
FJj:_emscripten_glBindProgramARB__wrapper
Lfc:__Z41Register_UnityEngine_CullingGroup_Disposev
Gri:_PatternCompiler_EmitRepeat_m697083858
F2a:__ZN7Cubemap23VirtualRedirectTransferER19StreamedBinaryWriteILb0EE
DDe:_ConstructionLevelActivator__ctor_m3779412964
pOa:__ZN25MultiBlocksMemoryFileData5WriteEyyPKv
Bih:_Collection_1_GetEnumerator_m344341702_gshared
R3i:__ZNSt3__218uninitialized_fillIPNS_4pairIK10KeyWrapperINS1_IPK12PropertyInfoP11Il2CppClassEEEjEESB_EEvT_SD_RKT0_
xqd:_ResourceReader_Read7BitEncodedInt_m3568166465
F7c:_DefaultControls_CreateInputField_m1003102365
NKh:__ZL95Mesh_t3648964284_CustomAttributesCacheGenerator_Mesh_GetIndices_m1466450660____applyBaseVertex1P21CustomAttributesCache
aMi:_CanvasGroup_set_alpha_m4032573
Qwd:_Array_get_LongLength_m978104875
UBa:__ZL17ProgramUniform2fvPK7ApiGLESjiihPKv
zKj:b83
yBg:__Z68RuntimeInvoker_Boolean_t97287965_RuntimeObject_UInt64U26_t1265593412PFvvEPK10MethodInfoPvPS4_
UJc:__ZN20TextRenderingPrivate8FontImpl21HasCharacterInTextureEjijfPj
dkb:__ZNSt3__227__insertion_sort_incompleteIRPFbRK23TransformAccessReadOnlyS3_EPS1_EEbT0_S8_T_
N7c:_OptionData__ctor_m2529924901
tyg:_Transform_SetAsFirstSibling_m253439912
BYh:__ZL93HorizontalOrVerticalLayoutGroup_t729725570_CustomAttributesCacheGenerator_m_ChildControlWidthP21CustomAttributesCache
tuf:_DateTime_System_IConvertible_ToUInt16_m4182197229_AdjustorThunk
Ahf:_Interval_get_IsDiscontiguous_m3016063288
yge:_SslStreamBase_get_CheckCertRevocationStatus_m2739906607
rAj:_htonl
Uta:__Z20GetBufferManagerGLESv
yKj:b82
Gkf:_SHA512Managed_Sigma1_m922902398
UBb:__ZN18StreamedBinaryReadILb0EE21TransferSTLStyleArrayI31ArrayOfManagedObjectsTransfererEEvRT_17TransferMetaFlags
wua:__ZNSt3__26__treeI22DeviceStencilStateGLES14MemoryCompLessI18DeviceStencilStateENS_9allocatorIS1_EEE12__find_equalIS1_EERPNS_16__tree_node_baseIPvEESD_RKT_
sAj:_htons
Htc:__Z18Transfer_BlittableI8JSONReadLb0EtEvRK29SerializationCommandArgumentsR31RuntimeSerializationCommandInfo
q4i:__ZN15dense_hashtableINSt3__24pairIK10KeyWrapperINS1_IPK9EventInfoP11Il2CppClassEEEjEES9_17ReflectionMapHashIS8_EN14dense_hash_mapIS9_jSD_NS9_14EqualsComparerINS0_8equal_toIS8_EEEENS0_9allocatorISB_EEE9SelectKeyESI_SK_E12expand_arrayEjN21dense_hash_map_traits17integral_constantIbLb0EEE
syb:__Z18Transfer_BlittableI18StreamedBinaryReadILb1EELb0E5RectTIiEEvRK29SerializationCommandArgumentsR31RuntimeSerializationCommandInfo
AZ:__Z16GenerateTypeTreeRK6ObjectR8TypeTree24TransferInstructionFlags
XEf:_CultureInfo_CreateCulture_m1493441763
slf:_TripleDES_IsWeakKey_m2147489852
T2a:__ZNK7Cubemap20GetTextureLayerCountEv
Qy:__ZN34AnimationStateMachineMixerPlayable13EndTransitionEv
VAh:__ZL79Convert_t2465617642_CustomAttributesCacheGenerator_Convert_ToUInt64_m2343585091P21CustomAttributesCache
ORg:__Z65RuntimeInvoker_Void_t1185182177_RuntimeObject_RectU26_t1284589061PFvvEPK10MethodInfoPvPS4_
iI:__ZN12AudioManager21FixMasterGroupRoutingEv
n9a:__ZNK19ShaderPropertySheet11HasPropertyERKN9ShaderLab16FastPropertyNameE
BEj:dynCall_viffffii
aC:__ZN15AllocatorTraitsIN8Animator11AnimatorJobELb0EE13CopyConstructEPS1_RKS1_10MemLabelId
pVg:__Z81RuntimeInvoker_Boolean_t97287965_NavigationU26_t1807167253_Navigation_t3049316579PFvvEPK10MethodInfoPvPS4_
LLj:_emscripten_glUniform1fv__wrapper
Abd:_GridLayoutGroup_SetLayoutHorizontal_m2838109254
MMg:__Z65RuntimeInvoker_SecurityProtocolType_t1513093309_Int16_t2552820387PFvvEPK10MethodInfoPvPS4_
I7c:_Dropdown_RefreshShownValue_m2806045241
job:__Z18Transfer_BlittableI14SafeBinaryReadLb1E4AABBEvRK29SerializationCommandArgumentsR31RuntimeSerializationCommandInfo
jkj:__ZN6il2cpp6icalls8mscorlib6System4Enum12get_hashcodeEP12Il2CppObject
vtj:_GC_set_no_dls
L5c:_ColorBlock_set_normalColor_m254595671_AdjustorThunk
Sxj:__ZN6il2cpp8metadata26Il2CppGenericMethodCompare6EqualsEPK19Il2CppGenericMethodS4_
Eih:_Collection_1_InsertItem_m1996433897_gshared
kqe:_InternalEnumerator_1_get_Current_m1007906068_gshared
g6a:__ZNK13ScreenManager16GetScreenTimeoutEv
WQi:__ZN15dense_hashtableINSt3__24pairIK10KeyWrapperIPK11Il2CppClassEPKcEES6_N6il2cpp5utils11PointerHashIS3_EEN14dense_hash_mapIS6_S9_SE_NS6_14EqualsComparerINS0_8equal_toIS5_EEEENS0_9allocatorISA_EEE9SelectKeyESJ_SL_E15set_deleted_keyERKSA_
DEd:_SimpleEnumerator_Reset_m1520014659
ixh:__ZL53IPrincipal_t2343618843_CustomAttributesCacheGeneratorP21CustomAttributesCache
N9f:_SendOrPostCallback__ctor_m1566534627
NG:__ZN9AudioClip7WWWOpenEPKciPjPPvS4_
aob:__Z18Transfer_BlittableI14SafeBinaryReadLb0E8Vector2fEvRK29SerializationCommandArgumentsR31RuntimeSerializationCommandInfo
uce:_Context_set_ProtocolNegotiated_m2904861662
_ph:__ZL54FileOptions_t1024913468_CustomAttributesCacheGeneratorP21CustomAttributesCache
Pfj:__ZN15dense_hashtableINSt3__24pairIK10KeyWrapperINS1_IPKcS4_EEEiEES6_24NamespaceAndNamePairHashN14dense_hash_mapIS6_iS9_NS6_14EqualsComparerI26NamespaceAndNamePairEqualsEENS0_9allocatorIS8_EEE9SelectKeyESD_SF_E12resize_deltaEjj
aLe:_RemotingServices_GetRemoteObject_m2117098022
tMi:_CanvasRenderer_SetTexture_m1600559835
UWc:__ZN13dynamic_arrayIiLj4EE6insertEPiPKiS3_
Chh:_Collection_1_System_Collections_IList_IndexOf_m4256072926_gshared
WEg:__Z132RuntimeInvoker_Boolean_t97287965_RuntimeObject_Int32_t2950945753_Int32_t2950945753_RuntimeObject_Int32_t2950945753_Int32_t2950945753PFvvEPK10MethodInfoPvPS4_
zhc:__Z53Register_UnityEngine_Input_INTERNAL_get_mousePositionv
Nta:__ZN7ApiGLES12DrawElementsE16GfxPrimitiveTypePKvjjjj
R5e:_EncryptedPrivateKeyInfo_get_Salt_m3453455261
Avf:_DateTime__ParseNumber_m1240316250
Qof:_Single_System_IConvertible_ToSingle_m1939829239_AdjustorThunk
Ame:_InternalEnumerator_1_get_Current_m3839250771_gshared
lkc:__Z66Register_UnityEngine_Transform_INTERNAL_CALL_InverseTransformPointv
zEf:_CultureInfo_get_TextInfo_m2342840448
OMf:_Array_InternalArray__IndexOf_TisMark_t3471605523_m2905388260_gshared
__c:_EventSystem_set_pixelDragThreshold_m890385646
sJa:__ZN9GfxDevice22DispatchComputeProgramE12ObjectHandleI18ComputeProgram_TagPvEjjj
fd:_SDL_GetTicks
N2i:__ZN15dense_hashtableINSt3__24pairIK10KeyWrapperINS1_IPK11Il2CppImageP11Il2CppClassEEEjEES9_17ReflectionMapHashIS8_EN14dense_hash_mapIS9_jSD_NS9_14EqualsComparerINS0_8equal_toIS8_EEEENS0_9allocatorISB_EEE9SelectKeyESI_SK_E6insertERKSB_
wVb:__Z21CreateShadowCullerJobP30CreateUmbraShadowCullerJobData
dbi:_ReadOnlyCollection_1_System_Collections_Generic_ICollectionU3CTU3E_Remove_m4072504734_gshared
MBa:__ZL18ProgramUniform2uivPK7ApiGLESjiihPKv
u4c:_U3COnFinishSubmitU3Ec__Iterator0_MoveNext_m2729496168
lLj:_glUniform4iv__wrapper
wSb:__Z33GenerateShadowCasterPartsSortDataRK16ShadowCasterDatajRK15RenderNodeQueueRKNSt3__26vectorI20ShadowCasterPartData13stl_allocatorIS7_L18MemLabelIdentifier2ELi16EEEERK10Matrix4x4fRjP20ShadowCasterSortData
SKb:__ZZ23InitPlayerLoopCallbacksvEN51PostLateUpdateTriggerEndOfFrameCallbacksRegistrator7ForwardEv
Obg:_TimeSpan_Compare_m753151303
hrb:__Z29Transfer_Blittable_ArrayFieldI14SafeBinaryRead9BoundsIntEvRT_R9ArrayInfoRK23StaticTransferFieldInfo
myc:_cf2_computeDarkening
fNi:_AnimationLayerMixerPlayable__ctor_m860721801_AdjustorThunk
_od:_MonoPropertyInfo_get_property_info_m1599555644
t7g:_List_1_Add_m2298161512_gshared
v2d:_DESTransform_CipherFunct_m3527261721
Tqj:_GC_expand_hp_inner
Ghj:__ZNK15dense_hashtableI10KeyWrapperIP18Il2CppGenericClassES3_N6il2cpp8metadata22Il2CppGenericClassHashEN14dense_hash_setIS3_S6_NS3_14EqualsComparerINS5_25Il2CppGenericClassCompareEEENSt3__29allocatorIS3_EEE8IdentityESA_SD_E12test_deletedEj
Jkc:__Z25Screen_Get_Custom_PropDpiv
uxb:__Z29Transfer_Blittable_ArrayFieldI19StreamedBinaryWriteILb0EEsEvRT_R9ArrayInfoRK23StaticTransferFieldInfo
mng:_UnityEventBase_RebuildPersistentCallsIfNeeded_m216788690
MTh:__ZL80PhysicsRaycaster_t437419520_CustomAttributesCacheGenerator_m_MaxRayIntersectionsP21CustomAttributesCache
loj:__ZN4utf812find_invalidIPKcEET_S3_S3_
HQe:_InputField_OnEndDrag_m4127187089
Cdi:_ReadOnlyCollection_1_System_Collections_IList_RemoveAt_m2555465054_gshared
Jnh:__ZL72RuntimeCompatibilityAttribute_t1169614002_CustomAttributesCacheGeneratorP21CustomAttributesCache
Zzf:_StackFrame__ctor_m343464319
pT:__ZN11UnityEngine15CloudWebService20WebRequestRestClient7PrepareEv
hod:_MonoField_CheckGeneric_m453069507
HJc:__ZN20TextRenderingPrivate19NativeTextGenerator23FixLineHorizontalOffsetEiii
nVf:_DefaultComparer_Equals_m3348496647_gshared
eJe:_MethodCall_Init_m86192062
JEd:_SynchronizedArrayListWrapper_get_IsFixedSize_m3396437476
hNe:_ObjectReader_ReadArrayOfString_m3550800559
cZd:_MonoCustomAttrs_GetCustomAttributesInternal_m648304078
aA:__ZN7mecanim9animation19DestroyAnimationSetEPNS0_12AnimationSetERNS_6memory9AllocatorE
lGj:_emscripten_glDepthRange__wrapper
f0:__ZN14SerializedFile7ReleaseEv
kmb:__ZN16MemoryFileSystem4OpenER13FileEntryData14FilePermission16FileAutoBehavior
aEf:_CompareInfo_GetSortKey_m1915852346
YGc:_ft_var_load_avar
gfa:__ZN13RuntimeStaticI13RendererSceneLb0EE13StaticDestroyEPv
yte:_DefaultComparer_Compare_m1297750557_gshared
xW:__ZN20DynamicHeapAllocatorI17LowLevelAllocatorE10ReallocateEPvji
vP:__ZN12AudioManager12CleanupClassEv
oub:__Z18Transfer_BlittableI24GenerateTypeTreeTransferLb1E12PropertyNameEvRK29SerializationCommandArgumentsR31RuntimeSerializationCommandInfo
LDi:_Toggle_OnEnable_m1421694809
Ycb:__ZN14SafeBinaryRead21TransferSTLStyleArrayI10vector_mapIPKN5Unity4TypeE7Hash128NSt3__24lessIS5_EENS7_9allocatorINS7_4pairIS5_S6_EEEEEEEvRT_17TransferMetaFlags
MG:__ZN9AudioClip18GetQueuedAudioDataEPPvj
YLc:__ZN20TextRenderingPrivate21TextMeshGeneratorImpl14GarbageCollectEv
F4c:_CanvasScaler_get_scaleFactor_m122574367
tac:__ZNK9Texture2D17CheckHasPixelDataEv
bwb:__Z18Transfer_BlittableI19StreamedBinaryWriteILb0EELb0E9BoundsIntEvRK29SerializationCommandArgumentsR31RuntimeSerializationCommandInfo
rOb:__Z18SetShadowsKeywordsR17ShaderPassContext9LightType10ShadowType16ShadowProjectionbb
Ead:_Graphic_GetPixelAdjustedRect_m3729397999
E6i:__ZN14dense_hash_mapI10KeyWrapperINSt3__24pairIPK12PropertyInfoP11Il2CppClassEEEj17ReflectionMapHashIS8_ENS9_14EqualsComparerINS1_8equal_toIS8_EEEENS1_9allocatorINS2_IKS9_jEEEEEC2EjRKSB_RKSF_
A6b:__ZN17CollisionMeshDataC2Ev
KCe:_Dictionary_2_ToTValue_m692436965_gshared
VXh:__ZL73AspectRatioFitter_t3312407083_CustomAttributesCacheGenerator_m_AspectModeP21CustomAttributesCache
Yti:_BalancingGroup_set_Balance_m3289053627
lsd:_Marshal_Copy_m1222846562
g4a:__ZN16LightmapSettings23VirtualRedirectTransferER19StreamedBinaryWriteILb0EE
VKb:__ZZ23InitPlayerLoopCallbacksvEN47PostLateUpdateMemoryFrameMaintenanceRegistrator7ForwardEv
Pta:__ZN7ApiGLES20SetVertexArrayAttribEjj12VertexFormathjPKv
vo:FUNCTION_TABLE_viiififii
Erj:_GC_push_next_marked
xWf:_EqualityComparer_1_System_Collections_IEqualityComparer_GetHashCode_m3539775155_gshared
Ghb:__ZN18IDCollectorFunctor18GenerateInstanceIDEi17TransferMetaFlags
t5h:_GameObject_GetComponent_TisRuntimeObject_m2049753423_gshared
QKi:_TextGenerationSettings_Equals_m3618607189_AdjustorThunk
Hzi:_SymmetricTransform_get_CanReuseTransform_m3495714228
smd:_FieldInfo_get_UMarshal_m1217454798
E8e:_NameObjectCollectionBase_BaseAdd_m3437748750
fdg:_Type_internal_from_handle_m3156085815
_Ng:__Z63RuntimeInvoker_RuntimeObject_RuntimeObject_Int32U26_t1369213839PFvvEPK10MethodInfoPvPS4_
UEc:_ft_smooth_init
pwh:__ZL55MACTripleDES_t1631262397_CustomAttributesCacheGeneratorP21CustomAttributesCache
jVi:__ZN6il2cpp2vm13MetadataCache25GetMethodGenericContainerEPK10MethodInfo
s9h:_ReadOnlyCollection_1_System_Collections_Generic_ICollectionU3CTU3E_Add_m69722965_gshared
wD:__ZN8Animator8TransferI19StreamedBinaryWriteILb0EEEEvRT_
C1:__ZNSt3__27__sort4IRNS_6__lessI14ObjectLoadDataS2_EEPS2_EEjT0_S6_S6_S6_T_
_Mb:__ZNK25CameraStackRenderingState16GetCurrentCameraEv
sKf:_Array_InternalArray__IEnumerable_GetEnumerator_TisIntPtr_t_m2620447453_gshared
UXe:_ScrollRect_get_rectTransform_m2442061719
aMa:__ZN17PersistentManager4LockEv
luh:__ZL51IMessage_t3593512748_CustomAttributesCacheGeneratorP21CustomAttributesCache
y8b:__Z22PlayableValidityChecksRK9HPlayableb
$Hh:__ZL57AnimationCurve_t3046754366_CustomAttributesCacheGeneratorP21CustomAttributesCache
Ceb:__ZN15ResourceManagerD2Ev
Ope:_InternalEnumerator_1__ctor_m3383770493_gshared
Afc:__Z41Register_UnityEngine_Camera_GetAllCamerasv
Cmg:_InvokableCall__ctor_m2158562079
RWi:__ZN6il2cpp2gc9AllocatorIP17Il2CppAsyncResultE10deallocateEPvj
Wsi:_Assertion__ctor_m2128950829
bWc:__ZN28PerformanceReportingSettings8TransferI14SafeBinaryReadEEvRT_
rdh:_Collection_1_System_Collections_ICollection_get_SyncRoot_m2514790028_gshared
Zib:__ZN15CacheWriterBase18GetAddressOfMemoryEv
$sd:_Buffer_BlockCopy_m2884209081
Dwh:__ZL56RSAParameters_t1728406613_CustomAttributesCacheGeneratorP21CustomAttributesCache
Ptc:__Z18Transfer_BlittableI8JSONReadLb1E5RectTIiEEvRK29SerializationCommandArgumentsR31RuntimeSerializationCommandInfo
ONh:__ZL84AudioSettings_t3587374600_CustomAttributesCacheGenerator_OnAudioConfigurationChangedP21CustomAttributesCache
_bj:__ZN6il2cpp2vm22EmbeddedResourceRecordC2ERKS1_
Dna:__ZNSt3__26vectorIN9ShaderLab20SerializedSubProgram15VectorParameterENS_9allocatorIS3_EEE21__push_back_slow_pathIKS3_EEvRT_
oIb:__ZL20DrawVBOChunkWithPassP6ShaderPN9ShaderLab4PassER17ShaderPassContextR10DynamicVBORK21DynamicVBOChunkHandle
Sdh:_Collection_1__ctor_m825528237_gshared
A2a:__ZN9Texture2D13AwakeFromLoadE17AwakeFromLoadMode
KJf:_SetPropertyUtility_SetStruct_TisColorBlock_t2139031574_m1748367426_gshared
$qg:_PlayerConnection_get_instance_m1750121257
Djj:__ZN6il2cpp2vm3RCW14QueryInterfaceILb0EEEP14Il2CppIUnknownP15Il2CppComObjectRK10Il2CppGuid
lvh:__ZL61FormatterConverter_t2760117746_CustomAttributesCacheGeneratorP21CustomAttributesCache
rpi:_X509Store_get_Certificates_m56224934
aKe:_ReturnMessage_set_Uri_m3134200303
Sza:__ZN6prcoreL17RemapGenericFloatI15TexFormatRFloat18TexFormatARGBFloatEEvPKNS_9InnerInfoE
yIg:__Z85RuntimeInvoker_Void_t1185182177_Int64_t3736567304_Int32_t2950945753_Int64_t3736567304PFvvEPK10MethodInfoPvPS4_
O9d:_CipherSuite__ctor_m2440635082
hjf:_RSAPKCS1KeyExchangeFormatter_SetRSAKey_m1477802943
RKh:__ZL104SendMouseEvents_t3273302915_CustomAttributesCacheGenerator_SendMouseEvents_DoSendMouseEvents_m2140870850P21CustomAttributesCache
Fjf:_SHA1CryptoServiceProvider_HashCore_m3575298072
anf:_EvidenceEnumerator_get_Current_m1264365535
_Wc:__ZN11UnityEngine15PlatformWrapper20GetPlayerPrefsUInt64ERKN4core12basic_stringIcNS1_20StringStorageDefaultIcEEEEy
ksd:_Marshal_copy_from_unmanaged_m2834266824
OEj:dynCall_iiiifii
aSb:__ZN20ReflectionProbeCacheC2ER13BatchRendererR15RenderLoopStats
xif:_RIPEMD160Managed_G_m3625715749
v_a:__ZN7Texture23VirtualRedirectTransferER18StreamedBinaryReadILb0EE
aug:_Rect_set_xMax_m1720695099_AdjustorThunk
kLg:__Z59RuntimeInvoker_Int32_t2950945753_DateTimeOffset_t3229287507PFvvEPK10MethodInfoPvPS4_
ilb:__ZNK12HandlerChain6ExistsERK13FileEntryData
fDf:_Calendar__ctor_m106290643
MSb:__Z30FindDirectAttenuationFromProbeP18ForwardLightsBlockbiRK10RenderNodeRK23FindForwardLightsParamsf
Mac:__ZNSt3__26vectorIj13stl_allocatorIjL18MemLabelIdentifier1ELi16EEE6assignIPKjEENS_9enable_ifIXaasr21__is_forward_iteratorIT_EE5valuesr16is_constructibleIjNS_15iterator_traitsIS9_E9referenceEEE5valueEvE4typeES9_S9_
jcb:__ZN12InputManager23VirtualRedirectTransferER24GenerateTypeTreeTransfer
nkb:__ZN9Transform23VirtualRedirectTransferER24GenerateTypeTreeTransfer
N5a:__Z18GetLODGroupManagerv
dmc:__ZN12GUIClipState10BeginOnGUIER10InputEvent
xna:__ZNSt3__26vectorIN9ShaderLab20SerializedSubProgram12UAVParameterENS_9allocatorIS3_EEE21__push_back_slow_pathIKS3_EEvRT_
YQh:__ZL100CanvasGroup_t4083511760_CustomAttributesCacheGenerator_CanvasGroup_get_ignoreParentGroups_m865591534P21CustomAttributesCache
PMg:__Z87RuntimeInvoker_RuntimeObject_Byte_t1134296376_RuntimeObject_RuntimeObject_RuntimeObjectPFvvEPK10MethodInfoPvPS4_
xbe:_HandshakeMessage_Process_m810828609
W_f:_KeyValuePair_2_get_Value_m1339120122_AdjustorThunk
rFc:_UNITY_tt_size_ready_bytecode
rIc:__ZN13TextRendering4FontD2Ev
pdb:__ZN27GenericSlowGarbageCollectorD2Ev
Qsg:_Quaternion_Inverse_m1311579081
_Kc:_UNITY_FT_Stream_Open
S3c:_AspectRatioFitter_get_aspectRatio_m1928877056
gOe:_SerializationEntry_t648286436_marshal_pinvoke_back
a$h:__ZL60MoodSlider_t2274410658_CustomAttributesCacheGenerator_sliderP21CustomAttributesCache
qvb:__Z29Transfer_Blittable_ArrayFieldI24GenerateTypeTreeTransfer9BoundsIntEvRT_R9ArrayInfoRK23StaticTransferFieldInfo
kbd:_GraphicRegistry__cctor_m1805310505
Zig:_Bounds_Equals_m3920299735
aXa:__ZN8keywords18KeywordSetToStringERK16ShaderKeywordSetRN4core12basic_stringIcNS3_20StringStorageDefaultIcEEEE
wjd:_GenericTypeParameterBuilder_GetGenericArguments_m2988765390
pBc:_otv_MATH_validate
IHg:__Z77RuntimeInvoker_Void_t1185182177_Int64_t3736567304_ResourceInfoU26_t1611441338PFvvEPK10MethodInfoPvPS4_
GIb:__ZNSt3__26vectorIN22BuiltinResourceManager8ResourceENS_9allocatorIS2_EEE21__push_back_slow_pathIKS2_EEvRT_
lXg:__Z53RuntimeInvoker_Int32_t2950945753_Keyframe_t4206410242PFvvEPK10MethodInfoPvPS4_
mF:__ZN4FMOD3DSP12setParameterEif
$Fb:__ZN13MemoryManager16StaticInitializeEv
BEf:_CultureInfo_Equals_m1360976324
o$f:_KeyValuePair_2_set_Key_m3170517671_AdjustorThunk
lf:___cxa_free_exception
CLh:__ZL69PersistentCall_t3407714124_CustomAttributesCacheGenerator_m_CallStateP21CustomAttributesCache
Ldi:_ReadOnlyCollection_1_GetEnumerator_m122912648_gshared
nmg:_ArgumentCache_get_floatArgument_m3471193103
qJ:__ZN4FMOD22FakeModChannelCallbackEPv
WZc:_BaseInput_get_compositionString_m1887614380
rf:_emscripten_glValidateProgram
OVa:__ZN4Mesh10CreateMeshEv
Gtd:_X509Certificate_get_IssuerName_m605048065
U4d:_RijndaelManagedTransform__ctor_m1033522223
r9e:_WebHeaderCollection__ctor_m896654210
Zuf:_DateTime_CompareTo_m3889078633
Pyc:_cf2_stack_clear
Ywh:__ZL61SecurityPermission_t2954997752_CustomAttributesCacheGeneratorP21CustomAttributesCache
hZf:_GenericComparer_1__ctor_m2864776302_gshared
aOd:_NumberFormatter_set_CurrentCulture_m1358228087
tXb:__ZN7Texture13SetAnisoLevelEi
DR:__ZNSt3__26__treeINS_12__value_typeIN4core12basic_stringIcNS2_20StringStorageDefaultIcEEEEjEENS_19__map_value_compareIS6_S7_NS_4lessIS6_EELb1EEE13stl_allocatorIS7_L18MemLabelIdentifier88ELi16EEE7destroyEPNS_11__tree_nodeIS7_PvEE
H6:__ZN19EndOfFrameCallbacks7EnqueueEP18EndOfFrameCallbackb
Cog:_Input_set_compositionCursorPos_m1909373301
PKc:_raccess_guess_vfat
xJg:__Z78RuntimeInvoker_IntPtr_t_SByte_t1669577662_RuntimeObject_BooleanU26_t4125257963PFvvEPK10MethodInfoPvPS4_
m2c:_RaycastResult_get_gameObject_m2570051527_AdjustorThunk
cSc:__Z44Canvas_CUSTOM_GetETC1SupportedCanvasMaterialv
Syf:_Decimal_decimalSetExponent_m3707787243
j9:__ZN33InstancedMeshIntermediateRenderer13StaticDestroyEPv
zGd:_KeyNotFoundException__ctor_m2696589580
Pej:__ZN14dense_hash_mapI10KeyWrapperIP14Il2CppIUnknownEjN6il2cpp5utils11PointerHashIS1_EENS3_14EqualsComparerINSt3__28equal_toIS2_EEEENS9_9allocatorINS9_4pairIKS3_jEEEEE13set_empty_keyERSF_
Eva:__ZN15dense_hashtableINSt3__24pairIK9TextureIDiEES2_14GfxGenericHashIS2_EN14GfxDoubleCacheIS2_iS6_NS0_8equal_toIS2_EEN31GfxDoubleCacheConcurrencyPolicy11LocklessGetE42GfxDoubleCacheDefaultEmptyDeletedGeneratorIS2_EE9SelectKeyES9_13stl_allocatorIS4_L18MemLabelIdentifier24ELi16EEE12resize_deltaEjj
$Sg:__Z50RuntimeInvoker_EditState_t3741896775_RuntimeObjectPFvvEPK10MethodInfoPvPS4_
OTa:__Z21DestroyShadowMapCacheP14ShadowMapCache
yx:__ZN7mecanim9animation25CreateControllerWorkspaceEPKNS0_18ControllerConstantERNS_6memory9AllocatorE
H4h:_Array_InternalArray__get_Item_TisLabelFixup_t858502054_m3276643490_gshared
k_f:_HashSet_1__ctor_m4231804131_gshared
c6i:__ZN15dense_hashtableINSt3__24pairIK10KeyWrapperIPK10Il2CppTypeEjEES6_N6il2cpp8metadata14Il2CppTypeHashEN14dense_hash_mapIS6_jSB_NS6_14EqualsComparerINSA_26Il2CppTypeEqualityComparerEEENS0_9allocatorIS8_EEE9SelectKeyESF_SH_E14squash_deletedEv
Ycj:__ZN6il2cpp2vm13LivenessState5ResetEv
Zpc:__ZN9JSONWrite8TransferI11KeyframeTplIfEEEvRT_PKc17TransferMetaFlags
m$h:__ZL99OpeningController_t406972154_CustomAttributesCacheGenerator_OpeningController_CrossFade_m1872315733P21CustomAttributesCache
C5b:__ZN13ProduceHelperI8RendererLb1EE7ProduceE10MemLabelId18ObjectCreationMode
qId:_SortedList_GetImpl_m3689246167
W8h:_ReadOnlyCollection_1_System_Collections_Generic_IListU3CTU3E_set_Item_m3209059215_gshared
Pwa:__ZN24BuiltinShaderParamValuesC2Ev
Dni:_PKCS12_Decode_m163534693
mqc:__ZL41CreateJSONTransferFunctionScriptingTraitsv
cha:__ZN6Shader23VirtualRedirectTransferER14SafeBinaryRead
Ixc:_cff_glyph_load
gAg:_WaitForSecondsRealtime_get_keepWaiting_m846832224
jli:_ObjectPool_1_get_countActive_m807006650_gshared
ejh:_Collection_1_System_Collections_IList_get_Item_m2087137030_gshared
bEb:__Z23GetLateBehaviourManagerv
vGg:__Z33RuntimeInvoker_Single_t1397266774PFvvEPK10MethodInfoPvPS4_
pqb:__ZN14SafeBinaryRead21TransferSTLStyleArrayINSt3__26vectorI8Gradient13stl_allocatorIS3_L18MemLabelIdentifier1ELi16EEEEEEvRT_17TransferMetaFlags
lNf:_NoAllocHelpers_SafeLength_TisInt32_t2950945753_m1263070609_gshared
QX:__ZN10MemoryPool10DeallocateEPv
rmc:__ZN8GUIState8SetEventERK10InputEvent
VJi:__ZL25UnresolvedVirtualCall_214P12Il2CppObjecti39CustomAttributeNamedArgument_t287865710PK10MethodInfo
ZQg:__Z80RuntimeInvoker_Void_t1185182177_ScriptableRenderContext_t274343796_RuntimeObjectPFvvEPK10MethodInfoPvPS4_
MXd:_NullTextWriter_Write_m432139305
uy:__ZN13dynamic_arrayI4PPtrI13MonoBehaviourELj4EE9push_backERKS2_
Lv:__ZN17AnimationPlayable22SetStateMachineMessageEN7mecanim12statemachine19StateMachineMessageE
mVf:_DefaultComparer_GetHashCode_m4122680767_gshared
sEj:dynCall_vif
tEj:dynCall_vid
CYh:__ZL94HorizontalOrVerticalLayoutGroup_t729725570_CustomAttributesCacheGenerator_m_ChildControlHeightP21CustomAttributesCache
BLd:_Convert_ToSByte_m4075629912
uEj:dynCall_vii
a6:__ZN4PPtrI8MaterialE8TransferI18StreamedBinaryReadILb0EEEEvRT_
aBi:_ClassroomController__ctor_m3244084837
n5e:_KeyPairPersistence_FromXml_m746585742
csf:_Decoder__ctor_m4046021500
JBb:__Z18Transfer_BlittableI18StreamedBinaryReadILb0EELb0EdEvRK29SerializationCommandArgumentsR31RuntimeSerializationCommandInfo
v4c:_ColorBlock_get_fadeDuration_m121071467
VXi:__ZN6il2cpp6icalls8mscorlib6System8MonoType18GetFields_internalEP20Il2CppReflectionTypeiS5_
n2:__ZN5Unity9Component16CheckConsistencyEv
Rod:_MonoMethod_get_ContainsGenericParameters_m3860345224
z8b:__Z38scripting_class_get_system_type_object17ScriptingClassPtr
LMh:__ZL101RenderPipelineManager_t4036911426_CustomAttributesCacheGenerator_U3CcurrentPipelineU3Ek__BackingFieldP21CustomAttributesCache
